
hello_world2.elf:     file format elf32-littlenios2
hello_world2.elf
architecture: nios2:r1, flags 0x00000112:
EXEC_P, HAS_SYMS, D_PAGED
start address 0x00800244

Program Header:
    LOAD off    0x00001000 vaddr 0x00800000 paddr 0x00800000 align 2**12
         filesz 0x00000020 memsz 0x00000020 flags r-x
    LOAD off    0x00001020 vaddr 0x00800020 paddr 0x00800020 align 2**12
         filesz 0x00010234 memsz 0x00010234 flags r-x
    LOAD off    0x00011254 vaddr 0x00810254 paddr 0x00810d0c align 2**12
         filesz 0x00000ab8 memsz 0x00000ab8 flags rw-
    LOAD off    0x000127c4 vaddr 0x008117c4 paddr 0x008117c4 align 2**12
         filesz 0x00000000 memsz 0x00000160 flags rw-

Sections:
Idx Name          Size      VMA       LMA       File off  Algn
  0 .entry        00000020  00800000  00800000  00001000  2**5
                  CONTENTS, ALLOC, LOAD, READONLY, CODE
  1 .exceptions   00000224  00800020  00800020  00001020  2**2
                  CONTENTS, ALLOC, LOAD, READONLY, CODE
  2 .text         0000fcd4  00800244  00800244  00001244  2**2
                  CONTENTS, ALLOC, LOAD, READONLY, CODE
  3 .rodata       0000033c  0080ff18  0080ff18  00010f18  2**2
                  CONTENTS, ALLOC, LOAD, READONLY, DATA
  4 .rwdata       00000ab8  00810254  00810d0c  00011254  2**2
                  CONTENTS, ALLOC, LOAD, DATA, SMALL_DATA
  5 .bss          00000160  008117c4  008117c4  000127c4  2**2
                  ALLOC, SMALL_DATA
  6 .sdram        00000000  00811924  00811924  00011d0c  2**0
                  CONTENTS
  7 .comment      00000023  00000000  00000000  00011d0c  2**0
                  CONTENTS, READONLY
  8 .debug_aranges 00000f38  00000000  00000000  00011d30  2**3
                  CONTENTS, READONLY, DEBUGGING
  9 .debug_info   00023a54  00000000  00000000  00012c68  2**0
                  CONTENTS, READONLY, DEBUGGING
 10 .debug_abbrev 0000922f  00000000  00000000  000366bc  2**0
                  CONTENTS, READONLY, DEBUGGING
 11 .debug_line   0000b8ab  00000000  00000000  0003f8eb  2**0
                  CONTENTS, READONLY, DEBUGGING
 12 .debug_frame  00002148  00000000  00000000  0004b198  2**2
                  CONTENTS, READONLY, DEBUGGING
 13 .debug_str    0000395f  00000000  00000000  0004d2e0  2**0
                  CONTENTS, READONLY, DEBUGGING
 14 .debug_loc    00018d47  00000000  00000000  00050c3f  2**0
                  CONTENTS, READONLY, DEBUGGING
 15 .debug_alt_sim_info 00000030  00000000  00000000  00069988  2**2
                  CONTENTS, READONLY, DEBUGGING
 16 .debug_ranges 00001ae8  00000000  00000000  000699b8  2**3
                  CONTENTS, READONLY, DEBUGGING
 17 .thread_model 00000003  00000000  00000000  0006e53e  2**0
                  CONTENTS, READONLY
 18 .cpu          00000003  00000000  00000000  0006e541  2**0
                  CONTENTS, READONLY
 19 .qsys         00000001  00000000  00000000  0006e544  2**0
                  CONTENTS, READONLY
 20 .simulation_enabled 00000001  00000000  00000000  0006e545  2**0
                  CONTENTS, READONLY
 21 .sysid_hash   00000004  00000000  00000000  0006e546  2**0
                  CONTENTS, READONLY
 22 .sysid_base   00000004  00000000  00000000  0006e54a  2**0
                  CONTENTS, READONLY
 23 .sysid_time   00000004  00000000  00000000  0006e54e  2**0
                  CONTENTS, READONLY
 24 .stderr_dev   00000009  00000000  00000000  0006e552  2**0
                  CONTENTS, READONLY
 25 .stdin_dev    00000009  00000000  00000000  0006e55b  2**0
                  CONTENTS, READONLY
 26 .stdout_dev   00000009  00000000  00000000  0006e564  2**0
                  CONTENTS, READONLY
 27 .sopc_system_name 00000006  00000000  00000000  0006e56d  2**0
                  CONTENTS, READONLY
 28 .quartus_project_dir 00000013  00000000  00000000  0006e573  2**0
                  CONTENTS, READONLY
 29 .jdi          000049b3  00000000  00000000  0006e586  2**0
                  CONTENTS, READONLY
 30 .sopcinfo     0003b08c  00000000  00000000  00072f39  2**0
                  CONTENTS, READONLY
SYMBOL TABLE:
00800000 l    d  .entry	00000000 .entry
00800020 l    d  .exceptions	00000000 .exceptions
00800244 l    d  .text	00000000 .text
0080ff18 l    d  .rodata	00000000 .rodata
00810254 l    d  .rwdata	00000000 .rwdata
008117c4 l    d  .bss	00000000 .bss
00811924 l    d  .sdram	00000000 .sdram
00000000 l    d  .comment	00000000 .comment
00000000 l    d  .debug_aranges	00000000 .debug_aranges
00000000 l    d  .debug_info	00000000 .debug_info
00000000 l    d  .debug_abbrev	00000000 .debug_abbrev
00000000 l    d  .debug_line	00000000 .debug_line
00000000 l    d  .debug_frame	00000000 .debug_frame
00000000 l    d  .debug_str	00000000 .debug_str
00000000 l    d  .debug_loc	00000000 .debug_loc
00000000 l    d  .debug_alt_sim_info	00000000 .debug_alt_sim_info
00000000 l    d  .debug_ranges	00000000 .debug_ranges
00000000 l    df *ABS*	00000000 ../hello_world2_bsp//obj/HAL/src/crt0.o
0080028c l       .text	00000000 alt_after_alt_main
00000000 l    df *ABS*	00000000 alt_irq_handler.c
00000000 l    df *ABS*	00000000 alt_instruction_exception_entry.c
00000000 l    df *ABS*	00000000 hello_world.c
00000000 l    df *ABS*	00000000 lib2-mul.c
00000000 l    df *ABS*	00000000 addsf3.c
00000000 l    df *ABS*	00000000 divsf3.c
00000000 l    df *ABS*	00000000 fixsfsi.c
00000000 l    df *ABS*	00000000 floatsisf.c
00000000 l    df *ABS*	00000000 libgcc2.c
00000000 l    df *ABS*	00000000 libgcc2.c
00000000 l    df *ABS*	00000000 printf.c
00000000 l    df *ABS*	00000000 vfprintf.c
008100a2 l     O .rodata	00000010 zeroes.4404
008033f0 l     F .text	000000bc __sbprintf
008100b2 l     O .rodata	00000010 blanks.4403
00000000 l    df *ABS*	00000000 wsetup.c
00000000 l    df *ABS*	00000000 dtoa.c
00803600 l     F .text	00000228 quorem
00000000 l    df *ABS*	00000000 fflush.c
00000000 l    df *ABS*	00000000 findfp.c
00805158 l     F .text	00000008 __fp_unlock
0080516c l     F .text	0000019c __sinit.part.1
00805308 l     F .text	00000008 __fp_lock
00000000 l    df *ABS*	00000000 mallocr.c
00000000 l    df *ABS*	00000000 fwalk.c
00000000 l    df *ABS*	00000000 impure.c
00810254 l     O .rwdata	00000424 impure_data
00000000 l    df *ABS*	00000000 locale.c
00810698 l     O .rwdata	00000020 lc_ctype_charset
00810678 l     O .rwdata	00000020 lc_message_charset
008106b8 l     O .rwdata	00000038 lconv
00000000 l    df *ABS*	00000000 makebuf.c
00000000 l    df *ABS*	00000000 mallocr.c
00000000 l    df *ABS*	00000000 memchr.c
00000000 l    df *ABS*	00000000 memcpy.c
00000000 l    df *ABS*	00000000 memset.c
00000000 l    df *ABS*	00000000 mprec.c
008100e4 l     O .rodata	0000000c p05.2768
00000000 l    df *ABS*	00000000 s_fpclassify.c
00000000 l    df *ABS*	00000000 sbrkr.c
00000000 l    df *ABS*	00000000 stdio.c
00000000 l    df *ABS*	00000000 strcmp.c
00000000 l    df *ABS*	00000000 strlen.c
00000000 l    df *ABS*	00000000 vfprintf.c
00807cec l     F .text	000000fc __sprint_r.part.0
00810208 l     O .rodata	00000010 zeroes.4349
00809328 l     F .text	000000bc __sbprintf
00810218 l     O .rodata	00000010 blanks.4348
00000000 l    df *ABS*	00000000 writer.c
00000000 l    df *ABS*	00000000 closer.c
00000000 l    df *ABS*	00000000 mallocr.c
00000000 l    df *ABS*	00000000 fclose.c
00000000 l    df *ABS*	00000000 fputwc.c
00000000 l    df *ABS*	00000000 fstatr.c
00000000 l    df *ABS*	00000000 fvwrite.c
00000000 l    df *ABS*	00000000 int_errno.c
00000000 l    df *ABS*	00000000 isattyr.c
00000000 l    df *ABS*	00000000 lseekr.c
00000000 l    df *ABS*	00000000 memmove.c
00000000 l    df *ABS*	00000000 readr.c
00000000 l    df *ABS*	00000000 mallocr.c
00000000 l    df *ABS*	00000000 wbuf.c
00000000 l    df *ABS*	00000000 wcrtomb.c
00000000 l    df *ABS*	00000000 wctomb_r.c
00000000 l    df *ABS*	00000000 libgcc2.c
00000000 l    df *ABS*	00000000 libgcc2.c
00000000 l    df *ABS*	00000000 lib2-divmod.c
00000000 l    df *ABS*	00000000 adddf3.c
00000000 l    df *ABS*	00000000 divdf3.c
00000000 l    df *ABS*	00000000 eqdf2.c
00000000 l    df *ABS*	00000000 gedf2.c
00000000 l    df *ABS*	00000000 ledf2.c
00000000 l    df *ABS*	00000000 muldf3.c
00000000 l    df *ABS*	00000000 subdf3.c
00000000 l    df *ABS*	00000000 fixdfsi.c
00000000 l    df *ABS*	00000000 floatsidf.c
00000000 l    df *ABS*	00000000 floatunsidf.c
00000000 l    df *ABS*	00000000 alt_close.c
0080de6c l     F .text	0000003c alt_get_errno
00000000 l    df *ABS*	00000000 alt_dev.c
0080df80 l     F .text	0000002c alt_dev_null_write
00000000 l    df *ABS*	00000000 alt_errno.c
00000000 l    df *ABS*	00000000 alt_fstat.c
0080dfac l     F .text	0000003c alt_get_errno
00000000 l    df *ABS*	00000000 alt_isatty.c
0080e0a0 l     F .text	0000003c alt_get_errno
00000000 l    df *ABS*	00000000 alt_load.c
0080e188 l     F .text	00000068 alt_load_section
00000000 l    df *ABS*	00000000 alt_lseek.c
0080e274 l     F .text	0000003c alt_get_errno
00000000 l    df *ABS*	00000000 alt_main.c
00000000 l    df *ABS*	00000000 alt_malloc_lock.c
00000000 l    df *ABS*	00000000 alt_putstr.c
00000000 l    df *ABS*	00000000 alt_read.c
0080e48c l     F .text	0000003c alt_get_errno
00000000 l    df *ABS*	00000000 alt_release_fd.c
00000000 l    df *ABS*	00000000 alt_sbrk.c
00810cfc l     O .rwdata	00000004 heap_end
00000000 l    df *ABS*	00000000 alt_times.c
0080e700 l     F .text	0000003c alt_get_errno
00000000 l    df *ABS*	00000000 alt_write.c
0080e7b4 l     F .text	0000003c alt_get_errno
00000000 l    df *ABS*	00000000 alt_sys_init.c
0080e8f0 l     F .text	00000034 alt_dev_reg
00810ca0 l     O .rwdata	0000002c jtag_uart
00000000 l    df *ABS*	00000000 altera_avalon_jtag_uart_fd.c
00000000 l    df *ABS*	00000000 altera_avalon_jtag_uart_read.c
00000000 l    df *ABS*	00000000 altera_avalon_jtag_uart_write.c
00000000 l    df *ABS*	00000000 altera_avalon_timer_sc.c
0080ebec l     F .text	00000078 alt_avalon_timer_sc_irq
00000000 l    df *ABS*	00000000 alt_dcache_flush_all.c
00000000 l    df *ABS*	00000000 alt_dev_llist_insert.c
0080ed28 l     F .text	0000003c alt_get_errno
00000000 l    df *ABS*	00000000 alt_do_ctors.c
00000000 l    df *ABS*	00000000 alt_do_dtors.c
00000000 l    df *ABS*	00000000 alt_icache_flush_all.c
00000000 l    df *ABS*	00000000 alt_iic.c
00000000 l    df *ABS*	00000000 alt_iic_isr_register.c
00000000 l    df *ABS*	00000000 alt_io_redirect.c
0080f19c l     F .text	000000e4 alt_open_fd
00000000 l    df *ABS*	00000000 alt_irq_vars.c
00000000 l    df *ABS*	00000000 alt_open.c
0080f2fc l     F .text	0000003c alt_get_errno
0080f338 l     F .text	000000ec alt_file_locked
00000000 l    df *ABS*	00000000 alt_tick.c
00000000 l    df *ABS*	00000000 altera_nios2_gen2_irq.c
00000000 l    df *ABS*	00000000 alt_find_dev.c
00000000 l    df *ABS*	00000000 alt_find_file.c
00000000 l    df *ABS*	00000000 alt_get_fd.c
00000000 l    df *ABS*	00000000 alt_icache_flush.c
00000000 l    df *ABS*	00000000 atexit.c
00000000 l    df *ABS*	00000000 exit.c
00000000 l    df *ABS*	00000000 fputs.c
00000000 l    df *ABS*	00000000 memcmp.c
00000000 l    df *ABS*	00000000 __atexit.c
00000000 l    df *ABS*	00000000 __call_atexit.c
00000000 l    df *ABS*	00000000 alt_exit.c
008117f8 g     O .bss	00000004 alt_instruction_exception_handler
008077fc g     F .text	00000074 _mprec_log10
008078e8 g     F .text	0000008c __any_on
00809da4 g     F .text	00000054 _isatty_r
008100f0 g     O .rodata	00000028 __mprec_tinytens
0080e38c g     F .text	0000007c alt_main
00811824 g     O .bss	00000100 alt_irq
00809df8 g     F .text	00000060 _lseek_r
00810d0c g       *ABS*	00000000 __flash_rwdata_start
0080c8a8 g     F .text	00000088 .hidden __eqdf2
00811924 g       *ABS*	00000000 __alt_heap_start
008010bc g     F .text	0000003c printf
0080a6d0 g     F .text	0000009c _wcrtomb_r
00807b14 g     F .text	0000005c __sseek
008054b8 g     F .text	00000010 __sinit
0080a578 g     F .text	00000140 __swbuf_r
00805ac4 g     F .text	0000007c _setlocale_r
00805310 g     F .text	00000078 __sfmoreglue
0080e42c g     F .text	00000024 __malloc_unlock
00800a54 g     F .text	00000440 .hidden __divsf3
00809e58 g     F .text	0000015c memmove
008054a0 g     F .text	00000018 _cleanup
008068bc g     F .text	000000a8 _Balloc
00800e94 g     F .text	00000070 .hidden __fixsfsi
0080e450 g     F .text	0000003c alt_putstr
0080c930 g     F .text	000000dc .hidden __gtdf2
0080f724 g     F .text	00000024 altera_nios2_gen2_irq_init
00800000 g     F .entry	0000001c __reset
0080e73c g     F .text	00000078 times
00800020 g       *ABS*	00000000 __flash_exceptions_start
00809880 g     F .text	0000005c _fstat_r
008117dc g     O .bss	00000004 errno
00807a90 g     F .text	00000008 __seofread
008117e4 g     O .bss	00000004 alt_argv
00818ccc g       *ABS*	00000000 _gp
00810b20 g     O .rwdata	00000180 alt_fd_list
0080f748 g     F .text	00000090 alt_find_dev
0080664c g     F .text	00000148 memcpy
00805160 g     F .text	0000000c _cleanup_r
0080dce8 g     F .text	000000dc .hidden __floatsidf
0080f280 g     F .text	0000007c alt_io_redirect
0080ca0c g     F .text	000000f4 .hidden __ltdf2
0080ff18 g       *ABS*	00000000 __DTOR_END__
0080fa34 g     F .text	0000009c alt_exception_cause_generated_bad_addr
00807974 g     F .text	00000074 __fpclassifyd
00807758 g     F .text	000000a4 __ratio
0080930c g     F .text	0000001c __vfiprintf_internal
0080ea6c g     F .text	000000ec altera_avalon_jtag_uart_read
0080108c g     F .text	00000030 _printf_r
0080b570 g     F .text	00000064 .hidden __udivsi3
0080e0dc g     F .text	000000ac isatty
00810140 g     O .rodata	000000c8 __mprec_tens
00805b40 g     F .text	0000000c __locale_charset
0080f9a4 g     F .text	00000090 alt_icache_flush
008117d8 g     O .bss	00000004 __malloc_top_pad
00810cd4 g     O .rwdata	00000004 __mb_cur_max
00805b70 g     F .text	0000000c _localeconv_r
008098dc g     F .text	000004c8 __sfvwrite_r
00806cf0 g     F .text	0000003c __i2b
008079e8 g     F .text	00000054 _sbrk_r
00809fb4 g     F .text	00000060 _read_r
00810cf4 g     O .rwdata	00000004 alt_max_fd
00809574 g     F .text	000000f0 _fclose_r
00805128 g     F .text	00000030 fflush
008117d4 g     O .bss	00000004 __malloc_max_sbrked_mem
0080b62c g     F .text	000008ac .hidden __adddf3
00807500 g     F .text	0000010c __b2d
0080aeb4 g     F .text	000005c4 .hidden __umoddi3
0080e2b0 g     F .text	000000dc lseek
00810ccc g     O .rwdata	00000004 _global_impure_ptr
0080a014 g     F .text	00000564 _realloc_r
00811924 g       *ABS*	00000000 __bss_end
0080f0ac g     F .text	000000f0 alt_iic_isr_register
0080f61c g     F .text	00000108 alt_tick
0080a8b8 g     F .text	000005fc .hidden __udivdi3
008097dc g     F .text	00000024 _fputwc_r
00810118 g     O .rodata	00000028 __mprec_bigtens
00806ad4 g     F .text	00000104 __s2b
0080ddc4 g     F .text	000000a8 .hidden __floatunsidf
00807240 g     F .text	00000060 __mcmp
008054d8 g     F .text	00000018 __fp_lock_all
0080f060 g     F .text	0000004c alt_ic_irq_enabled
0080f580 g     F .text	0000009c alt_alarm_stop
008117ec g     O .bss	00000004 alt_irq_active
008000fc g     F .exceptions	000000d4 alt_irq_handler
00810af8 g     O .rwdata	00000028 alt_dev_null
0080ece0 g     F .text	00000048 alt_dcache_flush_all
00806bd8 g     F .text	00000068 __hi0bits
0080dc68 g     F .text	00000080 .hidden __fixdfsi
00810d0c g       *ABS*	00000000 __ram_rwdata_end
00810cec g     O .rwdata	00000008 alt_dev_list
0080e7f0 g     F .text	00000100 write
00810254 g       *ABS*	00000000 __ram_rodata_end
0080dfe8 g     F .text	000000b8 fstat
0080ca0c g     F .text	000000f4 .hidden __ledf2
00806fb8 g     F .text	00000140 __pow5mult
00807e00 g     F .text	0000150c ___vfiprintf_internal_r
008117cc g     O .bss	00000004 __nlocale_changed
0080b5d4 g     F .text	00000058 .hidden __umodsi3
00811924 g       *ABS*	00000000 end
008001d0 g     F .exceptions	00000074 alt_instruction_exception_entry
0080ff18 g       *ABS*	00000000 __CTOR_LIST__
01000000 g       *ABS*	00000000 __alt_stack_pointer
0080ec64 g     F .text	0000007c alt_avalon_timer_sc_init
00801028 g     F .text	00000064 .hidden __clzsi2
0080eb58 g     F .text	00000094 altera_avalon_jtag_uart_write
008054c8 g     F .text	00000004 __sfp_lock_acquire
00806568 g     F .text	000000e4 memchr
008010f8 g     F .text	000022dc ___vfprintf_internal_r
0080562c g     F .text	00000310 _free_r
00805b4c g     F .text	00000010 __locale_mb_cur_max
0080fd64 g     F .text	00000180 __call_exitprocs
008117c8 g     O .bss	00000004 __mlocale_changed
00810cd8 g     O .rwdata	00000004 __malloc_sbrk_base
00800244 g     F .text	0000004c _start
008117f0 g     O .bss	00000004 _alt_tick_rate
008070f8 g     F .text	00000148 __lshift
008117f4 g     O .bss	00000004 _alt_nticks
0080e4c8 g     F .text	00000104 read
0080e95c g     F .text	00000050 alt_sys_init
00800f04 g     F .text	00000124 .hidden __floatsisf
0080fc4c g     F .text	00000118 __register_exitproc
00806d2c g     F .text	0000028c __multiply
00800564 g     F .text	00000028 .hidden __mulsi3
00810254 g       *ABS*	00000000 __ram_rwdata_start
0080ff18 g       *ABS*	00000000 __ram_rodata_start
008117fc g     O .bss	00000028 __malloc_current_mallinfo
0080760c g     F .text	0000014c __d2b
0080e9ac g     F .text	00000060 altera_avalon_jtag_uart_read_fd
0080f8e0 g     F .text	000000c4 alt_get_fd
00809444 g     F .text	00000054 _close_r
00800290 g     F .text	000000bc generateVector
0080fbd0 g     F .text	0000007c memcmp
00811924 g       *ABS*	00000000 __alt_stack_base
008034ac g     F .text	00000154 __swsetup_r
0080bed8 g     F .text	000009d0 .hidden __divdf3
00805388 g     F .text	00000118 __sfp
00807870 g     F .text	00000078 __copybits
008106f0 g     O .rwdata	00000408 __malloc_av_
008054d4 g     F .text	00000004 __sinit_lock_release
0080cb00 g     F .text	0000086c .hidden __muldf3
00807a3c g     F .text	00000054 __sread
0080f7d8 g     F .text	00000108 alt_find_file
0080ed64 g     F .text	000000a4 alt_dev_llist_insert
0080e408 g     F .text	00000024 __malloc_lock
0080e650 g     F .text	000000b0 sbrk
008050cc g     F .text	0000005c _fflush_r
00809498 g     F .text	000000dc _calloc_r
008117c4 g       *ABS*	00000000 __bss_start
00806794 g     F .text	00000128 memset
008003e0 g     F .text	00000184 main
008117e8 g     O .bss	00000004 alt_envp
008117d0 g     O .bss	00000004 __malloc_max_total_mem
0080ea0c g     F .text	00000060 altera_avalon_jtag_uart_write_fd
0080a6b8 g     F .text	00000018 __swbuf
00807b70 g     F .text	00000008 __sclose
01000000 g       *ABS*	00000000 __alt_heap_limit
00809664 g     F .text	00000014 fclose
00803828 g     F .text	00001688 _dtoa_r
00805d5c g     F .text	0000080c _malloc_r
0080a82c g     F .text	00000030 __ascii_wctomb
00810cf8 g     O .rwdata	00000004 alt_errno
0080593c g     F .text	000000c4 _fwalk
0080b478 g     F .text	00000084 .hidden __divsi3
00805508 g     F .text	00000124 _malloc_trim_r
0080ff18 g       *ABS*	00000000 __CTOR_END__
00807b78 g     F .text	000000dc strcmp
0080ff18 g       *ABS*	00000000 __flash_rodata_start
0080ff18 g       *ABS*	00000000 __DTOR_LIST__
0080c8a8 g     F .text	00000088 .hidden __nedf2
0080e924 g     F .text	00000038 alt_irq_init
0080e5cc g     F .text	00000084 alt_release_fd
0080ff5d g     O .rodata	00000100 .hidden __clz_tab
008117c4 g     O .bss	00000004 _PathLocale
0080fad0 g     F .text	00000014 atexit
0080034c g     F .text	00000094 sumVector
008093e4 g     F .text	00000060 _write_r
00805b7c g     F .text	00000018 setlocale
00810cd0 g     O .rwdata	00000004 _impure_ptr
008117e0 g     O .bss	00000004 alt_argc
00804eb0 g     F .text	0000021c __sflush_r
0080ee68 g     F .text	00000060 _do_dtors
00805b68 g     F .text	00000008 __locale_cjk_lang
00800020 g       .exceptions	00000000 alt_irq_entry
0080749c g     F .text	00000064 __ulp
008054f0 g     F .text	00000018 __fp_unlock_all
00810ce4 g     O .rwdata	00000008 alt_fs_list
00800020 g       *ABS*	00000000 __ram_exceptions_start
00805b94 g     F .text	0000000c localeconv
0080eefc g     F .text	00000050 alt_ic_isr_register
00810d0c g       *ABS*	00000000 _edata
00811924 g       *ABS*	00000000 _end
00809678 g     F .text	00000164 __fputwc
00800244 g       *ABS*	00000000 __ram_exceptions_end
0080fb1c g     F .text	0000009c _fputs_r
0080efd4 g     F .text	0000008c alt_ic_irq_disable
00807a98 g     F .text	0000007c __swrite
00810cdc g     O .rwdata	00000004 __malloc_trim_threshold
00805b5c g     F .text	0000000c __locale_msgcharset
0080fae4 g     F .text	00000038 exit
00805a00 g     F .text	000000c4 _fwalk_reent
008072a0 g     F .text	000001fc __mdiff
0080b4fc g     F .text	00000074 .hidden __modsi3
01000000 g       *ABS*	00000000 __alt_data_end
00800020 g     F .exceptions	00000000 alt_exception
008054cc g     F .text	00000004 __sfp_lock_release
00800000 g       *ABS*	00000000 __alt_mem_sdram
0080fee4 g     F .text	00000034 _exit
00805ba0 g     F .text	000001bc __smakebuf_r
00807c54 g     F .text	00000098 strlen
0080f424 g     F .text	0000015c open
0080c930 g     F .text	000000dc .hidden __gedf2
00810ce0 g     O .rwdata	00000004 __wctomb
00807de8 g     F .text	00000018 __sprint_r
0080eec8 g     F .text	00000034 alt_icache_flush_all
0080fbb8 g     F .text	00000018 fputs
00810d00 g     O .rwdata	00000004 alt_priority_mask
0080ef4c g     F .text	00000088 alt_ic_irq_enable
008033d4 g     F .text	0000001c __vfprintf_internal
0080a85c g     F .text	0000005c _wctomb_r
0080d36c g     F .text	000008fc .hidden __subdf3
00806c40 g     F .text	000000b0 __lo0bits
00810d04 g     O .rwdata	00000008 alt_alarm_list
0080ee08 g     F .text	00000060 _do_ctors
0080a76c g     F .text	000000c0 wcrtomb
0080dea8 g     F .text	000000d8 close
0080058c g     F .text	000004c8 .hidden __addsf3
0080e1f0 g     F .text	00000084 alt_load
00809800 g     F .text	00000080 fputwc
008054d0 g     F .text	00000004 __sinit_lock_acquire
0080698c g     F .text	00000148 __multadd
00806964 g     F .text	00000028 _Bfree



Disassembly of section .entry:

00800000 <__reset>:
#if NIOS2_ICACHE_SIZE > 0 && defined(ALT_ALLOW_CODE_AT_RESET) && (!defined(ALT_SIM_OPTIMIZE) || defined(NIOS2_ECC_PRESENT))
    /* Assume the instruction cache size is always a power of two. */
#if NIOS2_ICACHE_SIZE > 0x8000
    movhi r2, %hi(NIOS2_ICACHE_SIZE)
#else
    movui r2, NIOS2_ICACHE_SIZE
  800000:	00810014 	movui	r2,1024
#endif

0:
    initi r2
  800004:	1001483a 	initi	r2
    addi r2, r2, -NIOS2_ICACHE_LINE_SIZE
  800008:	10bff804 	addi	r2,r2,-32
    bgt r2, zero, 0b
  80000c:	00bffd16 	blt	zero,r2,800004 <__alt_data_end+0xff800004>
 * Jump to the _start entry point in the .text section if reset code
 * is allowed or if optimizing for RTL simulation.
 */
#if defined(ALT_ALLOW_CODE_AT_RESET) || defined(ALT_SIM_OPTIMIZE)
    /* Jump to the _start entry point in the .text section. */
    movhi r1, %hi(_start)
  800010:	00402034 	movhi	at,128
    ori r1, r1, %lo(_start)
  800014:	08409114 	ori	at,at,580
    jmp r1
  800018:	0800683a 	jmp	at
  80001c:	00000000 	call	0 <__reset-0x800000>

Disassembly of section .exceptions:

00800020 <alt_exception>:

#else /* ALT_EXCEPTION_STACK disabled */
        /* 
         * Reserve space on normal stack for registers about to be pushed.
         */
        addi  sp, sp, -76
  800020:	deffed04 	addi	sp,sp,-76
         * documentation for details).
         *
         * Leave a gap in the stack frame at 4(sp) for the muldiv handler to
         * store zero into.
         */
        stw   ra,  0(sp)
  800024:	dfc00015 	stw	ra,0(sp)
        stw   r1,   8(sp)
  800028:	d8400215 	stw	at,8(sp)
        stw   r2,  12(sp)
  80002c:	d8800315 	stw	r2,12(sp)
        stw   r3,  16(sp)
  800030:	d8c00415 	stw	r3,16(sp)
        stw   r4,  20(sp)
  800034:	d9000515 	stw	r4,20(sp)
        stw   r5,  24(sp)
  800038:	d9400615 	stw	r5,24(sp)
        stw   r6,  28(sp)
  80003c:	d9800715 	stw	r6,28(sp)
        stw   r7,  32(sp)
  800040:	d9c00815 	stw	r7,32(sp)
        rdctl r5, estatus   /* Read early to avoid usage stall */
  800044:	000b307a 	rdctl	r5,estatus
        stw   r8,  36(sp)
  800048:	da000915 	stw	r8,36(sp)
        stw   r9,  40(sp)
  80004c:	da400a15 	stw	r9,40(sp)
        stw   r10, 44(sp)
  800050:	da800b15 	stw	r10,44(sp)
        stw   r11, 48(sp)
  800054:	dac00c15 	stw	r11,48(sp)
        stw   r12, 52(sp)
  800058:	db000d15 	stw	r12,52(sp)
        stw   r13, 56(sp)
  80005c:	db400e15 	stw	r13,56(sp)
        stw   r14, 60(sp)
  800060:	db800f15 	stw	r14,60(sp)
        stw   r15, 64(sp)
  800064:	dbc01015 	stw	r15,64(sp)
        /*
         * ea-4 contains the address of the instruction being executed
         * when the exception occured. For interrupt exceptions, we will
         * will be re-issue the isntruction. Store it in 72(sp)
         */
        stw   r5,  68(sp)  /* estatus */
  800068:	d9401115 	stw	r5,68(sp)
        addi  r15, ea, -4  /* instruction that caused exception */
  80006c:	ebffff04 	addi	r15,ea,-4
        stw   r15,  72(sp)
  800070:	dbc01215 	stw	r15,72(sp)
#else
        /*
         * Test to see if the exception was a software exception or caused 
         * by an external interrupt, and vector accordingly.
         */
        rdctl r4, ipending
  800074:	0009313a 	rdctl	r4,ipending
        andi  r2, r5, 1
  800078:	2880004c 	andi	r2,r5,1
        beq   r2, zero, .Lnot_irq
  80007c:	10000326 	beq	r2,zero,80008c <alt_exception+0x6c>
        beq   r4, zero, .Lnot_irq
  800080:	20000226 	beq	r4,zero,80008c <alt_exception+0x6c>
        /*
         * Now that all necessary registers have been preserved, call 
         * alt_irq_handler() to process the interrupts.
         */

        call alt_irq_handler
  800084:	08000fc0 	call	8000fc <alt_irq_handler>

        .section .exceptions.irqreturn, "xa"

        br    .Lexception_exit
  800088:	00000706 	br	8000a8 <alt_exception+0x88>
         * upon completion, so we write ea (address of instruction *after*
         * the one where the exception occured) into 72(sp). The actual
         * instruction that caused the exception is written in r2, which these
         * handlers will utilize.
         */
        stw ea, 72(sp) /* EA is PC+4 so will skip over instruction causing exception */
  80008c:	df401215 	stw	ea,72(sp)
.Lunknown_16bit:
        addi.n r4, r4, 2 /* Need PC+2 to skip over instruction causing exception */
        stw r4, 72(sp)

#else /* CDX is not Enabled and all instructions are 32bits */
        ldw r2, -4(ea) /* Instruction value that caused exception */
  800090:	e8bfff17 	ldw	r2,-4(ea)
         * debugger is present) or go into an infinite loop since the
         * handling behavior is undefined; in that case we will not return here.
         */

        /* Load exception-causing address as first argument (r4) */
        addi   r4, ea, -4
  800094:	e93fff04 	addi	r4,ea,-4

        /* Call the instruction-exception entry */
        call   alt_instruction_exception_entry
  800098:	08001d00 	call	8001d0 <alt_instruction_exception_entry>
         * instruction
         *
         * Return code was 0: Skip. The instruction after the exception is
         * already stored in 72(sp).
         */
        bne   r2, r0, .Lexception_exit
  80009c:	1000021e 	bne	r2,zero,8000a8 <alt_exception+0x88>

        /*
         * Otherwise, modify 72(sp) to re-issue the instruction that caused the
         * exception.
         */
        addi  r15, ea, -4  /* instruction that caused exception */
  8000a0:	ebffff04 	addi	r15,ea,-4
        stw   r15,  72(sp)
  8000a4:	dbc01215 	stw	r15,72(sp)
        /* 
         * Restore the saved registers, so that all general purpose registers 
         * have been restored to their state at the time the interrupt occured.
         */

        ldw   r5,  68(sp)
  8000a8:	d9401117 	ldw	r5,68(sp)
        ldw   ea,  72(sp)  /* This becomes the PC once eret is executed */
  8000ac:	df401217 	ldw	ea,72(sp)
        ldw   ra,   0(sp)
  8000b0:	dfc00017 	ldw	ra,0(sp)

        wrctl estatus, r5
  8000b4:	2801707a 	wrctl	estatus,r5

        ldw   r1,   8(sp)
  8000b8:	d8400217 	ldw	at,8(sp)
        ldw   r2,  12(sp)
  8000bc:	d8800317 	ldw	r2,12(sp)
        ldw   r3,  16(sp)
  8000c0:	d8c00417 	ldw	r3,16(sp)
        ldw   r4,  20(sp)
  8000c4:	d9000517 	ldw	r4,20(sp)
        ldw   r5,  24(sp)
  8000c8:	d9400617 	ldw	r5,24(sp)
        ldw   r6,  28(sp)
  8000cc:	d9800717 	ldw	r6,28(sp)
        ldw   r7,  32(sp)
  8000d0:	d9c00817 	ldw	r7,32(sp)

#if defined(ALT_EXCEPTION_STACK) && defined(ALT_STACK_CHECK)
        ldw   et, %gprel(alt_exception_old_stack_limit)(gp)
#endif

        ldw   r8,  36(sp)
  8000d4:	da000917 	ldw	r8,36(sp)
        ldw   r9,  40(sp)
  8000d8:	da400a17 	ldw	r9,40(sp)
        ldw   r10, 44(sp)
  8000dc:	da800b17 	ldw	r10,44(sp)
        ldw   r11, 48(sp)
  8000e0:	dac00c17 	ldw	r11,48(sp)
        ldw   r12, 52(sp)
  8000e4:	db000d17 	ldw	r12,52(sp)
        ldw   r13, 56(sp)
  8000e8:	db400e17 	ldw	r13,56(sp)
        ldw   r14, 60(sp)
  8000ec:	db800f17 	ldw	r14,60(sp)
        ldw   r15, 64(sp)
  8000f0:	dbc01017 	ldw	r15,64(sp)
        stw   et, %gprel(alt_stack_limit_value)(gp)
        stw   zero, %gprel(alt_exception_old_stack_limit)(gp)
#endif /* ALT_STACK_CHECK */
        ldw   sp,  76(sp)
#else /* ALT_EXCEPTION_STACK disabled */
        addi  sp, sp, 76
  8000f4:	dec01304 	addi	sp,sp,76

        /*
         * Return to the interrupted instruction.
         */

        eret
  8000f8:	ef80083a 	eret

008000fc <alt_irq_handler>:
 * instruction is present if the macro ALT_CI_INTERRUPT_VECTOR defined.
 */

void alt_irq_handler (void) __attribute__ ((section (".exceptions")));
void alt_irq_handler (void)
{
  8000fc:	defff904 	addi	sp,sp,-28
  800100:	dfc00615 	stw	ra,24(sp)
  800104:	df000515 	stw	fp,20(sp)
  800108:	df000504 	addi	fp,sp,20
  
  /*
   * Notify the operating system that we are at interrupt level.
   */ 
  
  ALT_OS_INT_ENTER();
  80010c:	0001883a 	nop
#ifndef NIOS2_EIC_PRESENT
static ALT_INLINE alt_u32 ALT_ALWAYS_INLINE alt_irq_pending (void)
{
  alt_u32 active;

  NIOS2_READ_IPENDING (active);
  800110:	0005313a 	rdctl	r2,ipending
  800114:	e0bffe15 	stw	r2,-8(fp)

  return active;
  800118:	e0bffe17 	ldw	r2,-8(fp)
   * Consider the case where the high priority interupt is asserted during
   * the interrupt entry sequence for a lower priority interrupt to see why
   * this is the case.
   */

  active = alt_irq_pending ();
  80011c:	e0bffb15 	stw	r2,-20(fp)

  do
  {
    i = 0;
  800120:	e03ffd15 	stw	zero,-12(fp)
    mask = 1;
  800124:	00800044 	movi	r2,1
  800128:	e0bffc15 	stw	r2,-16(fp)
     * called to clear the interrupt condition.
     */

    do
    {
      if (active & mask)
  80012c:	e0fffb17 	ldw	r3,-20(fp)
  800130:	e0bffc17 	ldw	r2,-16(fp)
  800134:	1884703a 	and	r2,r3,r2
  800138:	10001426 	beq	r2,zero,80018c <alt_irq_handler+0x90>
      { 
#ifdef ALT_ENHANCED_INTERRUPT_API_PRESENT
        alt_irq[i].handler(alt_irq[i].context); 
  80013c:	00802074 	movhi	r2,129
  800140:	10860904 	addi	r2,r2,6180
  800144:	e0fffd17 	ldw	r3,-12(fp)
  800148:	180690fa 	slli	r3,r3,3
  80014c:	10c5883a 	add	r2,r2,r3
  800150:	10c00017 	ldw	r3,0(r2)
  800154:	00802074 	movhi	r2,129
  800158:	10860904 	addi	r2,r2,6180
  80015c:	e13ffd17 	ldw	r4,-12(fp)
  800160:	200890fa 	slli	r4,r4,3
  800164:	1105883a 	add	r2,r2,r4
  800168:	10800104 	addi	r2,r2,4
  80016c:	10800017 	ldw	r2,0(r2)
  800170:	1009883a 	mov	r4,r2
  800174:	183ee83a 	callr	r3
#else
        alt_irq[i].handler(alt_irq[i].context, i); 
#endif
        break;
  800178:	0001883a 	nop
#ifndef NIOS2_EIC_PRESENT
static ALT_INLINE alt_u32 ALT_ALWAYS_INLINE alt_irq_pending (void)
{
  alt_u32 active;

  NIOS2_READ_IPENDING (active);
  80017c:	0005313a 	rdctl	r2,ipending
  800180:	e0bfff15 	stw	r2,-4(fp)

  return active;
  800184:	e0bfff17 	ldw	r2,-4(fp)
  800188:	00000706 	br	8001a8 <alt_irq_handler+0xac>
      }
      mask <<= 1;
  80018c:	e0bffc17 	ldw	r2,-16(fp)
  800190:	1085883a 	add	r2,r2,r2
  800194:	e0bffc15 	stw	r2,-16(fp)
      i++;
  800198:	e0bffd17 	ldw	r2,-12(fp)
  80019c:	10800044 	addi	r2,r2,1
  8001a0:	e0bffd15 	stw	r2,-12(fp)

    } while (1);
  8001a4:	003fe106 	br	80012c <__alt_data_end+0xff80012c>

    active = alt_irq_pending ();
  8001a8:	e0bffb15 	stw	r2,-20(fp)
    
  } while (active);
  8001ac:	e0bffb17 	ldw	r2,-20(fp)
  8001b0:	103fdb1e 	bne	r2,zero,800120 <__alt_data_end+0xff800120>

  /*
   * Notify the operating system that interrupt processing is complete.
   */ 

  ALT_OS_INT_EXIT();
  8001b4:	0001883a 	nop
}
  8001b8:	0001883a 	nop
  8001bc:	e037883a 	mov	sp,fp
  8001c0:	dfc00117 	ldw	ra,4(sp)
  8001c4:	df000017 	ldw	fp,0(sp)
  8001c8:	dec00204 	addi	sp,sp,8
  8001cc:	f800283a 	ret

008001d0 <alt_instruction_exception_entry>:
 * that handler if it has been registered. Absent a handler, it will
 * break break or hang as discussed below.
 */
int 
alt_instruction_exception_entry (alt_u32 exception_pc)
{
  8001d0:	defffb04 	addi	sp,sp,-20
  8001d4:	dfc00415 	stw	ra,16(sp)
  8001d8:	df000315 	stw	fp,12(sp)
  8001dc:	df000304 	addi	fp,sp,12
  8001e0:	e13fff15 	stw	r4,-4(fp)
 * NIOS2_EXCEPTION_CAUSE_NOT_PRESENT. Your handling routine should
 * check the validity of the cause argument before proceeding.
 */
#ifdef NIOS2_HAS_EXTRA_EXCEPTION_INFO
  /* Get exception cause & "badaddr" */
  NIOS2_READ_EXCEPTION(cause);
  8001e4:	000531fa 	rdctl	r2,exception
  8001e8:	e0bffd15 	stw	r2,-12(fp)
  cause = ( (cause & NIOS2_EXCEPTION_REG_CAUSE_MASK) >>
  8001ec:	e0bffd17 	ldw	r2,-12(fp)
  8001f0:	10801f0c 	andi	r2,r2,124
  8001f4:	1004d0ba 	srli	r2,r2,2
  8001f8:	e0bffd15 	stw	r2,-12(fp)
              NIOS2_EXCEPTION_REG_CAUSE_OFST );

  NIOS2_READ_BADADDR(badaddr);
  8001fc:	0005333a 	rdctl	r2,badaddr
  800200:	e0bffe15 	stw	r2,-8(fp)
#else
  cause = NIOS2_EXCEPTION_CAUSE_NOT_PRESENT;
  badaddr = 0;
#endif /* NIOS2_HAS_EXTRA_EXCEPTION_INFO */

  if(alt_instruction_exception_handler) {
  800204:	d0a2cb17 	ldw	r2,-29908(gp)
  800208:	10000726 	beq	r2,zero,800228 <alt_instruction_exception_entry+0x58>
     * Call handler. Its return value indicates whether the exception-causing
     * instruction should be re-issued. The code that called us,
     * alt_eceptions_entry.S, will look at this value and adjust the ea
     * register as necessary
     */
    return alt_instruction_exception_handler(cause, exception_pc, badaddr);
  80020c:	d0a2cb17 	ldw	r2,-29908(gp)
  800210:	e0fffd17 	ldw	r3,-12(fp)
  800214:	e1bffe17 	ldw	r6,-8(fp)
  800218:	e17fff17 	ldw	r5,-4(fp)
  80021c:	1809883a 	mov	r4,r3
  800220:	103ee83a 	callr	r2
  800224:	00000206 	br	800230 <alt_instruction_exception_entry+0x60>
   *    (a peripheral which negates its interrupt output before its
   *    interrupt handler has been executed will cause spurious interrupts)
   */
  else {
#ifdef NIOS2_HAS_DEBUG_STUB
    NIOS2_BREAK();
  800228:	003da03a 	break	0
      ;
#endif /* NIOS2_HAS_DEBUG_STUB */
  }

  /* We should not get here. Remove compiler warning. */
  return NIOS2_EXCEPTION_RETURN_REISSUE_INST;
  80022c:	0005883a 	mov	r2,zero
}
  800230:	e037883a 	mov	sp,fp
  800234:	dfc00117 	ldw	ra,4(sp)
  800238:	df000017 	ldw	fp,0(sp)
  80023c:	dec00204 	addi	sp,sp,8
  800240:	f800283a 	ret

Disassembly of section .text:

00800244 <_start>:

    /* Assume the data cache size is always a power of two. */
#if NIOS2_DCACHE_SIZE > 0x8000
    movhi r2, %hi(NIOS2_DCACHE_SIZE)
#else
    movui r2, NIOS2_DCACHE_SIZE
  800244:	00810014 	movui	r2,1024
#endif

0:
    initd 0(r2)
  800248:	10000033 	initd	0(r2)
#ifdef NIOS2_ECC_PRESENT
    addi r2, r2, -4
#else
    addi r2, r2, -NIOS2_DCACHE_LINE_SIZE
  80024c:	10bff804 	addi	r2,r2,-32
#endif
    bgt r2, zero, 0b
  800250:	00bffd16 	blt	zero,r2,800248 <__alt_data_end+0xff800248>

    /*
     * Now that the caches are initialized, set up the stack pointer and global pointer.
     * The values provided by the linker are assumed to be correctly aligned.
     */
    movhi sp, %hi(__alt_stack_pointer)
  800254:	06c04034 	movhi	sp,256
    ori sp, sp, %lo(__alt_stack_pointer)
  800258:	dec00014 	ori	sp,sp,0
    movhi gp, %hi(_gp)
  80025c:	06802074 	movhi	gp,129
    ori gp, gp, %lo(_gp)
  800260:	d6a33314 	ori	gp,gp,36044
 */
#ifndef ALT_SIM_OPTIMIZE
    /* Log that the BSS is about to be cleared. */
    ALT_LOG_PUTS(alt_log_msg_bss)

    movhi r2, %hi(__bss_start)
  800264:	00802074 	movhi	r2,129
    ori r2, r2, %lo(__bss_start)
  800268:	1085f114 	ori	r2,r2,6084

    movhi r3, %hi(__bss_end)
  80026c:	00c02074 	movhi	r3,129
    ori r3, r3, %lo(__bss_end)
  800270:	18c64914 	ori	r3,r3,6436

    beq r2, r3, 1f
  800274:	10c00326 	beq	r2,r3,800284 <_start+0x40>

0:
    stw zero, (r2)
  800278:	10000015 	stw	zero,0(r2)
    addi r2, r2, 4
  80027c:	10800104 	addi	r2,r2,4
    bltu r2, r3, 0b
  800280:	10fffd36 	bltu	r2,r3,800278 <__alt_data_end+0xff800278>
     * section aren't defined until alt_load() has been called).
     */
    mov   et, zero
#endif

    call alt_load
  800284:	080e1f00 	call	80e1f0 <alt_load>

    /* Log that alt_main is about to be called. */
    ALT_LOG_PUTS(alt_log_msg_alt_main)

    /* Call the C entry point. It should never return. */
    call alt_main
  800288:	080e38c0 	call	80e38c <alt_main>

0080028c <alt_after_alt_main>:

    /* Wait in infinite loop in case alt_main does return. */
alt_after_alt_main:
    br alt_after_alt_main
  80028c:	003fff06 	br	80028c <__alt_data_end+0xff80028c>

00800290 <generateVector>:
#define N 261121


// Generates the vector x and stores it in the memory
void generateVector(float x[N])
{
  800290:	defffb04 	addi	sp,sp,-20
  800294:	dfc00415 	stw	ra,16(sp)
  800298:	df000315 	stw	fp,12(sp)
  80029c:	dc000215 	stw	r16,8(sp)
  8002a0:	df000304 	addi	fp,sp,12
  8002a4:	e13ffe15 	stw	r4,-8(fp)
	int i;
	x[0] = 0;
  8002a8:	e0bffe17 	ldw	r2,-8(fp)
  8002ac:	10000015 	stw	zero,0(r2)
	for (i=1; i<N; i++)
  8002b0:	00800044 	movi	r2,1
  8002b4:	e0bffd15 	stw	r2,-12(fp)
  8002b8:	00001906 	br	800320 <generateVector+0x90>
		x[i] = x[i-1] + step;
  8002bc:	e0bffd17 	ldw	r2,-12(fp)
  8002c0:	1085883a 	add	r2,r2,r2
  8002c4:	1085883a 	add	r2,r2,r2
  8002c8:	1007883a 	mov	r3,r2
  8002cc:	e0bffe17 	ldw	r2,-8(fp)
  8002d0:	10e1883a 	add	r16,r2,r3
  8002d4:	e0fffd17 	ldw	r3,-12(fp)
  8002d8:	00900034 	movhi	r2,16384
  8002dc:	10bfffc4 	addi	r2,r2,-1
  8002e0:	1885883a 	add	r2,r3,r2
  8002e4:	1085883a 	add	r2,r2,r2
  8002e8:	1085883a 	add	r2,r2,r2
  8002ec:	1007883a 	mov	r3,r2
  8002f0:	e0bffe17 	ldw	r2,-8(fp)
  8002f4:	10c5883a 	add	r2,r2,r3
  8002f8:	10c00017 	ldw	r3,0(r2)
  8002fc:	014ea034 	movhi	r5,14976
  800300:	1809883a 	mov	r4,r3
  800304:	080058c0 	call	80058c <__addsf3>
  800308:	1007883a 	mov	r3,r2
  80030c:	1805883a 	mov	r2,r3
  800310:	80800015 	stw	r2,0(r16)
// Generates the vector x and stores it in the memory
void generateVector(float x[N])
{
	int i;
	x[0] = 0;
	for (i=1; i<N; i++)
  800314:	e0bffd17 	ldw	r2,-12(fp)
  800318:	10800044 	addi	r2,r2,1
  80031c:	e0bffd15 	stw	r2,-12(fp)
  800320:	e0fffd17 	ldw	r3,-12(fp)
  800324:	00800134 	movhi	r2,4
  800328:	10bf0004 	addi	r2,r2,-1024
  80032c:	10ffe30e 	bge	r2,r3,8002bc <__alt_data_end+0xff8002bc>
		x[i] = x[i-1] + step;
}
  800330:	0001883a 	nop
  800334:	e6ffff04 	addi	sp,fp,-4
  800338:	dfc00217 	ldw	ra,8(sp)
  80033c:	df000117 	ldw	fp,4(sp)
  800340:	dc000017 	ldw	r16,0(sp)
  800344:	dec00304 	addi	sp,sp,12
  800348:	f800283a 	ret

0080034c <sumVector>:

float sumVector(float x[], int M)
{
  80034c:	defffa04 	addi	sp,sp,-24
  800350:	dfc00515 	stw	ra,20(sp)
  800354:	df000415 	stw	fp,16(sp)
  800358:	df000404 	addi	fp,sp,16
  80035c:	e13ffe15 	stw	r4,-8(fp)
  800360:	e17fff15 	stw	r5,-4(fp)
	// YOUR CODE GOES HERE
	float sum = 0.0;
  800364:	e03ffc15 	stw	zero,-16(fp)
	for(int i=0; i < N; i++) {
  800368:	e03ffd15 	stw	zero,-12(fp)
  80036c:	00001006 	br	8003b0 <sumVector+0x64>
		sum += i + i*i;
  800370:	e0bffd17 	ldw	r2,-12(fp)
  800374:	10800044 	addi	r2,r2,1
  800378:	e17ffd17 	ldw	r5,-12(fp)
  80037c:	1009883a 	mov	r4,r2
  800380:	08005640 	call	800564 <__mulsi3>
  800384:	1009883a 	mov	r4,r2
  800388:	0800f040 	call	800f04 <__floatsisf>
  80038c:	1007883a 	mov	r3,r2
  800390:	180b883a 	mov	r5,r3
  800394:	e13ffc17 	ldw	r4,-16(fp)
  800398:	080058c0 	call	80058c <__addsf3>
  80039c:	1007883a 	mov	r3,r2
  8003a0:	e0fffc15 	stw	r3,-16(fp)

float sumVector(float x[], int M)
{
	// YOUR CODE GOES HERE
	float sum = 0.0;
	for(int i=0; i < N; i++) {
  8003a4:	e0bffd17 	ldw	r2,-12(fp)
  8003a8:	10800044 	addi	r2,r2,1
  8003ac:	e0bffd15 	stw	r2,-12(fp)
  8003b0:	e0fffd17 	ldw	r3,-12(fp)
  8003b4:	00800134 	movhi	r2,4
  8003b8:	10bf0004 	addi	r2,r2,-1024
  8003bc:	10ffec0e 	bge	r2,r3,800370 <__alt_data_end+0xff800370>
		sum += i + i*i;
	}
	return sum;
  8003c0:	e0bffc17 	ldw	r2,-16(fp)
  8003c4:	1007883a 	mov	r3,r2
}
  8003c8:	1805883a 	mov	r2,r3
  8003cc:	e037883a 	mov	sp,fp
  8003d0:	dfc00117 	ldw	ra,4(sp)
  8003d4:	df000017 	ldw	fp,0(sp)
  8003d8:	dec00204 	addi	sp,sp,8
  8003dc:	f800283a 	ret

008003e0 <main>:

int main()
{
  8003e0:	defffe04 	addi	sp,sp,-8
  8003e4:	dfc00115 	stw	ra,4(sp)
  8003e8:	df000015 	stw	fp,0(sp)
  8003ec:	d839883a 	mov	fp,sp
  8003f0:	023ffc34 	movhi	r8,65520
  8003f4:	4203ee04 	addi	r8,r8,4024
  8003f8:	da37883a 	add	sp,sp,r8

  alt_putstr("Task 2!\n");
  8003fc:	01002074 	movhi	r4,129
  800400:	213fc604 	addi	r4,r4,-232
  800404:	080e4500 	call	80e450 <alt_putstr>
  float x[N];

  // Returned result
  float y;

  generateVector(x);
  800408:	00fffc34 	movhi	r3,65520
  80040c:	18c3f204 	addi	r3,r3,4040
  800410:	e0c5883a 	add	r2,fp,r3
  800414:	1009883a 	mov	r4,r2
  800418:	08002900 	call	800290 <generateVector>

  // The following is used for timing
  char buf[50];
  clock_t exec_t1, exec_t2;

  exec_t1 = times(NULL); // get system time before starting the process
  80041c:	0009883a 	mov	r4,zero
  800420:	080e73c0 	call	80e73c <times>
  800424:	013ffc34 	movhi	r4,65520
  800428:	2103f004 	addi	r4,r4,4032
  80042c:	2709883a 	add	r4,r4,fp
  800430:	20800015 	stw	r2,0(r4)

  // The code that you want to time goes here
  y = sumVector(x, N);
  800434:	00fffc34 	movhi	r3,65520
  800438:	18c3f204 	addi	r3,r3,4040
  80043c:	e0c5883a 	add	r2,fp,r3
  800440:	01400134 	movhi	r5,4
  800444:	297f0044 	addi	r5,r5,-1023
  800448:	1009883a 	mov	r4,r2
  80044c:	080034c0 	call	80034c <sumVector>
  800450:	013ffc34 	movhi	r4,65520
  800454:	2103ee04 	addi	r4,r4,4024
  800458:	2709883a 	add	r4,r4,fp
  80045c:	20800015 	stw	r2,0(r4)

  // till here
  exec_t2 = times(NULL); // get system time after finishing the process
  800460:	0009883a 	mov	r4,zero
  800464:	080e73c0 	call	80e73c <times>
  800468:	00fffc34 	movhi	r3,65520
  80046c:	18c3f104 	addi	r3,r3,4036
  800470:	1f07883a 	add	r3,r3,fp
  800474:	18800015 	stw	r2,0(r3)

  printf(" proc time = %d ticks \n", (unsigned int) (exec_t2-exec_t1));
  800478:	013ffc34 	movhi	r4,65520
  80047c:	2103f104 	addi	r4,r4,4036
  800480:	2709883a 	add	r4,r4,fp
  800484:	20c00017 	ldw	r3,0(r4)
  800488:	013ffc34 	movhi	r4,65520
  80048c:	2103f004 	addi	r4,r4,4032
  800490:	2709883a 	add	r4,r4,fp
  800494:	20800017 	ldw	r2,0(r4)
  800498:	1885c83a 	sub	r2,r3,r2
  80049c:	100b883a 	mov	r5,r2
  8004a0:	01002074 	movhi	r4,129
  8004a4:	213fc904 	addi	r4,r4,-220
  8004a8:	08010bc0 	call	8010bc <printf>

  int i;
  for (i=0; i<10; i++)
  8004ac:	00bffc34 	movhi	r2,65520
  8004b0:	1083ef04 	addi	r2,r2,4028
  8004b4:	1705883a 	add	r2,r2,fp
  8004b8:	10000015 	stw	zero,0(r2)
  8004bc:	00001406 	br	800510 <main+0x130>
  	y = y/2.0;
  8004c0:	01500034 	movhi	r5,16384
  8004c4:	00fffc34 	movhi	r3,65520
  8004c8:	18c3ee04 	addi	r3,r3,4024
  8004cc:	1f07883a 	add	r3,r3,fp
  8004d0:	19000017 	ldw	r4,0(r3)
  8004d4:	0800a540 	call	800a54 <__divsf3>
  8004d8:	1007883a 	mov	r3,r2
  8004dc:	013ffc34 	movhi	r4,65520
  8004e0:	2103ee04 	addi	r4,r4,4024
  8004e4:	2709883a 	add	r4,r4,fp
  8004e8:	20c00015 	stw	r3,0(r4)
  exec_t2 = times(NULL); // get system time after finishing the process

  printf(" proc time = %d ticks \n", (unsigned int) (exec_t2-exec_t1));

  int i;
  for (i=0; i<10; i++)
  8004ec:	00fffc34 	movhi	r3,65520
  8004f0:	18c3ef04 	addi	r3,r3,4028
  8004f4:	1f07883a 	add	r3,r3,fp
  8004f8:	18800017 	ldw	r2,0(r3)
  8004fc:	10800044 	addi	r2,r2,1
  800500:	013ffc34 	movhi	r4,65520
  800504:	2103ef04 	addi	r4,r4,4028
  800508:	2709883a 	add	r4,r4,fp
  80050c:	20800015 	stw	r2,0(r4)
  800510:	00fffc34 	movhi	r3,65520
  800514:	18c3ef04 	addi	r3,r3,4028
  800518:	1f07883a 	add	r3,r3,fp
  80051c:	18800017 	ldw	r2,0(r3)
  800520:	10800290 	cmplti	r2,r2,10
  800524:	103fe61e 	bne	r2,zero,8004c0 <__alt_data_end+0xff8004c0>
  	y = y/2.0;

  printf(" Result (divided by 1024) = %d \n", (int) y);
  800528:	00bffc34 	movhi	r2,65520
  80052c:	1083ee04 	addi	r2,r2,4024
  800530:	1705883a 	add	r2,r2,fp
  800534:	11000017 	ldw	r4,0(r2)
  800538:	0800e940 	call	800e94 <__fixsfsi>
  80053c:	100b883a 	mov	r5,r2
  800540:	01002074 	movhi	r4,129
  800544:	213fcf04 	addi	r4,r4,-196
  800548:	08010bc0 	call	8010bc <printf>

  return 0;
  80054c:	0005883a 	mov	r2,zero
}
  800550:	e037883a 	mov	sp,fp
  800554:	dfc00117 	ldw	ra,4(sp)
  800558:	df000017 	ldw	fp,0(sp)
  80055c:	dec00204 	addi	sp,sp,8
  800560:	f800283a 	ret

00800564 <__mulsi3>:
  800564:	0005883a 	mov	r2,zero
  800568:	20000726 	beq	r4,zero,800588 <__mulsi3+0x24>
  80056c:	20c0004c 	andi	r3,r4,1
  800570:	2008d07a 	srli	r4,r4,1
  800574:	18000126 	beq	r3,zero,80057c <__mulsi3+0x18>
  800578:	1145883a 	add	r2,r2,r5
  80057c:	294b883a 	add	r5,r5,r5
  800580:	203ffa1e 	bne	r4,zero,80056c <__alt_data_end+0xff80056c>
  800584:	f800283a 	ret
  800588:	f800283a 	ret

0080058c <__addsf3>:
  80058c:	defffc04 	addi	sp,sp,-16
  800590:	2004d7fa 	srli	r2,r4,31
  800594:	280cd5fa 	srli	r6,r5,23
  800598:	dc000015 	stw	r16,0(sp)
  80059c:	00c02034 	movhi	r3,128
  8005a0:	2020d5fa 	srli	r16,r4,23
  8005a4:	280ed7fa 	srli	r7,r5,31
  8005a8:	18ffffc4 	addi	r3,r3,-1
  8005ac:	dc400115 	stw	r17,4(sp)
  8005b0:	1908703a 	and	r4,r3,r4
  8005b4:	194a703a 	and	r5,r3,r5
  8005b8:	dfc00315 	stw	ra,12(sp)
  8005bc:	dc800215 	stw	r18,8(sp)
  8005c0:	14403fcc 	andi	r17,r2,255
  8005c4:	84003fcc 	andi	r16,r16,255
  8005c8:	200890fa 	slli	r4,r4,3
  8005cc:	31803fcc 	andi	r6,r6,255
  8005d0:	280a90fa 	slli	r5,r5,3
  8005d4:	89c05026 	beq	r17,r7,800718 <__addsf3+0x18c>
  8005d8:	8185c83a 	sub	r2,r16,r6
  8005dc:	00807a0e 	bge	zero,r2,8007c8 <__addsf3+0x23c>
  8005e0:	30001e1e 	bne	r6,zero,80065c <__addsf3+0xd0>
  8005e4:	28006d1e 	bne	r5,zero,80079c <__addsf3+0x210>
  8005e8:	208001cc 	andi	r2,r4,7
  8005ec:	10000426 	beq	r2,zero,800600 <__addsf3+0x74>
  8005f0:	208003cc 	andi	r2,r4,15
  8005f4:	00c00104 	movi	r3,4
  8005f8:	10c00126 	beq	r2,r3,800600 <__addsf3+0x74>
  8005fc:	20c9883a 	add	r4,r4,r3
  800600:	2081002c 	andhi	r2,r4,1024
  800604:	10003926 	beq	r2,zero,8006ec <__addsf3+0x160>
  800608:	84000044 	addi	r16,r16,1
  80060c:	00803fc4 	movi	r2,255
  800610:	80807826 	beq	r16,r2,8007f4 <__addsf3+0x268>
  800614:	200891ba 	slli	r4,r4,6
  800618:	8805883a 	mov	r2,r17
  80061c:	2008d27a 	srli	r4,r4,9
  800620:	84003fcc 	andi	r16,r16,255
  800624:	800695fa 	slli	r3,r16,23
  800628:	10803fcc 	andi	r2,r2,255
  80062c:	04002034 	movhi	r16,128
  800630:	843fffc4 	addi	r16,r16,-1
  800634:	100497fa 	slli	r2,r2,31
  800638:	2408703a 	and	r4,r4,r16
  80063c:	20e0b03a 	or	r16,r4,r3
  800640:	8084b03a 	or	r2,r16,r2
  800644:	dfc00317 	ldw	ra,12(sp)
  800648:	dc800217 	ldw	r18,8(sp)
  80064c:	dc400117 	ldw	r17,4(sp)
  800650:	dc000017 	ldw	r16,0(sp)
  800654:	dec00404 	addi	sp,sp,16
  800658:	f800283a 	ret
  80065c:	00c03fc4 	movi	r3,255
  800660:	80ffe126 	beq	r16,r3,8005e8 <__alt_data_end+0xff8005e8>
  800664:	29410034 	orhi	r5,r5,1024
  800668:	00c006c4 	movi	r3,27
  80066c:	18807516 	blt	r3,r2,800844 <__addsf3+0x2b8>
  800670:	00c00804 	movi	r3,32
  800674:	1887c83a 	sub	r3,r3,r2
  800678:	28c6983a 	sll	r3,r5,r3
  80067c:	288ad83a 	srl	r5,r5,r2
  800680:	1804c03a 	cmpne	r2,r3,zero
  800684:	288ab03a 	or	r5,r5,r2
  800688:	2149c83a 	sub	r4,r4,r5
  80068c:	2081002c 	andhi	r2,r4,1024
  800690:	10001426 	beq	r2,zero,8006e4 <__addsf3+0x158>
  800694:	04810034 	movhi	r18,1024
  800698:	94bfffc4 	addi	r18,r18,-1
  80069c:	24a4703a 	and	r18,r4,r18
  8006a0:	9009883a 	mov	r4,r18
  8006a4:	08010280 	call	801028 <__clzsi2>
  8006a8:	10bffec4 	addi	r2,r2,-5
  8006ac:	90a4983a 	sll	r18,r18,r2
  8006b0:	14005416 	blt	r2,r16,800804 <__addsf3+0x278>
  8006b4:	1405c83a 	sub	r2,r2,r16
  8006b8:	11000044 	addi	r4,r2,1
  8006bc:	00800804 	movi	r2,32
  8006c0:	1105c83a 	sub	r2,r2,r4
  8006c4:	9084983a 	sll	r2,r18,r2
  8006c8:	9124d83a 	srl	r18,r18,r4
  8006cc:	0021883a 	mov	r16,zero
  8006d0:	1008c03a 	cmpne	r4,r2,zero
  8006d4:	9108b03a 	or	r4,r18,r4
  8006d8:	003fc306 	br	8005e8 <__alt_data_end+0xff8005e8>
  8006dc:	1000db26 	beq	r2,zero,800a4c <__addsf3+0x4c0>
  8006e0:	1009883a 	mov	r4,r2
  8006e4:	208001cc 	andi	r2,r4,7
  8006e8:	103fc11e 	bne	r2,zero,8005f0 <__alt_data_end+0xff8005f0>
  8006ec:	2006d0fa 	srli	r3,r4,3
  8006f0:	01003fc4 	movi	r4,255
  8006f4:	8805883a 	mov	r2,r17
  8006f8:	8100241e 	bne	r16,r4,80078c <__addsf3+0x200>
  8006fc:	18006e26 	beq	r3,zero,8008b8 <__addsf3+0x32c>
  800700:	19001034 	orhi	r4,r3,64
  800704:	00c02034 	movhi	r3,128
  800708:	18ffffc4 	addi	r3,r3,-1
  80070c:	043fffc4 	movi	r16,-1
  800710:	20c8703a 	and	r4,r4,r3
  800714:	003fc206 	br	800620 <__alt_data_end+0xff800620>
  800718:	8187c83a 	sub	r3,r16,r6
  80071c:	00c03e0e 	bge	zero,r3,800818 <__addsf3+0x28c>
  800720:	30002326 	beq	r6,zero,8007b0 <__addsf3+0x224>
  800724:	01803fc4 	movi	r6,255
  800728:	81bfaf26 	beq	r16,r6,8005e8 <__alt_data_end+0xff8005e8>
  80072c:	29410034 	orhi	r5,r5,1024
  800730:	018006c4 	movi	r6,27
  800734:	30c07416 	blt	r6,r3,800908 <__addsf3+0x37c>
  800738:	01800804 	movi	r6,32
  80073c:	30cdc83a 	sub	r6,r6,r3
  800740:	298c983a 	sll	r6,r5,r6
  800744:	28cad83a 	srl	r5,r5,r3
  800748:	3006c03a 	cmpne	r3,r6,zero
  80074c:	28cab03a 	or	r5,r5,r3
  800750:	2149883a 	add	r4,r4,r5
  800754:	20c1002c 	andhi	r3,r4,1024
  800758:	183fe226 	beq	r3,zero,8006e4 <__alt_data_end+0xff8006e4>
  80075c:	84000044 	addi	r16,r16,1
  800760:	00c03fc4 	movi	r3,255
  800764:	80c05426 	beq	r16,r3,8008b8 <__addsf3+0x32c>
  800768:	00bf0034 	movhi	r2,64512
  80076c:	10bfffc4 	addi	r2,r2,-1
  800770:	20c0004c 	andi	r3,r4,1
  800774:	2088703a 	and	r4,r4,r2
  800778:	2008d07a 	srli	r4,r4,1
  80077c:	20c8b03a 	or	r4,r4,r3
  800780:	003f9906 	br	8005e8 <__alt_data_end+0xff8005e8>
  800784:	0007883a 	mov	r3,zero
  800788:	0005883a 	mov	r2,zero
  80078c:	01002034 	movhi	r4,128
  800790:	213fffc4 	addi	r4,r4,-1
  800794:	1908703a 	and	r4,r3,r4
  800798:	003fa106 	br	800620 <__alt_data_end+0xff800620>
  80079c:	10bfffc4 	addi	r2,r2,-1
  8007a0:	103fb926 	beq	r2,zero,800688 <__alt_data_end+0xff800688>
  8007a4:	00c03fc4 	movi	r3,255
  8007a8:	80ffaf1e 	bne	r16,r3,800668 <__alt_data_end+0xff800668>
  8007ac:	003f8e06 	br	8005e8 <__alt_data_end+0xff8005e8>
  8007b0:	283f8d26 	beq	r5,zero,8005e8 <__alt_data_end+0xff8005e8>
  8007b4:	18ffffc4 	addi	r3,r3,-1
  8007b8:	183fe526 	beq	r3,zero,800750 <__alt_data_end+0xff800750>
  8007bc:	01803fc4 	movi	r6,255
  8007c0:	81bfdb1e 	bne	r16,r6,800730 <__alt_data_end+0xff800730>
  8007c4:	003f8806 	br	8005e8 <__alt_data_end+0xff8005e8>
  8007c8:	1000201e 	bne	r2,zero,80084c <__addsf3+0x2c0>
  8007cc:	80800044 	addi	r2,r16,1
  8007d0:	10803fcc 	andi	r2,r2,255
  8007d4:	01800044 	movi	r6,1
  8007d8:	3080450e 	bge	r6,r2,8008f0 <__addsf3+0x364>
  8007dc:	2165c83a 	sub	r18,r4,r5
  8007e0:	90c1002c 	andhi	r3,r18,1024
  8007e4:	18002b26 	beq	r3,zero,800894 <__addsf3+0x308>
  8007e8:	2925c83a 	sub	r18,r5,r4
  8007ec:	3823883a 	mov	r17,r7
  8007f0:	003fab06 	br	8006a0 <__alt_data_end+0xff8006a0>
  8007f4:	8805883a 	mov	r2,r17
  8007f8:	043fffc4 	movi	r16,-1
  8007fc:	0009883a 	mov	r4,zero
  800800:	003f8706 	br	800620 <__alt_data_end+0xff800620>
  800804:	013f0034 	movhi	r4,64512
  800808:	213fffc4 	addi	r4,r4,-1
  80080c:	80a1c83a 	sub	r16,r16,r2
  800810:	9108703a 	and	r4,r18,r4
  800814:	003f7406 	br	8005e8 <__alt_data_end+0xff8005e8>
  800818:	1800411e 	bne	r3,zero,800920 <__addsf3+0x394>
  80081c:	80c00044 	addi	r3,r16,1
  800820:	19c03fcc 	andi	r7,r3,255
  800824:	01800044 	movi	r6,1
  800828:	31c0260e 	bge	r6,r7,8008c4 <__addsf3+0x338>
  80082c:	01803fc4 	movi	r6,255
  800830:	19802126 	beq	r3,r6,8008b8 <__addsf3+0x32c>
  800834:	2149883a 	add	r4,r4,r5
  800838:	2008d07a 	srli	r4,r4,1
  80083c:	1821883a 	mov	r16,r3
  800840:	003f6906 	br	8005e8 <__alt_data_end+0xff8005e8>
  800844:	01400044 	movi	r5,1
  800848:	003f8f06 	br	800688 <__alt_data_end+0xff800688>
  80084c:	8000151e 	bne	r16,zero,8008a4 <__addsf3+0x318>
  800850:	20002f26 	beq	r4,zero,800910 <__addsf3+0x384>
  800854:	0084303a 	nor	r2,zero,r2
  800858:	10000a26 	beq	r2,zero,800884 <__addsf3+0x2f8>
  80085c:	00c03fc4 	movi	r3,255
  800860:	30c02b26 	beq	r6,r3,800910 <__addsf3+0x384>
  800864:	00c006c4 	movi	r3,27
  800868:	18806d16 	blt	r3,r2,800a20 <__addsf3+0x494>
  80086c:	00c00804 	movi	r3,32
  800870:	1887c83a 	sub	r3,r3,r2
  800874:	20c6983a 	sll	r3,r4,r3
  800878:	2084d83a 	srl	r2,r4,r2
  80087c:	1808c03a 	cmpne	r4,r3,zero
  800880:	1108b03a 	or	r4,r2,r4
  800884:	2909c83a 	sub	r4,r5,r4
  800888:	3021883a 	mov	r16,r6
  80088c:	3823883a 	mov	r17,r7
  800890:	003f7e06 	br	80068c <__alt_data_end+0xff80068c>
  800894:	903f821e 	bne	r18,zero,8006a0 <__alt_data_end+0xff8006a0>
  800898:	0005883a 	mov	r2,zero
  80089c:	0021883a 	mov	r16,zero
  8008a0:	003fba06 	br	80078c <__alt_data_end+0xff80078c>
  8008a4:	00c03fc4 	movi	r3,255
  8008a8:	30c01926 	beq	r6,r3,800910 <__addsf3+0x384>
  8008ac:	0085c83a 	sub	r2,zero,r2
  8008b0:	21010034 	orhi	r4,r4,1024
  8008b4:	003feb06 	br	800864 <__alt_data_end+0xff800864>
  8008b8:	043fffc4 	movi	r16,-1
  8008bc:	0009883a 	mov	r4,zero
  8008c0:	003f5706 	br	800620 <__alt_data_end+0xff800620>
  8008c4:	80004a1e 	bne	r16,zero,8009f0 <__addsf3+0x464>
  8008c8:	20005926 	beq	r4,zero,800a30 <__addsf3+0x4a4>
  8008cc:	283f4626 	beq	r5,zero,8005e8 <__alt_data_end+0xff8005e8>
  8008d0:	2149883a 	add	r4,r4,r5
  8008d4:	2081002c 	andhi	r2,r4,1024
  8008d8:	103f8226 	beq	r2,zero,8006e4 <__alt_data_end+0xff8006e4>
  8008dc:	00bf0034 	movhi	r2,64512
  8008e0:	10bfffc4 	addi	r2,r2,-1
  8008e4:	3021883a 	mov	r16,r6
  8008e8:	2088703a 	and	r4,r4,r2
  8008ec:	003f3e06 	br	8005e8 <__alt_data_end+0xff8005e8>
  8008f0:	8000121e 	bne	r16,zero,80093c <__addsf3+0x3b0>
  8008f4:	2000261e 	bne	r4,zero,800990 <__addsf3+0x404>
  8008f8:	283fa226 	beq	r5,zero,800784 <__alt_data_end+0xff800784>
  8008fc:	2809883a 	mov	r4,r5
  800900:	3823883a 	mov	r17,r7
  800904:	003f3806 	br	8005e8 <__alt_data_end+0xff8005e8>
  800908:	01400044 	movi	r5,1
  80090c:	003f9006 	br	800750 <__alt_data_end+0xff800750>
  800910:	2809883a 	mov	r4,r5
  800914:	3021883a 	mov	r16,r6
  800918:	3823883a 	mov	r17,r7
  80091c:	003f3206 	br	8005e8 <__alt_data_end+0xff8005e8>
  800920:	80000c1e 	bne	r16,zero,800954 <__addsf3+0x3c8>
  800924:	20002f26 	beq	r4,zero,8009e4 <__addsf3+0x458>
  800928:	00c6303a 	nor	r3,zero,r3
  80092c:	18002b1e 	bne	r3,zero,8009dc <__addsf3+0x450>
  800930:	2149883a 	add	r4,r4,r5
  800934:	3021883a 	mov	r16,r6
  800938:	003f8606 	br	800754 <__alt_data_end+0xff800754>
  80093c:	20001b1e 	bne	r4,zero,8009ac <__addsf3+0x420>
  800940:	28003926 	beq	r5,zero,800a28 <__addsf3+0x49c>
  800944:	2809883a 	mov	r4,r5
  800948:	3823883a 	mov	r17,r7
  80094c:	04003fc4 	movi	r16,255
  800950:	003f2506 	br	8005e8 <__alt_data_end+0xff8005e8>
  800954:	01c03fc4 	movi	r7,255
  800958:	31c02226 	beq	r6,r7,8009e4 <__addsf3+0x458>
  80095c:	00c7c83a 	sub	r3,zero,r3
  800960:	21010034 	orhi	r4,r4,1024
  800964:	01c006c4 	movi	r7,27
  800968:	38c03616 	blt	r7,r3,800a44 <__addsf3+0x4b8>
  80096c:	01c00804 	movi	r7,32
  800970:	38cfc83a 	sub	r7,r7,r3
  800974:	21ce983a 	sll	r7,r4,r7
  800978:	20c6d83a 	srl	r3,r4,r3
  80097c:	3808c03a 	cmpne	r4,r7,zero
  800980:	1906b03a 	or	r3,r3,r4
  800984:	1949883a 	add	r4,r3,r5
  800988:	3021883a 	mov	r16,r6
  80098c:	003f7106 	br	800754 <__alt_data_end+0xff800754>
  800990:	283f1526 	beq	r5,zero,8005e8 <__alt_data_end+0xff8005e8>
  800994:	2145c83a 	sub	r2,r4,r5
  800998:	10c1002c 	andhi	r3,r2,1024
  80099c:	183f4f26 	beq	r3,zero,8006dc <__alt_data_end+0xff8006dc>
  8009a0:	2909c83a 	sub	r4,r5,r4
  8009a4:	3823883a 	mov	r17,r7
  8009a8:	003f0f06 	br	8005e8 <__alt_data_end+0xff8005e8>
  8009ac:	28001a26 	beq	r5,zero,800a18 <__addsf3+0x48c>
  8009b0:	2008d0fa 	srli	r4,r4,3
  8009b4:	2080102c 	andhi	r2,r4,64
  8009b8:	10000526 	beq	r2,zero,8009d0 <__addsf3+0x444>
  8009bc:	280ad0fa 	srli	r5,r5,3
  8009c0:	2880102c 	andhi	r2,r5,64
  8009c4:	1000021e 	bne	r2,zero,8009d0 <__addsf3+0x444>
  8009c8:	2809883a 	mov	r4,r5
  8009cc:	3823883a 	mov	r17,r7
  8009d0:	200890fa 	slli	r4,r4,3
  8009d4:	04003fc4 	movi	r16,255
  8009d8:	003f0306 	br	8005e8 <__alt_data_end+0xff8005e8>
  8009dc:	01c03fc4 	movi	r7,255
  8009e0:	31ffe01e 	bne	r6,r7,800964 <__alt_data_end+0xff800964>
  8009e4:	2809883a 	mov	r4,r5
  8009e8:	3021883a 	mov	r16,r6
  8009ec:	003efe06 	br	8005e8 <__alt_data_end+0xff8005e8>
  8009f0:	20001126 	beq	r4,zero,800a38 <__addsf3+0x4ac>
  8009f4:	28000826 	beq	r5,zero,800a18 <__addsf3+0x48c>
  8009f8:	2008d0fa 	srli	r4,r4,3
  8009fc:	2080102c 	andhi	r2,r4,64
  800a00:	103ff326 	beq	r2,zero,8009d0 <__alt_data_end+0xff8009d0>
  800a04:	280ad0fa 	srli	r5,r5,3
  800a08:	2880102c 	andhi	r2,r5,64
  800a0c:	103ff01e 	bne	r2,zero,8009d0 <__alt_data_end+0xff8009d0>
  800a10:	2809883a 	mov	r4,r5
  800a14:	003fee06 	br	8009d0 <__alt_data_end+0xff8009d0>
  800a18:	04003fc4 	movi	r16,255
  800a1c:	003ef206 	br	8005e8 <__alt_data_end+0xff8005e8>
  800a20:	01000044 	movi	r4,1
  800a24:	003f9706 	br	800884 <__alt_data_end+0xff800884>
  800a28:	0005883a 	mov	r2,zero
  800a2c:	003f3406 	br	800700 <__alt_data_end+0xff800700>
  800a30:	2809883a 	mov	r4,r5
  800a34:	003eec06 	br	8005e8 <__alt_data_end+0xff8005e8>
  800a38:	2809883a 	mov	r4,r5
  800a3c:	04003fc4 	movi	r16,255
  800a40:	003ee906 	br	8005e8 <__alt_data_end+0xff8005e8>
  800a44:	00c00044 	movi	r3,1
  800a48:	003fce06 	br	800984 <__alt_data_end+0xff800984>
  800a4c:	0005883a 	mov	r2,zero
  800a50:	003f4e06 	br	80078c <__alt_data_end+0xff80078c>

00800a54 <__divsf3>:
  800a54:	defff504 	addi	sp,sp,-44
  800a58:	200cd5fa 	srli	r6,r4,23
  800a5c:	dcc00415 	stw	r19,16(sp)
  800a60:	2026d7fa 	srli	r19,r4,31
  800a64:	00c02034 	movhi	r3,128
  800a68:	dd800715 	stw	r22,28(sp)
  800a6c:	dd000515 	stw	r20,20(sp)
  800a70:	dc800315 	stw	r18,12(sp)
  800a74:	18ffffc4 	addi	r3,r3,-1
  800a78:	dfc00a15 	stw	ra,40(sp)
  800a7c:	df000915 	stw	fp,36(sp)
  800a80:	ddc00815 	stw	r23,32(sp)
  800a84:	dd400615 	stw	r21,24(sp)
  800a88:	dc400215 	stw	r17,8(sp)
  800a8c:	dc000115 	stw	r16,4(sp)
  800a90:	35003fcc 	andi	r20,r6,255
  800a94:	1924703a 	and	r18,r3,r4
  800a98:	9d803fcc 	andi	r22,r19,255
  800a9c:	a0005226 	beq	r20,zero,800be8 <__divsf3+0x194>
  800aa0:	00803fc4 	movi	r2,255
  800aa4:	a0802e26 	beq	r20,r2,800b60 <__divsf3+0x10c>
  800aa8:	91002034 	orhi	r4,r18,128
  800aac:	202490fa 	slli	r18,r4,3
  800ab0:	a53fe044 	addi	r20,r20,-127
  800ab4:	0021883a 	mov	r16,zero
  800ab8:	002f883a 	mov	r23,zero
  800abc:	280cd5fa 	srli	r6,r5,23
  800ac0:	282ad7fa 	srli	r21,r5,31
  800ac4:	00c02034 	movhi	r3,128
  800ac8:	18ffffc4 	addi	r3,r3,-1
  800acc:	31803fcc 	andi	r6,r6,255
  800ad0:	1962703a 	and	r17,r3,r5
  800ad4:	af003fcc 	andi	fp,r21,255
  800ad8:	30004a26 	beq	r6,zero,800c04 <__divsf3+0x1b0>
  800adc:	00803fc4 	movi	r2,255
  800ae0:	30804526 	beq	r6,r2,800bf8 <__divsf3+0x1a4>
  800ae4:	89402034 	orhi	r5,r17,128
  800ae8:	282290fa 	slli	r17,r5,3
  800aec:	31bfe044 	addi	r6,r6,-127
  800af0:	000b883a 	mov	r5,zero
  800af4:	2c20b03a 	or	r16,r5,r16
  800af8:	802090ba 	slli	r16,r16,2
  800afc:	00802034 	movhi	r2,128
  800b00:	1082c804 	addi	r2,r2,2848
  800b04:	80a1883a 	add	r16,r16,r2
  800b08:	81000017 	ldw	r4,0(r16)
  800b0c:	9d46f03a 	xor	r3,r19,r21
  800b10:	180f883a 	mov	r7,r3
  800b14:	18803fcc 	andi	r2,r3,255
  800b18:	a18dc83a 	sub	r6,r20,r6
  800b1c:	2000683a 	jmp	r4
  800b20:	00800d04 	movi	r2,52
  800b24:	00800b88 	cmpgei	r2,zero,46
  800b28:	00800cf8 	rdprs	r2,zero,51
  800b2c:	00800b74 	movhi	r2,45
  800b30:	00800cf8 	rdprs	r2,zero,51
  800b34:	00800cd0 	cmplti	r2,zero,51
  800b38:	00800cf8 	rdprs	r2,zero,51
  800b3c:	00800b74 	movhi	r2,45
  800b40:	00800b88 	cmpgei	r2,zero,46
  800b44:	00800b88 	cmpgei	r2,zero,46
  800b48:	00800cd0 	cmplti	r2,zero,51
  800b4c:	00800b74 	movhi	r2,45
  800b50:	00800de4 	muli	r2,zero,55
  800b54:	00800de4 	muli	r2,zero,55
  800b58:	00800de4 	muli	r2,zero,55
  800b5c:	00800d98 	cmpnei	r2,zero,54
  800b60:	9000581e 	bne	r18,zero,800cc4 <__divsf3+0x270>
  800b64:	04000204 	movi	r16,8
  800b68:	05c00084 	movi	r23,2
  800b6c:	003fd306 	br	800abc <__alt_data_end+0xff800abc>
  800b70:	0023883a 	mov	r17,zero
  800b74:	e02d883a 	mov	r22,fp
  800b78:	282f883a 	mov	r23,r5
  800b7c:	00800084 	movi	r2,2
  800b80:	b8808f1e 	bne	r23,r2,800dc0 <__divsf3+0x36c>
  800b84:	b005883a 	mov	r2,r22
  800b88:	11c0004c 	andi	r7,r2,1
  800b8c:	013fffc4 	movi	r4,-1
  800b90:	000d883a 	mov	r6,zero
  800b94:	21003fcc 	andi	r4,r4,255
  800b98:	200895fa 	slli	r4,r4,23
  800b9c:	38803fcc 	andi	r2,r7,255
  800ba0:	00c02034 	movhi	r3,128
  800ba4:	100497fa 	slli	r2,r2,31
  800ba8:	18ffffc4 	addi	r3,r3,-1
  800bac:	30c6703a 	and	r3,r6,r3
  800bb0:	1906b03a 	or	r3,r3,r4
  800bb4:	1884b03a 	or	r2,r3,r2
  800bb8:	dfc00a17 	ldw	ra,40(sp)
  800bbc:	df000917 	ldw	fp,36(sp)
  800bc0:	ddc00817 	ldw	r23,32(sp)
  800bc4:	dd800717 	ldw	r22,28(sp)
  800bc8:	dd400617 	ldw	r21,24(sp)
  800bcc:	dd000517 	ldw	r20,20(sp)
  800bd0:	dcc00417 	ldw	r19,16(sp)
  800bd4:	dc800317 	ldw	r18,12(sp)
  800bd8:	dc400217 	ldw	r17,8(sp)
  800bdc:	dc000117 	ldw	r16,4(sp)
  800be0:	dec00b04 	addi	sp,sp,44
  800be4:	f800283a 	ret
  800be8:	90002b1e 	bne	r18,zero,800c98 <__divsf3+0x244>
  800bec:	04000104 	movi	r16,4
  800bf0:	05c00044 	movi	r23,1
  800bf4:	003fb106 	br	800abc <__alt_data_end+0xff800abc>
  800bf8:	8800251e 	bne	r17,zero,800c90 <__divsf3+0x23c>
  800bfc:	01400084 	movi	r5,2
  800c00:	00000206 	br	800c0c <__divsf3+0x1b8>
  800c04:	88001a1e 	bne	r17,zero,800c70 <__divsf3+0x21c>
  800c08:	01400044 	movi	r5,1
  800c0c:	8160b03a 	or	r16,r16,r5
  800c10:	802090ba 	slli	r16,r16,2
  800c14:	00c02034 	movhi	r3,128
  800c18:	18c30c04 	addi	r3,r3,3120
  800c1c:	80e1883a 	add	r16,r16,r3
  800c20:	80c00017 	ldw	r3,0(r16)
  800c24:	9d44f03a 	xor	r2,r19,r21
  800c28:	a18dc83a 	sub	r6,r20,r6
  800c2c:	1800683a 	jmp	r3
  800c30:	00800b88 	cmpgei	r2,zero,46
  800c34:	00800b88 	cmpgei	r2,zero,46
  800c38:	00800dd4 	movui	r2,55
  800c3c:	00800b70 	cmpltui	r2,zero,45
  800c40:	00800dd4 	movui	r2,55
  800c44:	00800cd0 	cmplti	r2,zero,51
  800c48:	00800dd4 	movui	r2,55
  800c4c:	00800b70 	cmpltui	r2,zero,45
  800c50:	00800b88 	cmpgei	r2,zero,46
  800c54:	00800b88 	cmpgei	r2,zero,46
  800c58:	00800cd0 	cmplti	r2,zero,51
  800c5c:	00800b70 	cmpltui	r2,zero,45
  800c60:	00800de4 	muli	r2,zero,55
  800c64:	00800de4 	muli	r2,zero,55
  800c68:	00800de4 	muli	r2,zero,55
  800c6c:	00800dfc 	xorhi	r2,zero,55
  800c70:	8809883a 	mov	r4,r17
  800c74:	08010280 	call	801028 <__clzsi2>
  800c78:	10fffec4 	addi	r3,r2,-5
  800c7c:	10801d84 	addi	r2,r2,118
  800c80:	88e2983a 	sll	r17,r17,r3
  800c84:	008dc83a 	sub	r6,zero,r2
  800c88:	000b883a 	mov	r5,zero
  800c8c:	003f9906 	br	800af4 <__alt_data_end+0xff800af4>
  800c90:	014000c4 	movi	r5,3
  800c94:	003f9706 	br	800af4 <__alt_data_end+0xff800af4>
  800c98:	9009883a 	mov	r4,r18
  800c9c:	d9400015 	stw	r5,0(sp)
  800ca0:	08010280 	call	801028 <__clzsi2>
  800ca4:	10fffec4 	addi	r3,r2,-5
  800ca8:	11801d84 	addi	r6,r2,118
  800cac:	90e4983a 	sll	r18,r18,r3
  800cb0:	01a9c83a 	sub	r20,zero,r6
  800cb4:	0021883a 	mov	r16,zero
  800cb8:	002f883a 	mov	r23,zero
  800cbc:	d9400017 	ldw	r5,0(sp)
  800cc0:	003f7e06 	br	800abc <__alt_data_end+0xff800abc>
  800cc4:	04000304 	movi	r16,12
  800cc8:	05c000c4 	movi	r23,3
  800ccc:	003f7b06 	br	800abc <__alt_data_end+0xff800abc>
  800cd0:	01802034 	movhi	r6,128
  800cd4:	000f883a 	mov	r7,zero
  800cd8:	31bfffc4 	addi	r6,r6,-1
  800cdc:	013fffc4 	movi	r4,-1
  800ce0:	003fac06 	br	800b94 <__alt_data_end+0xff800b94>
  800ce4:	01400044 	movi	r5,1
  800ce8:	2909c83a 	sub	r4,r5,r4
  800cec:	00c006c4 	movi	r3,27
  800cf0:	19004b0e 	bge	r3,r4,800e20 <__divsf3+0x3cc>
  800cf4:	114e703a 	and	r7,r2,r5
  800cf8:	0009883a 	mov	r4,zero
  800cfc:	000d883a 	mov	r6,zero
  800d00:	003fa406 	br	800b94 <__alt_data_end+0xff800b94>
  800d04:	9006917a 	slli	r3,r18,5
  800d08:	8822917a 	slli	r17,r17,5
  800d0c:	1c40372e 	bgeu	r3,r17,800dec <__divsf3+0x398>
  800d10:	31bfffc4 	addi	r6,r6,-1
  800d14:	010006c4 	movi	r4,27
  800d18:	000b883a 	mov	r5,zero
  800d1c:	180f883a 	mov	r7,r3
  800d20:	294b883a 	add	r5,r5,r5
  800d24:	18c7883a 	add	r3,r3,r3
  800d28:	38000116 	blt	r7,zero,800d30 <__divsf3+0x2dc>
  800d2c:	1c400236 	bltu	r3,r17,800d38 <__divsf3+0x2e4>
  800d30:	1c47c83a 	sub	r3,r3,r17
  800d34:	29400054 	ori	r5,r5,1
  800d38:	213fffc4 	addi	r4,r4,-1
  800d3c:	203ff71e 	bne	r4,zero,800d1c <__alt_data_end+0xff800d1c>
  800d40:	1806c03a 	cmpne	r3,r3,zero
  800d44:	1962b03a 	or	r17,r3,r5
  800d48:	31001fc4 	addi	r4,r6,127
  800d4c:	013fe50e 	bge	zero,r4,800ce4 <__alt_data_end+0xff800ce4>
  800d50:	88c001cc 	andi	r3,r17,7
  800d54:	18000426 	beq	r3,zero,800d68 <__divsf3+0x314>
  800d58:	88c003cc 	andi	r3,r17,15
  800d5c:	01400104 	movi	r5,4
  800d60:	19400126 	beq	r3,r5,800d68 <__divsf3+0x314>
  800d64:	8963883a 	add	r17,r17,r5
  800d68:	88c2002c 	andhi	r3,r17,2048
  800d6c:	18000426 	beq	r3,zero,800d80 <__divsf3+0x32c>
  800d70:	00fe0034 	movhi	r3,63488
  800d74:	18ffffc4 	addi	r3,r3,-1
  800d78:	31002004 	addi	r4,r6,128
  800d7c:	88e2703a 	and	r17,r17,r3
  800d80:	00c03f84 	movi	r3,254
  800d84:	193f8016 	blt	r3,r4,800b88 <__alt_data_end+0xff800b88>
  800d88:	880c91ba 	slli	r6,r17,6
  800d8c:	11c0004c 	andi	r7,r2,1
  800d90:	300cd27a 	srli	r6,r6,9
  800d94:	003f7f06 	br	800b94 <__alt_data_end+0xff800b94>
  800d98:	9080102c 	andhi	r2,r18,64
  800d9c:	10000226 	beq	r2,zero,800da8 <__divsf3+0x354>
  800da0:	8880102c 	andhi	r2,r17,64
  800da4:	10001826 	beq	r2,zero,800e08 <__divsf3+0x3b4>
  800da8:	00802034 	movhi	r2,128
  800dac:	91801034 	orhi	r6,r18,64
  800db0:	10bfffc4 	addi	r2,r2,-1
  800db4:	980f883a 	mov	r7,r19
  800db8:	308c703a 	and	r6,r6,r2
  800dbc:	003fc706 	br	800cdc <__alt_data_end+0xff800cdc>
  800dc0:	008000c4 	movi	r2,3
  800dc4:	b8802d26 	beq	r23,r2,800e7c <__divsf3+0x428>
  800dc8:	00c00044 	movi	r3,1
  800dcc:	b005883a 	mov	r2,r22
  800dd0:	b8ffdd1e 	bne	r23,r3,800d48 <__alt_data_end+0xff800d48>
  800dd4:	11c0004c 	andi	r7,r2,1
  800dd8:	0009883a 	mov	r4,zero
  800ddc:	000d883a 	mov	r6,zero
  800de0:	003f6c06 	br	800b94 <__alt_data_end+0xff800b94>
  800de4:	9023883a 	mov	r17,r18
  800de8:	003f6406 	br	800b7c <__alt_data_end+0xff800b7c>
  800dec:	1c47c83a 	sub	r3,r3,r17
  800df0:	01000684 	movi	r4,26
  800df4:	01400044 	movi	r5,1
  800df8:	003fc806 	br	800d1c <__alt_data_end+0xff800d1c>
  800dfc:	9080102c 	andhi	r2,r18,64
  800e00:	103fe926 	beq	r2,zero,800da8 <__alt_data_end+0xff800da8>
  800e04:	0023883a 	mov	r17,zero
  800e08:	00802034 	movhi	r2,128
  800e0c:	89801034 	orhi	r6,r17,64
  800e10:	10bfffc4 	addi	r2,r2,-1
  800e14:	a80f883a 	mov	r7,r21
  800e18:	308c703a 	and	r6,r6,r2
  800e1c:	003faf06 	br	800cdc <__alt_data_end+0xff800cdc>
  800e20:	01c00804 	movi	r7,32
  800e24:	390fc83a 	sub	r7,r7,r4
  800e28:	89ce983a 	sll	r7,r17,r7
  800e2c:	890ad83a 	srl	r5,r17,r4
  800e30:	380ec03a 	cmpne	r7,r7,zero
  800e34:	29cab03a 	or	r5,r5,r7
  800e38:	28c001cc 	andi	r3,r5,7
  800e3c:	18000426 	beq	r3,zero,800e50 <__divsf3+0x3fc>
  800e40:	28c003cc 	andi	r3,r5,15
  800e44:	01000104 	movi	r4,4
  800e48:	19000126 	beq	r3,r4,800e50 <__divsf3+0x3fc>
  800e4c:	290b883a 	add	r5,r5,r4
  800e50:	28c1002c 	andhi	r3,r5,1024
  800e54:	18000426 	beq	r3,zero,800e68 <__divsf3+0x414>
  800e58:	11c0004c 	andi	r7,r2,1
  800e5c:	01000044 	movi	r4,1
  800e60:	000d883a 	mov	r6,zero
  800e64:	003f4b06 	br	800b94 <__alt_data_end+0xff800b94>
  800e68:	280a91ba 	slli	r5,r5,6
  800e6c:	11c0004c 	andi	r7,r2,1
  800e70:	0009883a 	mov	r4,zero
  800e74:	280cd27a 	srli	r6,r5,9
  800e78:	003f4606 	br	800b94 <__alt_data_end+0xff800b94>
  800e7c:	00802034 	movhi	r2,128
  800e80:	89801034 	orhi	r6,r17,64
  800e84:	10bfffc4 	addi	r2,r2,-1
  800e88:	b00f883a 	mov	r7,r22
  800e8c:	308c703a 	and	r6,r6,r2
  800e90:	003f9206 	br	800cdc <__alt_data_end+0xff800cdc>

00800e94 <__fixsfsi>:
  800e94:	200ad5fa 	srli	r5,r4,23
  800e98:	00c02034 	movhi	r3,128
  800e9c:	18ffffc4 	addi	r3,r3,-1
  800ea0:	29403fcc 	andi	r5,r5,255
  800ea4:	00801f84 	movi	r2,126
  800ea8:	1906703a 	and	r3,r3,r4
  800eac:	2008d7fa 	srli	r4,r4,31
  800eb0:	11400e0e 	bge	r2,r5,800eec <__fixsfsi+0x58>
  800eb4:	00802744 	movi	r2,157
  800eb8:	11400816 	blt	r2,r5,800edc <__fixsfsi+0x48>
  800ebc:	00802544 	movi	r2,149
  800ec0:	18c02034 	orhi	r3,r3,128
  800ec4:	11400b0e 	bge	r2,r5,800ef4 <__fixsfsi+0x60>
  800ec8:	28bfda84 	addi	r2,r5,-150
  800ecc:	1884983a 	sll	r2,r3,r2
  800ed0:	20000726 	beq	r4,zero,800ef0 <__fixsfsi+0x5c>
  800ed4:	0085c83a 	sub	r2,zero,r2
  800ed8:	f800283a 	ret
  800edc:	00a00034 	movhi	r2,32768
  800ee0:	10bfffc4 	addi	r2,r2,-1
  800ee4:	2085883a 	add	r2,r4,r2
  800ee8:	f800283a 	ret
  800eec:	0005883a 	mov	r2,zero
  800ef0:	f800283a 	ret
  800ef4:	00802584 	movi	r2,150
  800ef8:	1145c83a 	sub	r2,r2,r5
  800efc:	1884d83a 	srl	r2,r3,r2
  800f00:	003ff306 	br	800ed0 <__alt_data_end+0xff800ed0>

00800f04 <__floatsisf>:
  800f04:	defffd04 	addi	sp,sp,-12
  800f08:	dfc00215 	stw	ra,8(sp)
  800f0c:	dc400115 	stw	r17,4(sp)
  800f10:	dc000015 	stw	r16,0(sp)
  800f14:	20003526 	beq	r4,zero,800fec <__floatsisf+0xe8>
  800f18:	2021883a 	mov	r16,r4
  800f1c:	2022d7fa 	srli	r17,r4,31
  800f20:	20003616 	blt	r4,zero,800ffc <__floatsisf+0xf8>
  800f24:	8009883a 	mov	r4,r16
  800f28:	08010280 	call	801028 <__clzsi2>
  800f2c:	00c02784 	movi	r3,158
  800f30:	1887c83a 	sub	r3,r3,r2
  800f34:	01002584 	movi	r4,150
  800f38:	20c01416 	blt	r4,r3,800f8c <__floatsisf+0x88>
  800f3c:	20c9c83a 	sub	r4,r4,r3
  800f40:	8120983a 	sll	r16,r16,r4
  800f44:	00802034 	movhi	r2,128
  800f48:	10bfffc4 	addi	r2,r2,-1
  800f4c:	8809883a 	mov	r4,r17
  800f50:	80a0703a 	and	r16,r16,r2
  800f54:	18803fcc 	andi	r2,r3,255
  800f58:	100695fa 	slli	r3,r2,23
  800f5c:	20803fcc 	andi	r2,r4,255
  800f60:	100897fa 	slli	r4,r2,31
  800f64:	00802034 	movhi	r2,128
  800f68:	10bfffc4 	addi	r2,r2,-1
  800f6c:	8084703a 	and	r2,r16,r2
  800f70:	10c4b03a 	or	r2,r2,r3
  800f74:	1104b03a 	or	r2,r2,r4
  800f78:	dfc00217 	ldw	ra,8(sp)
  800f7c:	dc400117 	ldw	r17,4(sp)
  800f80:	dc000017 	ldw	r16,0(sp)
  800f84:	dec00304 	addi	sp,sp,12
  800f88:	f800283a 	ret
  800f8c:	01002644 	movi	r4,153
  800f90:	20c01c16 	blt	r4,r3,801004 <__floatsisf+0x100>
  800f94:	20c9c83a 	sub	r4,r4,r3
  800f98:	8120983a 	sll	r16,r16,r4
  800f9c:	013f0034 	movhi	r4,64512
  800fa0:	213fffc4 	addi	r4,r4,-1
  800fa4:	814001cc 	andi	r5,r16,7
  800fa8:	8108703a 	and	r4,r16,r4
  800fac:	28000426 	beq	r5,zero,800fc0 <__floatsisf+0xbc>
  800fb0:	840003cc 	andi	r16,r16,15
  800fb4:	01400104 	movi	r5,4
  800fb8:	81400126 	beq	r16,r5,800fc0 <__floatsisf+0xbc>
  800fbc:	2149883a 	add	r4,r4,r5
  800fc0:	2141002c 	andhi	r5,r4,1024
  800fc4:	28000526 	beq	r5,zero,800fdc <__floatsisf+0xd8>
  800fc8:	00c027c4 	movi	r3,159
  800fcc:	1887c83a 	sub	r3,r3,r2
  800fd0:	00bf0034 	movhi	r2,64512
  800fd4:	10bfffc4 	addi	r2,r2,-1
  800fd8:	2088703a 	and	r4,r4,r2
  800fdc:	202091ba 	slli	r16,r4,6
  800fe0:	8809883a 	mov	r4,r17
  800fe4:	8020d27a 	srli	r16,r16,9
  800fe8:	003fda06 	br	800f54 <__alt_data_end+0xff800f54>
  800fec:	0009883a 	mov	r4,zero
  800ff0:	0007883a 	mov	r3,zero
  800ff4:	0021883a 	mov	r16,zero
  800ff8:	003fd606 	br	800f54 <__alt_data_end+0xff800f54>
  800ffc:	0121c83a 	sub	r16,zero,r4
  801000:	003fc806 	br	800f24 <__alt_data_end+0xff800f24>
  801004:	01002e44 	movi	r4,185
  801008:	20c9c83a 	sub	r4,r4,r3
  80100c:	01400144 	movi	r5,5
  801010:	8108983a 	sll	r4,r16,r4
  801014:	288bc83a 	sub	r5,r5,r2
  801018:	8160d83a 	srl	r16,r16,r5
  80101c:	2008c03a 	cmpne	r4,r4,zero
  801020:	8120b03a 	or	r16,r16,r4
  801024:	003fdd06 	br	800f9c <__alt_data_end+0xff800f9c>

00801028 <__clzsi2>:
  801028:	00bfffd4 	movui	r2,65535
  80102c:	11000536 	bltu	r2,r4,801044 <__clzsi2+0x1c>
  801030:	00803fc4 	movi	r2,255
  801034:	11000f36 	bltu	r2,r4,801074 <__clzsi2+0x4c>
  801038:	00800804 	movi	r2,32
  80103c:	0007883a 	mov	r3,zero
  801040:	00000506 	br	801058 <__clzsi2+0x30>
  801044:	00804034 	movhi	r2,256
  801048:	10bfffc4 	addi	r2,r2,-1
  80104c:	11000c2e 	bgeu	r2,r4,801080 <__clzsi2+0x58>
  801050:	00800204 	movi	r2,8
  801054:	00c00604 	movi	r3,24
  801058:	20c8d83a 	srl	r4,r4,r3
  80105c:	00c02074 	movhi	r3,129
  801060:	18ffd744 	addi	r3,r3,-163
  801064:	1909883a 	add	r4,r3,r4
  801068:	20c00003 	ldbu	r3,0(r4)
  80106c:	10c5c83a 	sub	r2,r2,r3
  801070:	f800283a 	ret
  801074:	00800604 	movi	r2,24
  801078:	00c00204 	movi	r3,8
  80107c:	003ff606 	br	801058 <__alt_data_end+0xff801058>
  801080:	00800404 	movi	r2,16
  801084:	1007883a 	mov	r3,r2
  801088:	003ff306 	br	801058 <__alt_data_end+0xff801058>

0080108c <_printf_r>:
  80108c:	defffd04 	addi	sp,sp,-12
  801090:	2805883a 	mov	r2,r5
  801094:	dfc00015 	stw	ra,0(sp)
  801098:	d9800115 	stw	r6,4(sp)
  80109c:	d9c00215 	stw	r7,8(sp)
  8010a0:	21400217 	ldw	r5,8(r4)
  8010a4:	d9c00104 	addi	r7,sp,4
  8010a8:	100d883a 	mov	r6,r2
  8010ac:	08010f80 	call	8010f8 <___vfprintf_internal_r>
  8010b0:	dfc00017 	ldw	ra,0(sp)
  8010b4:	dec00304 	addi	sp,sp,12
  8010b8:	f800283a 	ret

008010bc <printf>:
  8010bc:	defffc04 	addi	sp,sp,-16
  8010c0:	dfc00015 	stw	ra,0(sp)
  8010c4:	d9400115 	stw	r5,4(sp)
  8010c8:	d9800215 	stw	r6,8(sp)
  8010cc:	d9c00315 	stw	r7,12(sp)
  8010d0:	00802074 	movhi	r2,129
  8010d4:	10833404 	addi	r2,r2,3280
  8010d8:	10800017 	ldw	r2,0(r2)
  8010dc:	200b883a 	mov	r5,r4
  8010e0:	d9800104 	addi	r6,sp,4
  8010e4:	11000217 	ldw	r4,8(r2)
  8010e8:	08033d40 	call	8033d4 <__vfprintf_internal>
  8010ec:	dfc00017 	ldw	ra,0(sp)
  8010f0:	dec00404 	addi	sp,sp,16
  8010f4:	f800283a 	ret

008010f8 <___vfprintf_internal_r>:
  8010f8:	deffb804 	addi	sp,sp,-288
  8010fc:	dfc04715 	stw	ra,284(sp)
  801100:	ddc04515 	stw	r23,276(sp)
  801104:	dd404315 	stw	r21,268(sp)
  801108:	d9002d15 	stw	r4,180(sp)
  80110c:	282f883a 	mov	r23,r5
  801110:	302b883a 	mov	r21,r6
  801114:	d9c02e15 	stw	r7,184(sp)
  801118:	df004615 	stw	fp,280(sp)
  80111c:	dd804415 	stw	r22,272(sp)
  801120:	dd004215 	stw	r20,264(sp)
  801124:	dcc04115 	stw	r19,260(sp)
  801128:	dc804015 	stw	r18,256(sp)
  80112c:	dc403f15 	stw	r17,252(sp)
  801130:	dc003e15 	stw	r16,248(sp)
  801134:	0805b700 	call	805b70 <_localeconv_r>
  801138:	10800017 	ldw	r2,0(r2)
  80113c:	1009883a 	mov	r4,r2
  801140:	d8803415 	stw	r2,208(sp)
  801144:	0807c540 	call	807c54 <strlen>
  801148:	d8803715 	stw	r2,220(sp)
  80114c:	d8802d17 	ldw	r2,180(sp)
  801150:	10000226 	beq	r2,zero,80115c <___vfprintf_internal_r+0x64>
  801154:	10800e17 	ldw	r2,56(r2)
  801158:	1000fb26 	beq	r2,zero,801548 <___vfprintf_internal_r+0x450>
  80115c:	b880030b 	ldhu	r2,12(r23)
  801160:	10c8000c 	andi	r3,r2,8192
  801164:	1800061e 	bne	r3,zero,801180 <___vfprintf_internal_r+0x88>
  801168:	b9001917 	ldw	r4,100(r23)
  80116c:	00f7ffc4 	movi	r3,-8193
  801170:	10880014 	ori	r2,r2,8192
  801174:	20c6703a 	and	r3,r4,r3
  801178:	b880030d 	sth	r2,12(r23)
  80117c:	b8c01915 	stw	r3,100(r23)
  801180:	10c0020c 	andi	r3,r2,8
  801184:	1800c326 	beq	r3,zero,801494 <___vfprintf_internal_r+0x39c>
  801188:	b8c00417 	ldw	r3,16(r23)
  80118c:	1800c126 	beq	r3,zero,801494 <___vfprintf_internal_r+0x39c>
  801190:	1080068c 	andi	r2,r2,26
  801194:	00c00284 	movi	r3,10
  801198:	10c0c626 	beq	r2,r3,8014b4 <___vfprintf_internal_r+0x3bc>
  80119c:	d8c00404 	addi	r3,sp,16
  8011a0:	05002074 	movhi	r20,129
  8011a4:	d9001e04 	addi	r4,sp,120
  8011a8:	a5002884 	addi	r20,r20,162
  8011ac:	d8c01e15 	stw	r3,120(sp)
  8011b0:	d8002015 	stw	zero,128(sp)
  8011b4:	d8001f15 	stw	zero,124(sp)
  8011b8:	d8003315 	stw	zero,204(sp)
  8011bc:	d8003615 	stw	zero,216(sp)
  8011c0:	d8003815 	stw	zero,224(sp)
  8011c4:	1811883a 	mov	r8,r3
  8011c8:	d8003915 	stw	zero,228(sp)
  8011cc:	d8003a15 	stw	zero,232(sp)
  8011d0:	d8002f15 	stw	zero,188(sp)
  8011d4:	d9002815 	stw	r4,160(sp)
  8011d8:	a8800007 	ldb	r2,0(r21)
  8011dc:	10028b26 	beq	r2,zero,801c0c <___vfprintf_internal_r+0xb14>
  8011e0:	00c00944 	movi	r3,37
  8011e4:	a823883a 	mov	r17,r21
  8011e8:	10c0021e 	bne	r2,r3,8011f4 <___vfprintf_internal_r+0xfc>
  8011ec:	00001406 	br	801240 <___vfprintf_internal_r+0x148>
  8011f0:	10c00326 	beq	r2,r3,801200 <___vfprintf_internal_r+0x108>
  8011f4:	8c400044 	addi	r17,r17,1
  8011f8:	88800007 	ldb	r2,0(r17)
  8011fc:	103ffc1e 	bne	r2,zero,8011f0 <__alt_data_end+0xff8011f0>
  801200:	8d61c83a 	sub	r16,r17,r21
  801204:	80000e26 	beq	r16,zero,801240 <___vfprintf_internal_r+0x148>
  801208:	d8c02017 	ldw	r3,128(sp)
  80120c:	d8801f17 	ldw	r2,124(sp)
  801210:	45400015 	stw	r21,0(r8)
  801214:	1c07883a 	add	r3,r3,r16
  801218:	10800044 	addi	r2,r2,1
  80121c:	d8c02015 	stw	r3,128(sp)
  801220:	44000115 	stw	r16,4(r8)
  801224:	d8801f15 	stw	r2,124(sp)
  801228:	00c001c4 	movi	r3,7
  80122c:	1880a916 	blt	r3,r2,8014d4 <___vfprintf_internal_r+0x3dc>
  801230:	42000204 	addi	r8,r8,8
  801234:	d9402f17 	ldw	r5,188(sp)
  801238:	2c0b883a 	add	r5,r5,r16
  80123c:	d9402f15 	stw	r5,188(sp)
  801240:	88800007 	ldb	r2,0(r17)
  801244:	1000aa26 	beq	r2,zero,8014f0 <___vfprintf_internal_r+0x3f8>
  801248:	8d400044 	addi	r21,r17,1
  80124c:	8c400047 	ldb	r17,1(r17)
  801250:	0021883a 	mov	r16,zero
  801254:	00bfffc4 	movi	r2,-1
  801258:	0025883a 	mov	r18,zero
  80125c:	dc002905 	stb	r16,164(sp)
  801260:	d8002785 	stb	zero,158(sp)
  801264:	d8002b05 	stb	zero,172(sp)
  801268:	d8802a15 	stw	r2,168(sp)
  80126c:	d8003115 	stw	zero,196(sp)
  801270:	04c01604 	movi	r19,88
  801274:	05800244 	movi	r22,9
  801278:	9021883a 	mov	r16,r18
  80127c:	4039883a 	mov	fp,r8
  801280:	ad400044 	addi	r21,r21,1
  801284:	88bff804 	addi	r2,r17,-32
  801288:	98833236 	bltu	r19,r2,801f54 <___vfprintf_internal_r+0xe5c>
  80128c:	100490ba 	slli	r2,r2,2
  801290:	00c02034 	movhi	r3,128
  801294:	18c4a904 	addi	r3,r3,4772
  801298:	10c5883a 	add	r2,r2,r3
  80129c:	10800017 	ldw	r2,0(r2)
  8012a0:	1000683a 	jmp	r2
  8012a4:	00801e4c 	andi	r2,zero,121
  8012a8:	00801f54 	movui	r2,125
  8012ac:	00801f54 	movui	r2,125
  8012b0:	00801e6c 	andhi	r2,zero,121
  8012b4:	00801f54 	movui	r2,125
  8012b8:	00801f54 	movui	r2,125
  8012bc:	00801f54 	movui	r2,125
  8012c0:	00801f54 	movui	r2,125
  8012c4:	00801f54 	movui	r2,125
  8012c8:	00801f54 	movui	r2,125
  8012cc:	00801554 	movui	r2,85
  8012d0:	00801d5c 	xori	r2,zero,117
  8012d4:	00801f54 	movui	r2,125
  8012d8:	00801418 	cmpnei	r2,zero,80
  8012dc:	00801578 	rdprs	r2,zero,85
  8012e0:	00801f54 	movui	r2,125
  8012e4:	008015c8 	cmpgei	r2,zero,87
  8012e8:	008015d4 	movui	r2,87
  8012ec:	008015d4 	movui	r2,87
  8012f0:	008015d4 	movui	r2,87
  8012f4:	008015d4 	movui	r2,87
  8012f8:	008015d4 	movui	r2,87
  8012fc:	008015d4 	movui	r2,87
  801300:	008015d4 	movui	r2,87
  801304:	008015d4 	movui	r2,87
  801308:	008015d4 	movui	r2,87
  80130c:	00801f54 	movui	r2,125
  801310:	00801f54 	movui	r2,125
  801314:	00801f54 	movui	r2,125
  801318:	00801f54 	movui	r2,125
  80131c:	00801f54 	movui	r2,125
  801320:	00801f54 	movui	r2,125
  801324:	00801f54 	movui	r2,125
  801328:	00801f54 	movui	r2,125
  80132c:	00801f54 	movui	r2,125
  801330:	00801f54 	movui	r2,125
  801334:	00801610 	cmplti	r2,zero,88
  801338:	008016d8 	cmpnei	r2,zero,91
  80133c:	00801f54 	movui	r2,125
  801340:	008016d8 	cmpnei	r2,zero,91
  801344:	00801f54 	movui	r2,125
  801348:	00801f54 	movui	r2,125
  80134c:	00801f54 	movui	r2,125
  801350:	00801f54 	movui	r2,125
  801354:	00801784 	movi	r2,94
  801358:	00801f54 	movui	r2,125
  80135c:	00801f54 	movui	r2,125
  801360:	00801790 	cmplti	r2,zero,94
  801364:	00801f54 	movui	r2,125
  801368:	00801f54 	movui	r2,125
  80136c:	00801f54 	movui	r2,125
  801370:	00801f54 	movui	r2,125
  801374:	00801f54 	movui	r2,125
  801378:	00801c14 	movui	r2,112
  80137c:	00801f54 	movui	r2,125
  801380:	00801f54 	movui	r2,125
  801384:	00801c80 	call	801c8 <__reset-0x77fe38>
  801388:	00801f54 	movui	r2,125
  80138c:	00801f54 	movui	r2,125
  801390:	00801f54 	movui	r2,125
  801394:	00801f54 	movui	r2,125
  801398:	00801f54 	movui	r2,125
  80139c:	00801f54 	movui	r2,125
  8013a0:	00801f54 	movui	r2,125
  8013a4:	00801f54 	movui	r2,125
  8013a8:	00801f54 	movui	r2,125
  8013ac:	00801f54 	movui	r2,125
  8013b0:	00801ef8 	rdprs	r2,zero,123
  8013b4:	00801e78 	rdprs	r2,zero,121
  8013b8:	008016d8 	cmpnei	r2,zero,91
  8013bc:	008016d8 	cmpnei	r2,zero,91
  8013c0:	008016d8 	cmpnei	r2,zero,91
  8013c4:	00801e98 	cmpnei	r2,zero,122
  8013c8:	00801e78 	rdprs	r2,zero,121
  8013cc:	00801f54 	movui	r2,125
  8013d0:	00801f54 	movui	r2,125
  8013d4:	00801ea4 	muli	r2,zero,122
  8013d8:	00801f54 	movui	r2,125
  8013dc:	00801eb8 	rdprs	r2,zero,122
  8013e0:	00801d3c 	xorhi	r2,zero,116
  8013e4:	00801424 	muli	r2,zero,80
  8013e8:	00801d74 	movhi	r2,117
  8013ec:	00801f54 	movui	r2,125
  8013f0:	00801d80 	call	801d8 <__reset-0x77fe28>
  8013f4:	00801f54 	movui	r2,125
  8013f8:	00801de4 	muli	r2,zero,119
  8013fc:	00801f54 	movui	r2,125
  801400:	00801f54 	movui	r2,125
  801404:	00801e04 	movi	r2,120
  801408:	d8c03117 	ldw	r3,196(sp)
  80140c:	d8802e15 	stw	r2,184(sp)
  801410:	00c7c83a 	sub	r3,zero,r3
  801414:	d8c03115 	stw	r3,196(sp)
  801418:	84000114 	ori	r16,r16,4
  80141c:	ac400007 	ldb	r17,0(r21)
  801420:	003f9706 	br	801280 <__alt_data_end+0xff801280>
  801424:	00800c04 	movi	r2,48
  801428:	d8802705 	stb	r2,156(sp)
  80142c:	00801e04 	movi	r2,120
  801430:	d8802745 	stb	r2,157(sp)
  801434:	d9002a17 	ldw	r4,168(sp)
  801438:	d8802e17 	ldw	r2,184(sp)
  80143c:	d8002785 	stb	zero,158(sp)
  801440:	e011883a 	mov	r8,fp
  801444:	10c00104 	addi	r3,r2,4
  801448:	14c00017 	ldw	r19,0(r2)
  80144c:	002d883a 	mov	r22,zero
  801450:	80800094 	ori	r2,r16,2
  801454:	2002ca16 	blt	r4,zero,801f80 <___vfprintf_internal_r+0xe88>
  801458:	00bfdfc4 	movi	r2,-129
  80145c:	80a4703a 	and	r18,r16,r2
  801460:	d8c02e15 	stw	r3,184(sp)
  801464:	94800094 	ori	r18,r18,2
  801468:	9802b41e 	bne	r19,zero,801f3c <___vfprintf_internal_r+0xe44>
  80146c:	01402074 	movhi	r5,129
  801470:	29402104 	addi	r5,r5,132
  801474:	d9403915 	stw	r5,228(sp)
  801478:	04401e04 	movi	r17,120
  80147c:	d8802a17 	ldw	r2,168(sp)
  801480:	0039883a 	mov	fp,zero
  801484:	1001fa26 	beq	r2,zero,801c70 <___vfprintf_internal_r+0xb78>
  801488:	0027883a 	mov	r19,zero
  80148c:	002d883a 	mov	r22,zero
  801490:	00021906 	br	801cf8 <___vfprintf_internal_r+0xc00>
  801494:	d9002d17 	ldw	r4,180(sp)
  801498:	b80b883a 	mov	r5,r23
  80149c:	08034ac0 	call	8034ac <__swsetup_r>
  8014a0:	1005dc1e 	bne	r2,zero,802c14 <___vfprintf_internal_r+0x1b1c>
  8014a4:	b880030b 	ldhu	r2,12(r23)
  8014a8:	00c00284 	movi	r3,10
  8014ac:	1080068c 	andi	r2,r2,26
  8014b0:	10ff3a1e 	bne	r2,r3,80119c <__alt_data_end+0xff80119c>
  8014b4:	b880038f 	ldh	r2,14(r23)
  8014b8:	103f3816 	blt	r2,zero,80119c <__alt_data_end+0xff80119c>
  8014bc:	d9c02e17 	ldw	r7,184(sp)
  8014c0:	d9002d17 	ldw	r4,180(sp)
  8014c4:	a80d883a 	mov	r6,r21
  8014c8:	b80b883a 	mov	r5,r23
  8014cc:	08033f00 	call	8033f0 <__sbprintf>
  8014d0:	00001106 	br	801518 <___vfprintf_internal_r+0x420>
  8014d4:	d9002d17 	ldw	r4,180(sp)
  8014d8:	d9801e04 	addi	r6,sp,120
  8014dc:	b80b883a 	mov	r5,r23
  8014e0:	0807de80 	call	807de8 <__sprint_r>
  8014e4:	1000081e 	bne	r2,zero,801508 <___vfprintf_internal_r+0x410>
  8014e8:	da000404 	addi	r8,sp,16
  8014ec:	003f5106 	br	801234 <__alt_data_end+0xff801234>
  8014f0:	d8802017 	ldw	r2,128(sp)
  8014f4:	10000426 	beq	r2,zero,801508 <___vfprintf_internal_r+0x410>
  8014f8:	d9002d17 	ldw	r4,180(sp)
  8014fc:	d9801e04 	addi	r6,sp,120
  801500:	b80b883a 	mov	r5,r23
  801504:	0807de80 	call	807de8 <__sprint_r>
  801508:	b880030b 	ldhu	r2,12(r23)
  80150c:	1080100c 	andi	r2,r2,64
  801510:	1005c01e 	bne	r2,zero,802c14 <___vfprintf_internal_r+0x1b1c>
  801514:	d8802f17 	ldw	r2,188(sp)
  801518:	dfc04717 	ldw	ra,284(sp)
  80151c:	df004617 	ldw	fp,280(sp)
  801520:	ddc04517 	ldw	r23,276(sp)
  801524:	dd804417 	ldw	r22,272(sp)
  801528:	dd404317 	ldw	r21,268(sp)
  80152c:	dd004217 	ldw	r20,264(sp)
  801530:	dcc04117 	ldw	r19,260(sp)
  801534:	dc804017 	ldw	r18,256(sp)
  801538:	dc403f17 	ldw	r17,252(sp)
  80153c:	dc003e17 	ldw	r16,248(sp)
  801540:	dec04804 	addi	sp,sp,288
  801544:	f800283a 	ret
  801548:	d9002d17 	ldw	r4,180(sp)
  80154c:	08054b80 	call	8054b8 <__sinit>
  801550:	003f0206 	br	80115c <__alt_data_end+0xff80115c>
  801554:	d9002e17 	ldw	r4,184(sp)
  801558:	d9402e17 	ldw	r5,184(sp)
  80155c:	21000017 	ldw	r4,0(r4)
  801560:	28800104 	addi	r2,r5,4
  801564:	d9003115 	stw	r4,196(sp)
  801568:	203fa716 	blt	r4,zero,801408 <__alt_data_end+0xff801408>
  80156c:	d8802e15 	stw	r2,184(sp)
  801570:	ac400007 	ldb	r17,0(r21)
  801574:	003f4206 	br	801280 <__alt_data_end+0xff801280>
  801578:	ac400007 	ldb	r17,0(r21)
  80157c:	01000a84 	movi	r4,42
  801580:	a8c00044 	addi	r3,r21,1
  801584:	89075826 	beq	r17,r4,8032e8 <___vfprintf_internal_r+0x21f0>
  801588:	8cbff404 	addi	r18,r17,-48
  80158c:	b486ae36 	bltu	r22,r18,803048 <___vfprintf_internal_r+0x1f50>
  801590:	0009883a 	mov	r4,zero
  801594:	1823883a 	mov	r17,r3
  801598:	01400284 	movi	r5,10
  80159c:	08005640 	call	800564 <__mulsi3>
  8015a0:	88c00007 	ldb	r3,0(r17)
  8015a4:	1489883a 	add	r4,r2,r18
  8015a8:	8d400044 	addi	r21,r17,1
  8015ac:	1cbff404 	addi	r18,r3,-48
  8015b0:	a823883a 	mov	r17,r21
  8015b4:	b4bff82e 	bgeu	r22,r18,801598 <__alt_data_end+0xff801598>
  8015b8:	1823883a 	mov	r17,r3
  8015bc:	2005f616 	blt	r4,zero,802d98 <___vfprintf_internal_r+0x1ca0>
  8015c0:	d9002a15 	stw	r4,168(sp)
  8015c4:	003f2f06 	br	801284 <__alt_data_end+0xff801284>
  8015c8:	84002014 	ori	r16,r16,128
  8015cc:	ac400007 	ldb	r17,0(r21)
  8015d0:	003f2b06 	br	801280 <__alt_data_end+0xff801280>
  8015d4:	8cbff404 	addi	r18,r17,-48
  8015d8:	d8003115 	stw	zero,196(sp)
  8015dc:	0009883a 	mov	r4,zero
  8015e0:	a823883a 	mov	r17,r21
  8015e4:	01400284 	movi	r5,10
  8015e8:	08005640 	call	800564 <__mulsi3>
  8015ec:	88c00007 	ldb	r3,0(r17)
  8015f0:	9089883a 	add	r4,r18,r2
  8015f4:	ad400044 	addi	r21,r21,1
  8015f8:	1cbff404 	addi	r18,r3,-48
  8015fc:	a823883a 	mov	r17,r21
  801600:	b4bff82e 	bgeu	r22,r18,8015e4 <__alt_data_end+0xff8015e4>
  801604:	1823883a 	mov	r17,r3
  801608:	d9003115 	stw	r4,196(sp)
  80160c:	003f1d06 	br	801284 <__alt_data_end+0xff801284>
  801610:	8025883a 	mov	r18,r16
  801614:	dc002903 	ldbu	r16,164(sp)
  801618:	e011883a 	mov	r8,fp
  80161c:	84003fcc 	andi	r16,r16,255
  801620:	8007531e 	bne	r16,zero,803370 <___vfprintf_internal_r+0x2278>
  801624:	94800414 	ori	r18,r18,16
  801628:	9080080c 	andi	r2,r18,32
  80162c:	1003a326 	beq	r2,zero,8024bc <___vfprintf_internal_r+0x13c4>
  801630:	d9002e17 	ldw	r4,184(sp)
  801634:	20800117 	ldw	r2,4(r4)
  801638:	24c00017 	ldw	r19,0(r4)
  80163c:	21000204 	addi	r4,r4,8
  801640:	d9002e15 	stw	r4,184(sp)
  801644:	102d883a 	mov	r22,r2
  801648:	10047316 	blt	r2,zero,802818 <___vfprintf_internal_r+0x1720>
  80164c:	d9002a17 	ldw	r4,168(sp)
  801650:	df002783 	ldbu	fp,158(sp)
  801654:	2003e416 	blt	r4,zero,8025e8 <___vfprintf_internal_r+0x14f0>
  801658:	00ffdfc4 	movi	r3,-129
  80165c:	9d84b03a 	or	r2,r19,r22
  801660:	90e4703a 	and	r18,r18,r3
  801664:	10018026 	beq	r2,zero,801c68 <___vfprintf_internal_r+0xb70>
  801668:	b003ab26 	beq	r22,zero,802518 <___vfprintf_internal_r+0x1420>
  80166c:	dc402915 	stw	r17,164(sp)
  801670:	dc001e04 	addi	r16,sp,120
  801674:	b023883a 	mov	r17,r22
  801678:	402d883a 	mov	r22,r8
  80167c:	9809883a 	mov	r4,r19
  801680:	880b883a 	mov	r5,r17
  801684:	01800284 	movi	r6,10
  801688:	000f883a 	mov	r7,zero
  80168c:	080aeb40 	call	80aeb4 <__umoddi3>
  801690:	10800c04 	addi	r2,r2,48
  801694:	843fffc4 	addi	r16,r16,-1
  801698:	9809883a 	mov	r4,r19
  80169c:	880b883a 	mov	r5,r17
  8016a0:	80800005 	stb	r2,0(r16)
  8016a4:	01800284 	movi	r6,10
  8016a8:	000f883a 	mov	r7,zero
  8016ac:	080a8b80 	call	80a8b8 <__udivdi3>
  8016b0:	1027883a 	mov	r19,r2
  8016b4:	10c4b03a 	or	r2,r2,r3
  8016b8:	1823883a 	mov	r17,r3
  8016bc:	103fef1e 	bne	r2,zero,80167c <__alt_data_end+0xff80167c>
  8016c0:	d8c02817 	ldw	r3,160(sp)
  8016c4:	dc402917 	ldw	r17,164(sp)
  8016c8:	b011883a 	mov	r8,r22
  8016cc:	1c07c83a 	sub	r3,r3,r16
  8016d0:	d8c02b15 	stw	r3,172(sp)
  8016d4:	00005f06 	br	801854 <___vfprintf_internal_r+0x75c>
  8016d8:	8025883a 	mov	r18,r16
  8016dc:	dc002903 	ldbu	r16,164(sp)
  8016e0:	e011883a 	mov	r8,fp
  8016e4:	84003fcc 	andi	r16,r16,255
  8016e8:	80071e1e 	bne	r16,zero,803364 <___vfprintf_internal_r+0x226c>
  8016ec:	9080020c 	andi	r2,r18,8
  8016f0:	1004af26 	beq	r2,zero,8029b0 <___vfprintf_internal_r+0x18b8>
  8016f4:	d9002e17 	ldw	r4,184(sp)
  8016f8:	d9402e17 	ldw	r5,184(sp)
  8016fc:	d8802e17 	ldw	r2,184(sp)
  801700:	21000017 	ldw	r4,0(r4)
  801704:	29400117 	ldw	r5,4(r5)
  801708:	10800204 	addi	r2,r2,8
  80170c:	d9003615 	stw	r4,216(sp)
  801710:	d9403815 	stw	r5,224(sp)
  801714:	d8802e15 	stw	r2,184(sp)
  801718:	d9003617 	ldw	r4,216(sp)
  80171c:	d9403817 	ldw	r5,224(sp)
  801720:	da003d15 	stw	r8,244(sp)
  801724:	04000044 	movi	r16,1
  801728:	08079740 	call	807974 <__fpclassifyd>
  80172c:	da003d17 	ldw	r8,244(sp)
  801730:	1404441e 	bne	r2,r16,802844 <___vfprintf_internal_r+0x174c>
  801734:	d9003617 	ldw	r4,216(sp)
  801738:	d9403817 	ldw	r5,224(sp)
  80173c:	000d883a 	mov	r6,zero
  801740:	000f883a 	mov	r7,zero
  801744:	080ca0c0 	call	80ca0c <__ledf2>
  801748:	da003d17 	ldw	r8,244(sp)
  80174c:	1005e316 	blt	r2,zero,802edc <___vfprintf_internal_r+0x1de4>
  801750:	df002783 	ldbu	fp,158(sp)
  801754:	008011c4 	movi	r2,71
  801758:	1445580e 	bge	r2,r17,802cbc <___vfprintf_internal_r+0x1bc4>
  80175c:	04002074 	movhi	r16,129
  801760:	84001904 	addi	r16,r16,100
  801764:	00c000c4 	movi	r3,3
  801768:	00bfdfc4 	movi	r2,-129
  80176c:	d8c02915 	stw	r3,164(sp)
  801770:	90a4703a 	and	r18,r18,r2
  801774:	d8c02b15 	stw	r3,172(sp)
  801778:	d8002a15 	stw	zero,168(sp)
  80177c:	d8003215 	stw	zero,200(sp)
  801780:	00003a06 	br	80186c <___vfprintf_internal_r+0x774>
  801784:	84000214 	ori	r16,r16,8
  801788:	ac400007 	ldb	r17,0(r21)
  80178c:	003ebc06 	br	801280 <__alt_data_end+0xff801280>
  801790:	8025883a 	mov	r18,r16
  801794:	dc002903 	ldbu	r16,164(sp)
  801798:	e011883a 	mov	r8,fp
  80179c:	84003fcc 	andi	r16,r16,255
  8017a0:	8007001e 	bne	r16,zero,8033a4 <___vfprintf_internal_r+0x22ac>
  8017a4:	94800414 	ori	r18,r18,16
  8017a8:	9080080c 	andi	r2,r18,32
  8017ac:	1002fa26 	beq	r2,zero,802398 <___vfprintf_internal_r+0x12a0>
  8017b0:	d9002e17 	ldw	r4,184(sp)
  8017b4:	d9402a17 	ldw	r5,168(sp)
  8017b8:	d8002785 	stb	zero,158(sp)
  8017bc:	20800204 	addi	r2,r4,8
  8017c0:	24c00017 	ldw	r19,0(r4)
  8017c4:	25800117 	ldw	r22,4(r4)
  8017c8:	2804b116 	blt	r5,zero,802a90 <___vfprintf_internal_r+0x1998>
  8017cc:	013fdfc4 	movi	r4,-129
  8017d0:	9d86b03a 	or	r3,r19,r22
  8017d4:	d8802e15 	stw	r2,184(sp)
  8017d8:	9124703a 	and	r18,r18,r4
  8017dc:	1802fb1e 	bne	r3,zero,8023cc <___vfprintf_internal_r+0x12d4>
  8017e0:	d8c02a17 	ldw	r3,168(sp)
  8017e4:	0039883a 	mov	fp,zero
  8017e8:	1805e526 	beq	r3,zero,802f80 <___vfprintf_internal_r+0x1e88>
  8017ec:	0027883a 	mov	r19,zero
  8017f0:	002d883a 	mov	r22,zero
  8017f4:	dc001e04 	addi	r16,sp,120
  8017f8:	9806d0fa 	srli	r3,r19,3
  8017fc:	b008977a 	slli	r4,r22,29
  801800:	b02cd0fa 	srli	r22,r22,3
  801804:	9cc001cc 	andi	r19,r19,7
  801808:	98800c04 	addi	r2,r19,48
  80180c:	843fffc4 	addi	r16,r16,-1
  801810:	20e6b03a 	or	r19,r4,r3
  801814:	80800005 	stb	r2,0(r16)
  801818:	9d86b03a 	or	r3,r19,r22
  80181c:	183ff61e 	bne	r3,zero,8017f8 <__alt_data_end+0xff8017f8>
  801820:	90c0004c 	andi	r3,r18,1
  801824:	18014126 	beq	r3,zero,801d2c <___vfprintf_internal_r+0xc34>
  801828:	10803fcc 	andi	r2,r2,255
  80182c:	1080201c 	xori	r2,r2,128
  801830:	10bfe004 	addi	r2,r2,-128
  801834:	00c00c04 	movi	r3,48
  801838:	10c13c26 	beq	r2,r3,801d2c <___vfprintf_internal_r+0xc34>
  80183c:	80ffffc5 	stb	r3,-1(r16)
  801840:	d8c02817 	ldw	r3,160(sp)
  801844:	80bfffc4 	addi	r2,r16,-1
  801848:	1021883a 	mov	r16,r2
  80184c:	1887c83a 	sub	r3,r3,r2
  801850:	d8c02b15 	stw	r3,172(sp)
  801854:	d8802b17 	ldw	r2,172(sp)
  801858:	d9002a17 	ldw	r4,168(sp)
  80185c:	1100010e 	bge	r2,r4,801864 <___vfprintf_internal_r+0x76c>
  801860:	2005883a 	mov	r2,r4
  801864:	d8802915 	stw	r2,164(sp)
  801868:	d8003215 	stw	zero,200(sp)
  80186c:	e7003fcc 	andi	fp,fp,255
  801870:	e700201c 	xori	fp,fp,128
  801874:	e73fe004 	addi	fp,fp,-128
  801878:	e0000326 	beq	fp,zero,801888 <___vfprintf_internal_r+0x790>
  80187c:	d8c02917 	ldw	r3,164(sp)
  801880:	18c00044 	addi	r3,r3,1
  801884:	d8c02915 	stw	r3,164(sp)
  801888:	90c0008c 	andi	r3,r18,2
  80188c:	d8c02c15 	stw	r3,176(sp)
  801890:	18000326 	beq	r3,zero,8018a0 <___vfprintf_internal_r+0x7a8>
  801894:	d8c02917 	ldw	r3,164(sp)
  801898:	18c00084 	addi	r3,r3,2
  80189c:	d8c02915 	stw	r3,164(sp)
  8018a0:	90c0210c 	andi	r3,r18,132
  8018a4:	d8c03015 	stw	r3,192(sp)
  8018a8:	1801c51e 	bne	r3,zero,801fc0 <___vfprintf_internal_r+0xec8>
  8018ac:	d9003117 	ldw	r4,196(sp)
  8018b0:	d8c02917 	ldw	r3,164(sp)
  8018b4:	20e7c83a 	sub	r19,r4,r3
  8018b8:	04c1c10e 	bge	zero,r19,801fc0 <___vfprintf_internal_r+0xec8>
  8018bc:	02400404 	movi	r9,16
  8018c0:	d8c02017 	ldw	r3,128(sp)
  8018c4:	d8801f17 	ldw	r2,124(sp)
  8018c8:	4cc52f0e 	bge	r9,r19,802d88 <___vfprintf_internal_r+0x1c90>
  8018cc:	01402074 	movhi	r5,129
  8018d0:	29402c84 	addi	r5,r5,178
  8018d4:	dc403b15 	stw	r17,236(sp)
  8018d8:	d9403515 	stw	r5,212(sp)
  8018dc:	9823883a 	mov	r17,r19
  8018e0:	482d883a 	mov	r22,r9
  8018e4:	9027883a 	mov	r19,r18
  8018e8:	070001c4 	movi	fp,7
  8018ec:	8025883a 	mov	r18,r16
  8018f0:	dc002d17 	ldw	r16,180(sp)
  8018f4:	00000306 	br	801904 <___vfprintf_internal_r+0x80c>
  8018f8:	8c7ffc04 	addi	r17,r17,-16
  8018fc:	42000204 	addi	r8,r8,8
  801900:	b440130e 	bge	r22,r17,801950 <___vfprintf_internal_r+0x858>
  801904:	01002074 	movhi	r4,129
  801908:	18c00404 	addi	r3,r3,16
  80190c:	10800044 	addi	r2,r2,1
  801910:	21002c84 	addi	r4,r4,178
  801914:	41000015 	stw	r4,0(r8)
  801918:	45800115 	stw	r22,4(r8)
  80191c:	d8c02015 	stw	r3,128(sp)
  801920:	d8801f15 	stw	r2,124(sp)
  801924:	e0bff40e 	bge	fp,r2,8018f8 <__alt_data_end+0xff8018f8>
  801928:	d9801e04 	addi	r6,sp,120
  80192c:	b80b883a 	mov	r5,r23
  801930:	8009883a 	mov	r4,r16
  801934:	0807de80 	call	807de8 <__sprint_r>
  801938:	103ef31e 	bne	r2,zero,801508 <__alt_data_end+0xff801508>
  80193c:	8c7ffc04 	addi	r17,r17,-16
  801940:	d8c02017 	ldw	r3,128(sp)
  801944:	d8801f17 	ldw	r2,124(sp)
  801948:	da000404 	addi	r8,sp,16
  80194c:	b47fed16 	blt	r22,r17,801904 <__alt_data_end+0xff801904>
  801950:	9021883a 	mov	r16,r18
  801954:	9825883a 	mov	r18,r19
  801958:	8827883a 	mov	r19,r17
  80195c:	dc403b17 	ldw	r17,236(sp)
  801960:	d9403517 	ldw	r5,212(sp)
  801964:	98c7883a 	add	r3,r19,r3
  801968:	10800044 	addi	r2,r2,1
  80196c:	41400015 	stw	r5,0(r8)
  801970:	44c00115 	stw	r19,4(r8)
  801974:	d8c02015 	stw	r3,128(sp)
  801978:	d8801f15 	stw	r2,124(sp)
  80197c:	010001c4 	movi	r4,7
  801980:	2082c516 	blt	r4,r2,802498 <___vfprintf_internal_r+0x13a0>
  801984:	df002787 	ldb	fp,158(sp)
  801988:	42000204 	addi	r8,r8,8
  80198c:	e0000c26 	beq	fp,zero,8019c0 <___vfprintf_internal_r+0x8c8>
  801990:	d8801f17 	ldw	r2,124(sp)
  801994:	d9002784 	addi	r4,sp,158
  801998:	18c00044 	addi	r3,r3,1
  80199c:	10800044 	addi	r2,r2,1
  8019a0:	41000015 	stw	r4,0(r8)
  8019a4:	01000044 	movi	r4,1
  8019a8:	41000115 	stw	r4,4(r8)
  8019ac:	d8c02015 	stw	r3,128(sp)
  8019b0:	d8801f15 	stw	r2,124(sp)
  8019b4:	010001c4 	movi	r4,7
  8019b8:	20825e16 	blt	r4,r2,802334 <___vfprintf_internal_r+0x123c>
  8019bc:	42000204 	addi	r8,r8,8
  8019c0:	d8802c17 	ldw	r2,176(sp)
  8019c4:	10000c26 	beq	r2,zero,8019f8 <___vfprintf_internal_r+0x900>
  8019c8:	d8801f17 	ldw	r2,124(sp)
  8019cc:	d9002704 	addi	r4,sp,156
  8019d0:	18c00084 	addi	r3,r3,2
  8019d4:	10800044 	addi	r2,r2,1
  8019d8:	41000015 	stw	r4,0(r8)
  8019dc:	01000084 	movi	r4,2
  8019e0:	41000115 	stw	r4,4(r8)
  8019e4:	d8c02015 	stw	r3,128(sp)
  8019e8:	d8801f15 	stw	r2,124(sp)
  8019ec:	010001c4 	movi	r4,7
  8019f0:	20825816 	blt	r4,r2,802354 <___vfprintf_internal_r+0x125c>
  8019f4:	42000204 	addi	r8,r8,8
  8019f8:	d9003017 	ldw	r4,192(sp)
  8019fc:	00802004 	movi	r2,128
  801a00:	2081bb26 	beq	r4,r2,8020f0 <___vfprintf_internal_r+0xff8>
  801a04:	d9402a17 	ldw	r5,168(sp)
  801a08:	d8802b17 	ldw	r2,172(sp)
  801a0c:	28adc83a 	sub	r22,r5,r2
  801a10:	0580310e 	bge	zero,r22,801ad8 <___vfprintf_internal_r+0x9e0>
  801a14:	07000404 	movi	fp,16
  801a18:	d8801f17 	ldw	r2,124(sp)
  801a1c:	e584360e 	bge	fp,r22,802af8 <___vfprintf_internal_r+0x1a00>
  801a20:	01402074 	movhi	r5,129
  801a24:	29402884 	addi	r5,r5,162
  801a28:	dc402a15 	stw	r17,168(sp)
  801a2c:	d9402c15 	stw	r5,176(sp)
  801a30:	b023883a 	mov	r17,r22
  801a34:	04c001c4 	movi	r19,7
  801a38:	a82d883a 	mov	r22,r21
  801a3c:	902b883a 	mov	r21,r18
  801a40:	8025883a 	mov	r18,r16
  801a44:	dc002d17 	ldw	r16,180(sp)
  801a48:	00000306 	br	801a58 <___vfprintf_internal_r+0x960>
  801a4c:	8c7ffc04 	addi	r17,r17,-16
  801a50:	42000204 	addi	r8,r8,8
  801a54:	e440110e 	bge	fp,r17,801a9c <___vfprintf_internal_r+0x9a4>
  801a58:	18c00404 	addi	r3,r3,16
  801a5c:	10800044 	addi	r2,r2,1
  801a60:	45000015 	stw	r20,0(r8)
  801a64:	47000115 	stw	fp,4(r8)
  801a68:	d8c02015 	stw	r3,128(sp)
  801a6c:	d8801f15 	stw	r2,124(sp)
  801a70:	98bff60e 	bge	r19,r2,801a4c <__alt_data_end+0xff801a4c>
  801a74:	d9801e04 	addi	r6,sp,120
  801a78:	b80b883a 	mov	r5,r23
  801a7c:	8009883a 	mov	r4,r16
  801a80:	0807de80 	call	807de8 <__sprint_r>
  801a84:	103ea01e 	bne	r2,zero,801508 <__alt_data_end+0xff801508>
  801a88:	8c7ffc04 	addi	r17,r17,-16
  801a8c:	d8c02017 	ldw	r3,128(sp)
  801a90:	d8801f17 	ldw	r2,124(sp)
  801a94:	da000404 	addi	r8,sp,16
  801a98:	e47fef16 	blt	fp,r17,801a58 <__alt_data_end+0xff801a58>
  801a9c:	9021883a 	mov	r16,r18
  801aa0:	a825883a 	mov	r18,r21
  801aa4:	b02b883a 	mov	r21,r22
  801aa8:	882d883a 	mov	r22,r17
  801aac:	dc402a17 	ldw	r17,168(sp)
  801ab0:	d9002c17 	ldw	r4,176(sp)
  801ab4:	1d87883a 	add	r3,r3,r22
  801ab8:	10800044 	addi	r2,r2,1
  801abc:	41000015 	stw	r4,0(r8)
  801ac0:	45800115 	stw	r22,4(r8)
  801ac4:	d8c02015 	stw	r3,128(sp)
  801ac8:	d8801f15 	stw	r2,124(sp)
  801acc:	010001c4 	movi	r4,7
  801ad0:	20821016 	blt	r4,r2,802314 <___vfprintf_internal_r+0x121c>
  801ad4:	42000204 	addi	r8,r8,8
  801ad8:	9080400c 	andi	r2,r18,256
  801adc:	10013a1e 	bne	r2,zero,801fc8 <___vfprintf_internal_r+0xed0>
  801ae0:	d9402b17 	ldw	r5,172(sp)
  801ae4:	d8801f17 	ldw	r2,124(sp)
  801ae8:	44000015 	stw	r16,0(r8)
  801aec:	1947883a 	add	r3,r3,r5
  801af0:	10800044 	addi	r2,r2,1
  801af4:	41400115 	stw	r5,4(r8)
  801af8:	d8c02015 	stw	r3,128(sp)
  801afc:	d8801f15 	stw	r2,124(sp)
  801b00:	010001c4 	movi	r4,7
  801b04:	2081f516 	blt	r4,r2,8022dc <___vfprintf_internal_r+0x11e4>
  801b08:	42000204 	addi	r8,r8,8
  801b0c:	9480010c 	andi	r18,r18,4
  801b10:	90003226 	beq	r18,zero,801bdc <___vfprintf_internal_r+0xae4>
  801b14:	d9403117 	ldw	r5,196(sp)
  801b18:	d8802917 	ldw	r2,164(sp)
  801b1c:	28a1c83a 	sub	r16,r5,r2
  801b20:	04002e0e 	bge	zero,r16,801bdc <___vfprintf_internal_r+0xae4>
  801b24:	04400404 	movi	r17,16
  801b28:	d8801f17 	ldw	r2,124(sp)
  801b2c:	8c04c40e 	bge	r17,r16,802e40 <___vfprintf_internal_r+0x1d48>
  801b30:	01402074 	movhi	r5,129
  801b34:	29402c84 	addi	r5,r5,178
  801b38:	d9403515 	stw	r5,212(sp)
  801b3c:	048001c4 	movi	r18,7
  801b40:	dcc02d17 	ldw	r19,180(sp)
  801b44:	00000306 	br	801b54 <___vfprintf_internal_r+0xa5c>
  801b48:	843ffc04 	addi	r16,r16,-16
  801b4c:	42000204 	addi	r8,r8,8
  801b50:	8c00130e 	bge	r17,r16,801ba0 <___vfprintf_internal_r+0xaa8>
  801b54:	01002074 	movhi	r4,129
  801b58:	18c00404 	addi	r3,r3,16
  801b5c:	10800044 	addi	r2,r2,1
  801b60:	21002c84 	addi	r4,r4,178
  801b64:	41000015 	stw	r4,0(r8)
  801b68:	44400115 	stw	r17,4(r8)
  801b6c:	d8c02015 	stw	r3,128(sp)
  801b70:	d8801f15 	stw	r2,124(sp)
  801b74:	90bff40e 	bge	r18,r2,801b48 <__alt_data_end+0xff801b48>
  801b78:	d9801e04 	addi	r6,sp,120
  801b7c:	b80b883a 	mov	r5,r23
  801b80:	9809883a 	mov	r4,r19
  801b84:	0807de80 	call	807de8 <__sprint_r>
  801b88:	103e5f1e 	bne	r2,zero,801508 <__alt_data_end+0xff801508>
  801b8c:	843ffc04 	addi	r16,r16,-16
  801b90:	d8c02017 	ldw	r3,128(sp)
  801b94:	d8801f17 	ldw	r2,124(sp)
  801b98:	da000404 	addi	r8,sp,16
  801b9c:	8c3fed16 	blt	r17,r16,801b54 <__alt_data_end+0xff801b54>
  801ba0:	d9403517 	ldw	r5,212(sp)
  801ba4:	1c07883a 	add	r3,r3,r16
  801ba8:	10800044 	addi	r2,r2,1
  801bac:	41400015 	stw	r5,0(r8)
  801bb0:	44000115 	stw	r16,4(r8)
  801bb4:	d8c02015 	stw	r3,128(sp)
  801bb8:	d8801f15 	stw	r2,124(sp)
  801bbc:	010001c4 	movi	r4,7
  801bc0:	2080060e 	bge	r4,r2,801bdc <___vfprintf_internal_r+0xae4>
  801bc4:	d9002d17 	ldw	r4,180(sp)
  801bc8:	d9801e04 	addi	r6,sp,120
  801bcc:	b80b883a 	mov	r5,r23
  801bd0:	0807de80 	call	807de8 <__sprint_r>
  801bd4:	103e4c1e 	bne	r2,zero,801508 <__alt_data_end+0xff801508>
  801bd8:	d8c02017 	ldw	r3,128(sp)
  801bdc:	d8803117 	ldw	r2,196(sp)
  801be0:	d9002917 	ldw	r4,164(sp)
  801be4:	1100010e 	bge	r2,r4,801bec <___vfprintf_internal_r+0xaf4>
  801be8:	2005883a 	mov	r2,r4
  801bec:	d9402f17 	ldw	r5,188(sp)
  801bf0:	288b883a 	add	r5,r5,r2
  801bf4:	d9402f15 	stw	r5,188(sp)
  801bf8:	1801c01e 	bne	r3,zero,8022fc <___vfprintf_internal_r+0x1204>
  801bfc:	a8800007 	ldb	r2,0(r21)
  801c00:	d8001f15 	stw	zero,124(sp)
  801c04:	da000404 	addi	r8,sp,16
  801c08:	103d751e 	bne	r2,zero,8011e0 <__alt_data_end+0xff8011e0>
  801c0c:	a823883a 	mov	r17,r21
  801c10:	003d8b06 	br	801240 <__alt_data_end+0xff801240>
  801c14:	8025883a 	mov	r18,r16
  801c18:	dc002903 	ldbu	r16,164(sp)
  801c1c:	e011883a 	mov	r8,fp
  801c20:	84003fcc 	andi	r16,r16,255
  801c24:	8005e51e 	bne	r16,zero,8033bc <___vfprintf_internal_r+0x22c4>
  801c28:	94800414 	ori	r18,r18,16
  801c2c:	9080080c 	andi	r2,r18,32
  801c30:	10022b26 	beq	r2,zero,8024e0 <___vfprintf_internal_r+0x13e8>
  801c34:	d9002e17 	ldw	r4,184(sp)
  801c38:	d9402a17 	ldw	r5,168(sp)
  801c3c:	d8002785 	stb	zero,158(sp)
  801c40:	20c00204 	addi	r3,r4,8
  801c44:	24c00017 	ldw	r19,0(r4)
  801c48:	25800117 	ldw	r22,4(r4)
  801c4c:	28042e16 	blt	r5,zero,802d08 <___vfprintf_internal_r+0x1c10>
  801c50:	013fdfc4 	movi	r4,-129
  801c54:	9d84b03a 	or	r2,r19,r22
  801c58:	d8c02e15 	stw	r3,184(sp)
  801c5c:	9124703a 	and	r18,r18,r4
  801c60:	0039883a 	mov	fp,zero
  801c64:	103e801e 	bne	r2,zero,801668 <__alt_data_end+0xff801668>
  801c68:	d9002a17 	ldw	r4,168(sp)
  801c6c:	2002e01e 	bne	r4,zero,8027f0 <___vfprintf_internal_r+0x16f8>
  801c70:	d8002a15 	stw	zero,168(sp)
  801c74:	d8002b15 	stw	zero,172(sp)
  801c78:	dc001e04 	addi	r16,sp,120
  801c7c:	003ef506 	br	801854 <__alt_data_end+0xff801854>
  801c80:	8025883a 	mov	r18,r16
  801c84:	dc002903 	ldbu	r16,164(sp)
  801c88:	e011883a 	mov	r8,fp
  801c8c:	84003fcc 	andi	r16,r16,255
  801c90:	8005ba1e 	bne	r16,zero,80337c <___vfprintf_internal_r+0x2284>
  801c94:	01002074 	movhi	r4,129
  801c98:	21001c04 	addi	r4,r4,112
  801c9c:	d9003915 	stw	r4,228(sp)
  801ca0:	9080080c 	andi	r2,r18,32
  801ca4:	10006126 	beq	r2,zero,801e2c <___vfprintf_internal_r+0xd34>
  801ca8:	d9402e17 	ldw	r5,184(sp)
  801cac:	2cc00017 	ldw	r19,0(r5)
  801cb0:	2d800117 	ldw	r22,4(r5)
  801cb4:	29400204 	addi	r5,r5,8
  801cb8:	d9402e15 	stw	r5,184(sp)
  801cbc:	9080004c 	andi	r2,r18,1
  801cc0:	1001ac26 	beq	r2,zero,802374 <___vfprintf_internal_r+0x127c>
  801cc4:	9d84b03a 	or	r2,r19,r22
  801cc8:	10038526 	beq	r2,zero,802ae0 <___vfprintf_internal_r+0x19e8>
  801ccc:	d8c02a17 	ldw	r3,168(sp)
  801cd0:	00800c04 	movi	r2,48
  801cd4:	d8802705 	stb	r2,156(sp)
  801cd8:	dc402745 	stb	r17,157(sp)
  801cdc:	d8002785 	stb	zero,158(sp)
  801ce0:	90800094 	ori	r2,r18,2
  801ce4:	18047916 	blt	r3,zero,802ecc <___vfprintf_internal_r+0x1dd4>
  801ce8:	00bfdfc4 	movi	r2,-129
  801cec:	90a4703a 	and	r18,r18,r2
  801cf0:	94800094 	ori	r18,r18,2
  801cf4:	0039883a 	mov	fp,zero
  801cf8:	d9003917 	ldw	r4,228(sp)
  801cfc:	dc001e04 	addi	r16,sp,120
  801d00:	988003cc 	andi	r2,r19,15
  801d04:	b006973a 	slli	r3,r22,28
  801d08:	2085883a 	add	r2,r4,r2
  801d0c:	9826d13a 	srli	r19,r19,4
  801d10:	10800003 	ldbu	r2,0(r2)
  801d14:	b02cd13a 	srli	r22,r22,4
  801d18:	843fffc4 	addi	r16,r16,-1
  801d1c:	1ce6b03a 	or	r19,r3,r19
  801d20:	80800005 	stb	r2,0(r16)
  801d24:	9d84b03a 	or	r2,r19,r22
  801d28:	103ff51e 	bne	r2,zero,801d00 <__alt_data_end+0xff801d00>
  801d2c:	d8c02817 	ldw	r3,160(sp)
  801d30:	1c07c83a 	sub	r3,r3,r16
  801d34:	d8c02b15 	stw	r3,172(sp)
  801d38:	003ec606 	br	801854 <__alt_data_end+0xff801854>
  801d3c:	8025883a 	mov	r18,r16
  801d40:	dc002903 	ldbu	r16,164(sp)
  801d44:	e011883a 	mov	r8,fp
  801d48:	84003fcc 	andi	r16,r16,255
  801d4c:	803e9626 	beq	r16,zero,8017a8 <__alt_data_end+0xff8017a8>
  801d50:	d8c02b03 	ldbu	r3,172(sp)
  801d54:	d8c02785 	stb	r3,158(sp)
  801d58:	003e9306 	br	8017a8 <__alt_data_end+0xff8017a8>
  801d5c:	00c00044 	movi	r3,1
  801d60:	d8c02905 	stb	r3,164(sp)
  801d64:	00c00ac4 	movi	r3,43
  801d68:	d8c02b05 	stb	r3,172(sp)
  801d6c:	ac400007 	ldb	r17,0(r21)
  801d70:	003d4306 	br	801280 <__alt_data_end+0xff801280>
  801d74:	84000814 	ori	r16,r16,32
  801d78:	ac400007 	ldb	r17,0(r21)
  801d7c:	003d4006 	br	801280 <__alt_data_end+0xff801280>
  801d80:	d8802e17 	ldw	r2,184(sp)
  801d84:	8025883a 	mov	r18,r16
  801d88:	d8002785 	stb	zero,158(sp)
  801d8c:	14000017 	ldw	r16,0(r2)
  801d90:	e011883a 	mov	r8,fp
  801d94:	14c00104 	addi	r19,r2,4
  801d98:	80042d26 	beq	r16,zero,802e50 <___vfprintf_internal_r+0x1d58>
  801d9c:	d8c02a17 	ldw	r3,168(sp)
  801da0:	1803e416 	blt	r3,zero,802d34 <___vfprintf_internal_r+0x1c3c>
  801da4:	180d883a 	mov	r6,r3
  801da8:	000b883a 	mov	r5,zero
  801dac:	8009883a 	mov	r4,r16
  801db0:	df003d15 	stw	fp,244(sp)
  801db4:	08065680 	call	806568 <memchr>
  801db8:	da003d17 	ldw	r8,244(sp)
  801dbc:	10046826 	beq	r2,zero,802f60 <___vfprintf_internal_r+0x1e68>
  801dc0:	1405c83a 	sub	r2,r2,r16
  801dc4:	d8802b15 	stw	r2,172(sp)
  801dc8:	1003e016 	blt	r2,zero,802d4c <___vfprintf_internal_r+0x1c54>
  801dcc:	df002783 	ldbu	fp,158(sp)
  801dd0:	d8802915 	stw	r2,164(sp)
  801dd4:	dcc02e15 	stw	r19,184(sp)
  801dd8:	d8002a15 	stw	zero,168(sp)
  801ddc:	d8003215 	stw	zero,200(sp)
  801de0:	003ea206 	br	80186c <__alt_data_end+0xff80186c>
  801de4:	8025883a 	mov	r18,r16
  801de8:	dc002903 	ldbu	r16,164(sp)
  801dec:	e011883a 	mov	r8,fp
  801df0:	84003fcc 	andi	r16,r16,255
  801df4:	803f8d26 	beq	r16,zero,801c2c <__alt_data_end+0xff801c2c>
  801df8:	d8c02b03 	ldbu	r3,172(sp)
  801dfc:	d8c02785 	stb	r3,158(sp)
  801e00:	003f8a06 	br	801c2c <__alt_data_end+0xff801c2c>
  801e04:	8025883a 	mov	r18,r16
  801e08:	dc002903 	ldbu	r16,164(sp)
  801e0c:	e011883a 	mov	r8,fp
  801e10:	84003fcc 	andi	r16,r16,255
  801e14:	8005661e 	bne	r16,zero,8033b0 <___vfprintf_internal_r+0x22b8>
  801e18:	01002074 	movhi	r4,129
  801e1c:	21002104 	addi	r4,r4,132
  801e20:	d9003915 	stw	r4,228(sp)
  801e24:	9080080c 	andi	r2,r18,32
  801e28:	103f9f1e 	bne	r2,zero,801ca8 <__alt_data_end+0xff801ca8>
  801e2c:	9080040c 	andi	r2,r18,16
  801e30:	1002eb26 	beq	r2,zero,8029e0 <___vfprintf_internal_r+0x18e8>
  801e34:	d8802e17 	ldw	r2,184(sp)
  801e38:	002d883a 	mov	r22,zero
  801e3c:	14c00017 	ldw	r19,0(r2)
  801e40:	10800104 	addi	r2,r2,4
  801e44:	d8802e15 	stw	r2,184(sp)
  801e48:	003f9c06 	br	801cbc <__alt_data_end+0xff801cbc>
  801e4c:	d8802b07 	ldb	r2,172(sp)
  801e50:	1002e11e 	bne	r2,zero,8029d8 <___vfprintf_internal_r+0x18e0>
  801e54:	00c00044 	movi	r3,1
  801e58:	d8c02905 	stb	r3,164(sp)
  801e5c:	00c00804 	movi	r3,32
  801e60:	d8c02b05 	stb	r3,172(sp)
  801e64:	ac400007 	ldb	r17,0(r21)
  801e68:	003d0506 	br	801280 <__alt_data_end+0xff801280>
  801e6c:	84000054 	ori	r16,r16,1
  801e70:	ac400007 	ldb	r17,0(r21)
  801e74:	003d0206 	br	801280 <__alt_data_end+0xff801280>
  801e78:	8025883a 	mov	r18,r16
  801e7c:	dc002903 	ldbu	r16,164(sp)
  801e80:	e011883a 	mov	r8,fp
  801e84:	84003fcc 	andi	r16,r16,255
  801e88:	803de726 	beq	r16,zero,801628 <__alt_data_end+0xff801628>
  801e8c:	d8c02b03 	ldbu	r3,172(sp)
  801e90:	d8c02785 	stb	r3,158(sp)
  801e94:	003de406 	br	801628 <__alt_data_end+0xff801628>
  801e98:	84001014 	ori	r16,r16,64
  801e9c:	ac400007 	ldb	r17,0(r21)
  801ea0:	003cf706 	br	801280 <__alt_data_end+0xff801280>
  801ea4:	ac400007 	ldb	r17,0(r21)
  801ea8:	00801b04 	movi	r2,108
  801eac:	88838f26 	beq	r17,r2,802cec <___vfprintf_internal_r+0x1bf4>
  801eb0:	84000414 	ori	r16,r16,16
  801eb4:	003cf206 	br	801280 <__alt_data_end+0xff801280>
  801eb8:	8025883a 	mov	r18,r16
  801ebc:	dc002903 	ldbu	r16,164(sp)
  801ec0:	e011883a 	mov	r8,fp
  801ec4:	84003fcc 	andi	r16,r16,255
  801ec8:	80053f1e 	bne	r16,zero,8033c8 <___vfprintf_internal_r+0x22d0>
  801ecc:	9080080c 	andi	r2,r18,32
  801ed0:	1002d226 	beq	r2,zero,802a1c <___vfprintf_internal_r+0x1924>
  801ed4:	d9002e17 	ldw	r4,184(sp)
  801ed8:	d9402f17 	ldw	r5,188(sp)
  801edc:	20800017 	ldw	r2,0(r4)
  801ee0:	2807d7fa 	srai	r3,r5,31
  801ee4:	21000104 	addi	r4,r4,4
  801ee8:	d9002e15 	stw	r4,184(sp)
  801eec:	11400015 	stw	r5,0(r2)
  801ef0:	10c00115 	stw	r3,4(r2)
  801ef4:	003cb806 	br	8011d8 <__alt_data_end+0xff8011d8>
  801ef8:	d8c02e17 	ldw	r3,184(sp)
  801efc:	d9002e17 	ldw	r4,184(sp)
  801f00:	8025883a 	mov	r18,r16
  801f04:	18800017 	ldw	r2,0(r3)
  801f08:	21000104 	addi	r4,r4,4
  801f0c:	00c00044 	movi	r3,1
  801f10:	e011883a 	mov	r8,fp
  801f14:	d8c02915 	stw	r3,164(sp)
  801f18:	d8002785 	stb	zero,158(sp)
  801f1c:	d8801405 	stb	r2,80(sp)
  801f20:	d9002e15 	stw	r4,184(sp)
  801f24:	d8c02b15 	stw	r3,172(sp)
  801f28:	d8002a15 	stw	zero,168(sp)
  801f2c:	d8003215 	stw	zero,200(sp)
  801f30:	dc001404 	addi	r16,sp,80
  801f34:	0039883a 	mov	fp,zero
  801f38:	003e5306 	br	801888 <__alt_data_end+0xff801888>
  801f3c:	01002074 	movhi	r4,129
  801f40:	21002104 	addi	r4,r4,132
  801f44:	0039883a 	mov	fp,zero
  801f48:	d9003915 	stw	r4,228(sp)
  801f4c:	04401e04 	movi	r17,120
  801f50:	003f6906 	br	801cf8 <__alt_data_end+0xff801cf8>
  801f54:	8025883a 	mov	r18,r16
  801f58:	dc002903 	ldbu	r16,164(sp)
  801f5c:	e011883a 	mov	r8,fp
  801f60:	84003fcc 	andi	r16,r16,255
  801f64:	8005081e 	bne	r16,zero,803388 <___vfprintf_internal_r+0x2290>
  801f68:	883d6126 	beq	r17,zero,8014f0 <__alt_data_end+0xff8014f0>
  801f6c:	00c00044 	movi	r3,1
  801f70:	d8c02915 	stw	r3,164(sp)
  801f74:	dc401405 	stb	r17,80(sp)
  801f78:	d8002785 	stb	zero,158(sp)
  801f7c:	003fe906 	br	801f24 <__alt_data_end+0xff801f24>
  801f80:	01402074 	movhi	r5,129
  801f84:	29402104 	addi	r5,r5,132
  801f88:	d9403915 	stw	r5,228(sp)
  801f8c:	d8c02e15 	stw	r3,184(sp)
  801f90:	1025883a 	mov	r18,r2
  801f94:	04401e04 	movi	r17,120
  801f98:	9d84b03a 	or	r2,r19,r22
  801f9c:	1000fc1e 	bne	r2,zero,802390 <___vfprintf_internal_r+0x1298>
  801fa0:	0039883a 	mov	fp,zero
  801fa4:	00800084 	movi	r2,2
  801fa8:	10803fcc 	andi	r2,r2,255
  801fac:	00c00044 	movi	r3,1
  801fb0:	10c20f26 	beq	r2,r3,8027f0 <___vfprintf_internal_r+0x16f8>
  801fb4:	00c00084 	movi	r3,2
  801fb8:	10fd3326 	beq	r2,r3,801488 <__alt_data_end+0xff801488>
  801fbc:	003e0b06 	br	8017ec <__alt_data_end+0xff8017ec>
  801fc0:	d8c02017 	ldw	r3,128(sp)
  801fc4:	003e7106 	br	80198c <__alt_data_end+0xff80198c>
  801fc8:	00801944 	movi	r2,101
  801fcc:	14407e0e 	bge	r2,r17,8021c8 <___vfprintf_internal_r+0x10d0>
  801fd0:	d9003617 	ldw	r4,216(sp)
  801fd4:	d9403817 	ldw	r5,224(sp)
  801fd8:	000d883a 	mov	r6,zero
  801fdc:	000f883a 	mov	r7,zero
  801fe0:	d8c03c15 	stw	r3,240(sp)
  801fe4:	da003d15 	stw	r8,244(sp)
  801fe8:	080c8a80 	call	80c8a8 <__eqdf2>
  801fec:	d8c03c17 	ldw	r3,240(sp)
  801ff0:	da003d17 	ldw	r8,244(sp)
  801ff4:	1000f71e 	bne	r2,zero,8023d4 <___vfprintf_internal_r+0x12dc>
  801ff8:	d8801f17 	ldw	r2,124(sp)
  801ffc:	01002074 	movhi	r4,129
  802000:	21002804 	addi	r4,r4,160
  802004:	18c00044 	addi	r3,r3,1
  802008:	10800044 	addi	r2,r2,1
  80200c:	41000015 	stw	r4,0(r8)
  802010:	01000044 	movi	r4,1
  802014:	41000115 	stw	r4,4(r8)
  802018:	d8c02015 	stw	r3,128(sp)
  80201c:	d8801f15 	stw	r2,124(sp)
  802020:	010001c4 	movi	r4,7
  802024:	2082b816 	blt	r4,r2,802b08 <___vfprintf_internal_r+0x1a10>
  802028:	42000204 	addi	r8,r8,8
  80202c:	d8802617 	ldw	r2,152(sp)
  802030:	d9403317 	ldw	r5,204(sp)
  802034:	11400216 	blt	r2,r5,802040 <___vfprintf_internal_r+0xf48>
  802038:	9080004c 	andi	r2,r18,1
  80203c:	103eb326 	beq	r2,zero,801b0c <__alt_data_end+0xff801b0c>
  802040:	d8803717 	ldw	r2,220(sp)
  802044:	d9003417 	ldw	r4,208(sp)
  802048:	d9403717 	ldw	r5,220(sp)
  80204c:	1887883a 	add	r3,r3,r2
  802050:	d8801f17 	ldw	r2,124(sp)
  802054:	41000015 	stw	r4,0(r8)
  802058:	41400115 	stw	r5,4(r8)
  80205c:	10800044 	addi	r2,r2,1
  802060:	d8c02015 	stw	r3,128(sp)
  802064:	d8801f15 	stw	r2,124(sp)
  802068:	010001c4 	movi	r4,7
  80206c:	20832916 	blt	r4,r2,802d14 <___vfprintf_internal_r+0x1c1c>
  802070:	42000204 	addi	r8,r8,8
  802074:	d8803317 	ldw	r2,204(sp)
  802078:	143fffc4 	addi	r16,r2,-1
  80207c:	043ea30e 	bge	zero,r16,801b0c <__alt_data_end+0xff801b0c>
  802080:	04400404 	movi	r17,16
  802084:	d8801f17 	ldw	r2,124(sp)
  802088:	8c00880e 	bge	r17,r16,8022ac <___vfprintf_internal_r+0x11b4>
  80208c:	01402074 	movhi	r5,129
  802090:	29402884 	addi	r5,r5,162
  802094:	d9402c15 	stw	r5,176(sp)
  802098:	058001c4 	movi	r22,7
  80209c:	dcc02d17 	ldw	r19,180(sp)
  8020a0:	00000306 	br	8020b0 <___vfprintf_internal_r+0xfb8>
  8020a4:	42000204 	addi	r8,r8,8
  8020a8:	843ffc04 	addi	r16,r16,-16
  8020ac:	8c00820e 	bge	r17,r16,8022b8 <___vfprintf_internal_r+0x11c0>
  8020b0:	18c00404 	addi	r3,r3,16
  8020b4:	10800044 	addi	r2,r2,1
  8020b8:	45000015 	stw	r20,0(r8)
  8020bc:	44400115 	stw	r17,4(r8)
  8020c0:	d8c02015 	stw	r3,128(sp)
  8020c4:	d8801f15 	stw	r2,124(sp)
  8020c8:	b0bff60e 	bge	r22,r2,8020a4 <__alt_data_end+0xff8020a4>
  8020cc:	d9801e04 	addi	r6,sp,120
  8020d0:	b80b883a 	mov	r5,r23
  8020d4:	9809883a 	mov	r4,r19
  8020d8:	0807de80 	call	807de8 <__sprint_r>
  8020dc:	103d0a1e 	bne	r2,zero,801508 <__alt_data_end+0xff801508>
  8020e0:	d8c02017 	ldw	r3,128(sp)
  8020e4:	d8801f17 	ldw	r2,124(sp)
  8020e8:	da000404 	addi	r8,sp,16
  8020ec:	003fee06 	br	8020a8 <__alt_data_end+0xff8020a8>
  8020f0:	d9403117 	ldw	r5,196(sp)
  8020f4:	d8802917 	ldw	r2,164(sp)
  8020f8:	28adc83a 	sub	r22,r5,r2
  8020fc:	05be410e 	bge	zero,r22,801a04 <__alt_data_end+0xff801a04>
  802100:	07000404 	movi	fp,16
  802104:	d8801f17 	ldw	r2,124(sp)
  802108:	e5838f0e 	bge	fp,r22,802f48 <___vfprintf_internal_r+0x1e50>
  80210c:	01402074 	movhi	r5,129
  802110:	29402884 	addi	r5,r5,162
  802114:	dc403015 	stw	r17,192(sp)
  802118:	d9402c15 	stw	r5,176(sp)
  80211c:	b023883a 	mov	r17,r22
  802120:	04c001c4 	movi	r19,7
  802124:	a82d883a 	mov	r22,r21
  802128:	902b883a 	mov	r21,r18
  80212c:	8025883a 	mov	r18,r16
  802130:	dc002d17 	ldw	r16,180(sp)
  802134:	00000306 	br	802144 <___vfprintf_internal_r+0x104c>
  802138:	8c7ffc04 	addi	r17,r17,-16
  80213c:	42000204 	addi	r8,r8,8
  802140:	e440110e 	bge	fp,r17,802188 <___vfprintf_internal_r+0x1090>
  802144:	18c00404 	addi	r3,r3,16
  802148:	10800044 	addi	r2,r2,1
  80214c:	45000015 	stw	r20,0(r8)
  802150:	47000115 	stw	fp,4(r8)
  802154:	d8c02015 	stw	r3,128(sp)
  802158:	d8801f15 	stw	r2,124(sp)
  80215c:	98bff60e 	bge	r19,r2,802138 <__alt_data_end+0xff802138>
  802160:	d9801e04 	addi	r6,sp,120
  802164:	b80b883a 	mov	r5,r23
  802168:	8009883a 	mov	r4,r16
  80216c:	0807de80 	call	807de8 <__sprint_r>
  802170:	103ce51e 	bne	r2,zero,801508 <__alt_data_end+0xff801508>
  802174:	8c7ffc04 	addi	r17,r17,-16
  802178:	d8c02017 	ldw	r3,128(sp)
  80217c:	d8801f17 	ldw	r2,124(sp)
  802180:	da000404 	addi	r8,sp,16
  802184:	e47fef16 	blt	fp,r17,802144 <__alt_data_end+0xff802144>
  802188:	9021883a 	mov	r16,r18
  80218c:	a825883a 	mov	r18,r21
  802190:	b02b883a 	mov	r21,r22
  802194:	882d883a 	mov	r22,r17
  802198:	dc403017 	ldw	r17,192(sp)
  80219c:	d9002c17 	ldw	r4,176(sp)
  8021a0:	1d87883a 	add	r3,r3,r22
  8021a4:	10800044 	addi	r2,r2,1
  8021a8:	41000015 	stw	r4,0(r8)
  8021ac:	45800115 	stw	r22,4(r8)
  8021b0:	d8c02015 	stw	r3,128(sp)
  8021b4:	d8801f15 	stw	r2,124(sp)
  8021b8:	010001c4 	movi	r4,7
  8021bc:	20818e16 	blt	r4,r2,8027f8 <___vfprintf_internal_r+0x1700>
  8021c0:	42000204 	addi	r8,r8,8
  8021c4:	003e0f06 	br	801a04 <__alt_data_end+0xff801a04>
  8021c8:	d9403317 	ldw	r5,204(sp)
  8021cc:	00800044 	movi	r2,1
  8021d0:	18c00044 	addi	r3,r3,1
  8021d4:	1141530e 	bge	r2,r5,802724 <___vfprintf_internal_r+0x162c>
  8021d8:	dc401f17 	ldw	r17,124(sp)
  8021dc:	00800044 	movi	r2,1
  8021e0:	40800115 	stw	r2,4(r8)
  8021e4:	8c400044 	addi	r17,r17,1
  8021e8:	44000015 	stw	r16,0(r8)
  8021ec:	d8c02015 	stw	r3,128(sp)
  8021f0:	dc401f15 	stw	r17,124(sp)
  8021f4:	008001c4 	movi	r2,7
  8021f8:	14416b16 	blt	r2,r17,8027a8 <___vfprintf_internal_r+0x16b0>
  8021fc:	42000204 	addi	r8,r8,8
  802200:	d8803717 	ldw	r2,220(sp)
  802204:	d9003417 	ldw	r4,208(sp)
  802208:	8c400044 	addi	r17,r17,1
  80220c:	10c7883a 	add	r3,r2,r3
  802210:	40800115 	stw	r2,4(r8)
  802214:	41000015 	stw	r4,0(r8)
  802218:	d8c02015 	stw	r3,128(sp)
  80221c:	dc401f15 	stw	r17,124(sp)
  802220:	008001c4 	movi	r2,7
  802224:	14416916 	blt	r2,r17,8027cc <___vfprintf_internal_r+0x16d4>
  802228:	45800204 	addi	r22,r8,8
  80222c:	d9003617 	ldw	r4,216(sp)
  802230:	d9403817 	ldw	r5,224(sp)
  802234:	000d883a 	mov	r6,zero
  802238:	000f883a 	mov	r7,zero
  80223c:	d8c03c15 	stw	r3,240(sp)
  802240:	080c8a80 	call	80c8a8 <__eqdf2>
  802244:	d8c03c17 	ldw	r3,240(sp)
  802248:	1000bc26 	beq	r2,zero,80253c <___vfprintf_internal_r+0x1444>
  80224c:	d9403317 	ldw	r5,204(sp)
  802250:	84000044 	addi	r16,r16,1
  802254:	8c400044 	addi	r17,r17,1
  802258:	28bfffc4 	addi	r2,r5,-1
  80225c:	1887883a 	add	r3,r3,r2
  802260:	b0800115 	stw	r2,4(r22)
  802264:	b4000015 	stw	r16,0(r22)
  802268:	d8c02015 	stw	r3,128(sp)
  80226c:	dc401f15 	stw	r17,124(sp)
  802270:	008001c4 	movi	r2,7
  802274:	14414316 	blt	r2,r17,802784 <___vfprintf_internal_r+0x168c>
  802278:	b5800204 	addi	r22,r22,8
  80227c:	d9003a17 	ldw	r4,232(sp)
  802280:	df0022c4 	addi	fp,sp,139
  802284:	8c400044 	addi	r17,r17,1
  802288:	20c7883a 	add	r3,r4,r3
  80228c:	b7000015 	stw	fp,0(r22)
  802290:	b1000115 	stw	r4,4(r22)
  802294:	d8c02015 	stw	r3,128(sp)
  802298:	dc401f15 	stw	r17,124(sp)
  80229c:	008001c4 	movi	r2,7
  8022a0:	14400e16 	blt	r2,r17,8022dc <___vfprintf_internal_r+0x11e4>
  8022a4:	b2000204 	addi	r8,r22,8
  8022a8:	003e1806 	br	801b0c <__alt_data_end+0xff801b0c>
  8022ac:	01002074 	movhi	r4,129
  8022b0:	21002884 	addi	r4,r4,162
  8022b4:	d9002c15 	stw	r4,176(sp)
  8022b8:	d9002c17 	ldw	r4,176(sp)
  8022bc:	1c07883a 	add	r3,r3,r16
  8022c0:	44000115 	stw	r16,4(r8)
  8022c4:	41000015 	stw	r4,0(r8)
  8022c8:	10800044 	addi	r2,r2,1
  8022cc:	d8c02015 	stw	r3,128(sp)
  8022d0:	d8801f15 	stw	r2,124(sp)
  8022d4:	010001c4 	movi	r4,7
  8022d8:	20be0b0e 	bge	r4,r2,801b08 <__alt_data_end+0xff801b08>
  8022dc:	d9002d17 	ldw	r4,180(sp)
  8022e0:	d9801e04 	addi	r6,sp,120
  8022e4:	b80b883a 	mov	r5,r23
  8022e8:	0807de80 	call	807de8 <__sprint_r>
  8022ec:	103c861e 	bne	r2,zero,801508 <__alt_data_end+0xff801508>
  8022f0:	d8c02017 	ldw	r3,128(sp)
  8022f4:	da000404 	addi	r8,sp,16
  8022f8:	003e0406 	br	801b0c <__alt_data_end+0xff801b0c>
  8022fc:	d9002d17 	ldw	r4,180(sp)
  802300:	d9801e04 	addi	r6,sp,120
  802304:	b80b883a 	mov	r5,r23
  802308:	0807de80 	call	807de8 <__sprint_r>
  80230c:	103e3b26 	beq	r2,zero,801bfc <__alt_data_end+0xff801bfc>
  802310:	003c7d06 	br	801508 <__alt_data_end+0xff801508>
  802314:	d9002d17 	ldw	r4,180(sp)
  802318:	d9801e04 	addi	r6,sp,120
  80231c:	b80b883a 	mov	r5,r23
  802320:	0807de80 	call	807de8 <__sprint_r>
  802324:	103c781e 	bne	r2,zero,801508 <__alt_data_end+0xff801508>
  802328:	d8c02017 	ldw	r3,128(sp)
  80232c:	da000404 	addi	r8,sp,16
  802330:	003de906 	br	801ad8 <__alt_data_end+0xff801ad8>
  802334:	d9002d17 	ldw	r4,180(sp)
  802338:	d9801e04 	addi	r6,sp,120
  80233c:	b80b883a 	mov	r5,r23
  802340:	0807de80 	call	807de8 <__sprint_r>
  802344:	103c701e 	bne	r2,zero,801508 <__alt_data_end+0xff801508>
  802348:	d8c02017 	ldw	r3,128(sp)
  80234c:	da000404 	addi	r8,sp,16
  802350:	003d9b06 	br	8019c0 <__alt_data_end+0xff8019c0>
  802354:	d9002d17 	ldw	r4,180(sp)
  802358:	d9801e04 	addi	r6,sp,120
  80235c:	b80b883a 	mov	r5,r23
  802360:	0807de80 	call	807de8 <__sprint_r>
  802364:	103c681e 	bne	r2,zero,801508 <__alt_data_end+0xff801508>
  802368:	d8c02017 	ldw	r3,128(sp)
  80236c:	da000404 	addi	r8,sp,16
  802370:	003da106 	br	8019f8 <__alt_data_end+0xff8019f8>
  802374:	d9402a17 	ldw	r5,168(sp)
  802378:	d8002785 	stb	zero,158(sp)
  80237c:	283f0616 	blt	r5,zero,801f98 <__alt_data_end+0xff801f98>
  802380:	00ffdfc4 	movi	r3,-129
  802384:	9d84b03a 	or	r2,r19,r22
  802388:	90e4703a 	and	r18,r18,r3
  80238c:	103c3b26 	beq	r2,zero,80147c <__alt_data_end+0xff80147c>
  802390:	0039883a 	mov	fp,zero
  802394:	003e5806 	br	801cf8 <__alt_data_end+0xff801cf8>
  802398:	9080040c 	andi	r2,r18,16
  80239c:	1001b326 	beq	r2,zero,802a6c <___vfprintf_internal_r+0x1974>
  8023a0:	d8c02e17 	ldw	r3,184(sp)
  8023a4:	d9002a17 	ldw	r4,168(sp)
  8023a8:	d8002785 	stb	zero,158(sp)
  8023ac:	18800104 	addi	r2,r3,4
  8023b0:	1cc00017 	ldw	r19,0(r3)
  8023b4:	002d883a 	mov	r22,zero
  8023b8:	2001b516 	blt	r4,zero,802a90 <___vfprintf_internal_r+0x1998>
  8023bc:	00ffdfc4 	movi	r3,-129
  8023c0:	d8802e15 	stw	r2,184(sp)
  8023c4:	90e4703a 	and	r18,r18,r3
  8023c8:	983d0526 	beq	r19,zero,8017e0 <__alt_data_end+0xff8017e0>
  8023cc:	0039883a 	mov	fp,zero
  8023d0:	003d0806 	br	8017f4 <__alt_data_end+0xff8017f4>
  8023d4:	dc402617 	ldw	r17,152(sp)
  8023d8:	0441d30e 	bge	zero,r17,802b28 <___vfprintf_internal_r+0x1a30>
  8023dc:	dc403217 	ldw	r17,200(sp)
  8023e0:	d8803317 	ldw	r2,204(sp)
  8023e4:	1440010e 	bge	r2,r17,8023ec <___vfprintf_internal_r+0x12f4>
  8023e8:	1023883a 	mov	r17,r2
  8023ec:	04400a0e 	bge	zero,r17,802418 <___vfprintf_internal_r+0x1320>
  8023f0:	d8801f17 	ldw	r2,124(sp)
  8023f4:	1c47883a 	add	r3,r3,r17
  8023f8:	44000015 	stw	r16,0(r8)
  8023fc:	10800044 	addi	r2,r2,1
  802400:	44400115 	stw	r17,4(r8)
  802404:	d8c02015 	stw	r3,128(sp)
  802408:	d8801f15 	stw	r2,124(sp)
  80240c:	010001c4 	movi	r4,7
  802410:	20826516 	blt	r4,r2,802da8 <___vfprintf_internal_r+0x1cb0>
  802414:	42000204 	addi	r8,r8,8
  802418:	88026116 	blt	r17,zero,802da0 <___vfprintf_internal_r+0x1ca8>
  80241c:	d9003217 	ldw	r4,200(sp)
  802420:	2463c83a 	sub	r17,r4,r17
  802424:	04407b0e 	bge	zero,r17,802614 <___vfprintf_internal_r+0x151c>
  802428:	05800404 	movi	r22,16
  80242c:	d8801f17 	ldw	r2,124(sp)
  802430:	b4419d0e 	bge	r22,r17,802aa8 <___vfprintf_internal_r+0x19b0>
  802434:	01002074 	movhi	r4,129
  802438:	21002884 	addi	r4,r4,162
  80243c:	d9002c15 	stw	r4,176(sp)
  802440:	070001c4 	movi	fp,7
  802444:	dcc02d17 	ldw	r19,180(sp)
  802448:	00000306 	br	802458 <___vfprintf_internal_r+0x1360>
  80244c:	42000204 	addi	r8,r8,8
  802450:	8c7ffc04 	addi	r17,r17,-16
  802454:	b441970e 	bge	r22,r17,802ab4 <___vfprintf_internal_r+0x19bc>
  802458:	18c00404 	addi	r3,r3,16
  80245c:	10800044 	addi	r2,r2,1
  802460:	45000015 	stw	r20,0(r8)
  802464:	45800115 	stw	r22,4(r8)
  802468:	d8c02015 	stw	r3,128(sp)
  80246c:	d8801f15 	stw	r2,124(sp)
  802470:	e0bff60e 	bge	fp,r2,80244c <__alt_data_end+0xff80244c>
  802474:	d9801e04 	addi	r6,sp,120
  802478:	b80b883a 	mov	r5,r23
  80247c:	9809883a 	mov	r4,r19
  802480:	0807de80 	call	807de8 <__sprint_r>
  802484:	103c201e 	bne	r2,zero,801508 <__alt_data_end+0xff801508>
  802488:	d8c02017 	ldw	r3,128(sp)
  80248c:	d8801f17 	ldw	r2,124(sp)
  802490:	da000404 	addi	r8,sp,16
  802494:	003fee06 	br	802450 <__alt_data_end+0xff802450>
  802498:	d9002d17 	ldw	r4,180(sp)
  80249c:	d9801e04 	addi	r6,sp,120
  8024a0:	b80b883a 	mov	r5,r23
  8024a4:	0807de80 	call	807de8 <__sprint_r>
  8024a8:	103c171e 	bne	r2,zero,801508 <__alt_data_end+0xff801508>
  8024ac:	d8c02017 	ldw	r3,128(sp)
  8024b0:	df002787 	ldb	fp,158(sp)
  8024b4:	da000404 	addi	r8,sp,16
  8024b8:	003d3406 	br	80198c <__alt_data_end+0xff80198c>
  8024bc:	9080040c 	andi	r2,r18,16
  8024c0:	10016126 	beq	r2,zero,802a48 <___vfprintf_internal_r+0x1950>
  8024c4:	d9402e17 	ldw	r5,184(sp)
  8024c8:	2cc00017 	ldw	r19,0(r5)
  8024cc:	29400104 	addi	r5,r5,4
  8024d0:	d9402e15 	stw	r5,184(sp)
  8024d4:	982dd7fa 	srai	r22,r19,31
  8024d8:	b005883a 	mov	r2,r22
  8024dc:	003c5a06 	br	801648 <__alt_data_end+0xff801648>
  8024e0:	9080040c 	andi	r2,r18,16
  8024e4:	10003526 	beq	r2,zero,8025bc <___vfprintf_internal_r+0x14c4>
  8024e8:	d8c02e17 	ldw	r3,184(sp)
  8024ec:	d9002a17 	ldw	r4,168(sp)
  8024f0:	d8002785 	stb	zero,158(sp)
  8024f4:	18800104 	addi	r2,r3,4
  8024f8:	1cc00017 	ldw	r19,0(r3)
  8024fc:	002d883a 	mov	r22,zero
  802500:	20003716 	blt	r4,zero,8025e0 <___vfprintf_internal_r+0x14e8>
  802504:	00ffdfc4 	movi	r3,-129
  802508:	d8802e15 	stw	r2,184(sp)
  80250c:	90e4703a 	and	r18,r18,r3
  802510:	0039883a 	mov	fp,zero
  802514:	983dd426 	beq	r19,zero,801c68 <__alt_data_end+0xff801c68>
  802518:	00800244 	movi	r2,9
  80251c:	14fc5336 	bltu	r2,r19,80166c <__alt_data_end+0xff80166c>
  802520:	d8c02817 	ldw	r3,160(sp)
  802524:	dc001dc4 	addi	r16,sp,119
  802528:	9cc00c04 	addi	r19,r19,48
  80252c:	1c07c83a 	sub	r3,r3,r16
  802530:	dcc01dc5 	stb	r19,119(sp)
  802534:	d8c02b15 	stw	r3,172(sp)
  802538:	003cc606 	br	801854 <__alt_data_end+0xff801854>
  80253c:	d8803317 	ldw	r2,204(sp)
  802540:	143fffc4 	addi	r16,r2,-1
  802544:	043f4d0e 	bge	zero,r16,80227c <__alt_data_end+0xff80227c>
  802548:	07000404 	movi	fp,16
  80254c:	e400810e 	bge	fp,r16,802754 <___vfprintf_internal_r+0x165c>
  802550:	01402074 	movhi	r5,129
  802554:	29402884 	addi	r5,r5,162
  802558:	d9402c15 	stw	r5,176(sp)
  80255c:	01c001c4 	movi	r7,7
  802560:	dcc02d17 	ldw	r19,180(sp)
  802564:	00000306 	br	802574 <___vfprintf_internal_r+0x147c>
  802568:	b5800204 	addi	r22,r22,8
  80256c:	843ffc04 	addi	r16,r16,-16
  802570:	e4007b0e 	bge	fp,r16,802760 <___vfprintf_internal_r+0x1668>
  802574:	18c00404 	addi	r3,r3,16
  802578:	8c400044 	addi	r17,r17,1
  80257c:	b5000015 	stw	r20,0(r22)
  802580:	b7000115 	stw	fp,4(r22)
  802584:	d8c02015 	stw	r3,128(sp)
  802588:	dc401f15 	stw	r17,124(sp)
  80258c:	3c7ff60e 	bge	r7,r17,802568 <__alt_data_end+0xff802568>
  802590:	d9801e04 	addi	r6,sp,120
  802594:	b80b883a 	mov	r5,r23
  802598:	9809883a 	mov	r4,r19
  80259c:	d9c03c15 	stw	r7,240(sp)
  8025a0:	0807de80 	call	807de8 <__sprint_r>
  8025a4:	d9c03c17 	ldw	r7,240(sp)
  8025a8:	103bd71e 	bne	r2,zero,801508 <__alt_data_end+0xff801508>
  8025ac:	d8c02017 	ldw	r3,128(sp)
  8025b0:	dc401f17 	ldw	r17,124(sp)
  8025b4:	dd800404 	addi	r22,sp,16
  8025b8:	003fec06 	br	80256c <__alt_data_end+0xff80256c>
  8025bc:	9080100c 	andi	r2,r18,64
  8025c0:	d8002785 	stb	zero,158(sp)
  8025c4:	10010e26 	beq	r2,zero,802a00 <___vfprintf_internal_r+0x1908>
  8025c8:	d9402e17 	ldw	r5,184(sp)
  8025cc:	d8c02a17 	ldw	r3,168(sp)
  8025d0:	002d883a 	mov	r22,zero
  8025d4:	28800104 	addi	r2,r5,4
  8025d8:	2cc0000b 	ldhu	r19,0(r5)
  8025dc:	183fc90e 	bge	r3,zero,802504 <__alt_data_end+0xff802504>
  8025e0:	d8802e15 	stw	r2,184(sp)
  8025e4:	0039883a 	mov	fp,zero
  8025e8:	9d84b03a 	or	r2,r19,r22
  8025ec:	103c1e1e 	bne	r2,zero,801668 <__alt_data_end+0xff801668>
  8025f0:	00800044 	movi	r2,1
  8025f4:	003e6c06 	br	801fa8 <__alt_data_end+0xff801fa8>
  8025f8:	d9002d17 	ldw	r4,180(sp)
  8025fc:	d9801e04 	addi	r6,sp,120
  802600:	b80b883a 	mov	r5,r23
  802604:	0807de80 	call	807de8 <__sprint_r>
  802608:	103bbf1e 	bne	r2,zero,801508 <__alt_data_end+0xff801508>
  80260c:	d8c02017 	ldw	r3,128(sp)
  802610:	da000404 	addi	r8,sp,16
  802614:	d9003217 	ldw	r4,200(sp)
  802618:	d8802617 	ldw	r2,152(sp)
  80261c:	d9403317 	ldw	r5,204(sp)
  802620:	8123883a 	add	r17,r16,r4
  802624:	11400216 	blt	r2,r5,802630 <___vfprintf_internal_r+0x1538>
  802628:	9100004c 	andi	r4,r18,1
  80262c:	20000d26 	beq	r4,zero,802664 <___vfprintf_internal_r+0x156c>
  802630:	d9003717 	ldw	r4,220(sp)
  802634:	d9403417 	ldw	r5,208(sp)
  802638:	1907883a 	add	r3,r3,r4
  80263c:	d9001f17 	ldw	r4,124(sp)
  802640:	41400015 	stw	r5,0(r8)
  802644:	d9403717 	ldw	r5,220(sp)
  802648:	21000044 	addi	r4,r4,1
  80264c:	d8c02015 	stw	r3,128(sp)
  802650:	41400115 	stw	r5,4(r8)
  802654:	d9001f15 	stw	r4,124(sp)
  802658:	014001c4 	movi	r5,7
  80265c:	2901e816 	blt	r5,r4,802e00 <___vfprintf_internal_r+0x1d08>
  802660:	42000204 	addi	r8,r8,8
  802664:	d9003317 	ldw	r4,204(sp)
  802668:	8121883a 	add	r16,r16,r4
  80266c:	2085c83a 	sub	r2,r4,r2
  802670:	8461c83a 	sub	r16,r16,r17
  802674:	1400010e 	bge	r2,r16,80267c <___vfprintf_internal_r+0x1584>
  802678:	1021883a 	mov	r16,r2
  80267c:	04000a0e 	bge	zero,r16,8026a8 <___vfprintf_internal_r+0x15b0>
  802680:	d9001f17 	ldw	r4,124(sp)
  802684:	1c07883a 	add	r3,r3,r16
  802688:	44400015 	stw	r17,0(r8)
  80268c:	21000044 	addi	r4,r4,1
  802690:	44000115 	stw	r16,4(r8)
  802694:	d8c02015 	stw	r3,128(sp)
  802698:	d9001f15 	stw	r4,124(sp)
  80269c:	014001c4 	movi	r5,7
  8026a0:	2901fb16 	blt	r5,r4,802e90 <___vfprintf_internal_r+0x1d98>
  8026a4:	42000204 	addi	r8,r8,8
  8026a8:	8001f716 	blt	r16,zero,802e88 <___vfprintf_internal_r+0x1d90>
  8026ac:	1421c83a 	sub	r16,r2,r16
  8026b0:	043d160e 	bge	zero,r16,801b0c <__alt_data_end+0xff801b0c>
  8026b4:	04400404 	movi	r17,16
  8026b8:	d8801f17 	ldw	r2,124(sp)
  8026bc:	8c3efb0e 	bge	r17,r16,8022ac <__alt_data_end+0xff8022ac>
  8026c0:	01402074 	movhi	r5,129
  8026c4:	29402884 	addi	r5,r5,162
  8026c8:	d9402c15 	stw	r5,176(sp)
  8026cc:	058001c4 	movi	r22,7
  8026d0:	dcc02d17 	ldw	r19,180(sp)
  8026d4:	00000306 	br	8026e4 <___vfprintf_internal_r+0x15ec>
  8026d8:	42000204 	addi	r8,r8,8
  8026dc:	843ffc04 	addi	r16,r16,-16
  8026e0:	8c3ef50e 	bge	r17,r16,8022b8 <__alt_data_end+0xff8022b8>
  8026e4:	18c00404 	addi	r3,r3,16
  8026e8:	10800044 	addi	r2,r2,1
  8026ec:	45000015 	stw	r20,0(r8)
  8026f0:	44400115 	stw	r17,4(r8)
  8026f4:	d8c02015 	stw	r3,128(sp)
  8026f8:	d8801f15 	stw	r2,124(sp)
  8026fc:	b0bff60e 	bge	r22,r2,8026d8 <__alt_data_end+0xff8026d8>
  802700:	d9801e04 	addi	r6,sp,120
  802704:	b80b883a 	mov	r5,r23
  802708:	9809883a 	mov	r4,r19
  80270c:	0807de80 	call	807de8 <__sprint_r>
  802710:	103b7d1e 	bne	r2,zero,801508 <__alt_data_end+0xff801508>
  802714:	d8c02017 	ldw	r3,128(sp)
  802718:	d8801f17 	ldw	r2,124(sp)
  80271c:	da000404 	addi	r8,sp,16
  802720:	003fee06 	br	8026dc <__alt_data_end+0xff8026dc>
  802724:	9088703a 	and	r4,r18,r2
  802728:	203eab1e 	bne	r4,zero,8021d8 <__alt_data_end+0xff8021d8>
  80272c:	dc401f17 	ldw	r17,124(sp)
  802730:	40800115 	stw	r2,4(r8)
  802734:	44000015 	stw	r16,0(r8)
  802738:	8c400044 	addi	r17,r17,1
  80273c:	d8c02015 	stw	r3,128(sp)
  802740:	dc401f15 	stw	r17,124(sp)
  802744:	008001c4 	movi	r2,7
  802748:	14400e16 	blt	r2,r17,802784 <___vfprintf_internal_r+0x168c>
  80274c:	45800204 	addi	r22,r8,8
  802750:	003eca06 	br	80227c <__alt_data_end+0xff80227c>
  802754:	01002074 	movhi	r4,129
  802758:	21002884 	addi	r4,r4,162
  80275c:	d9002c15 	stw	r4,176(sp)
  802760:	d8802c17 	ldw	r2,176(sp)
  802764:	1c07883a 	add	r3,r3,r16
  802768:	8c400044 	addi	r17,r17,1
  80276c:	b0800015 	stw	r2,0(r22)
  802770:	b4000115 	stw	r16,4(r22)
  802774:	d8c02015 	stw	r3,128(sp)
  802778:	dc401f15 	stw	r17,124(sp)
  80277c:	008001c4 	movi	r2,7
  802780:	147ebd0e 	bge	r2,r17,802278 <__alt_data_end+0xff802278>
  802784:	d9002d17 	ldw	r4,180(sp)
  802788:	d9801e04 	addi	r6,sp,120
  80278c:	b80b883a 	mov	r5,r23
  802790:	0807de80 	call	807de8 <__sprint_r>
  802794:	103b5c1e 	bne	r2,zero,801508 <__alt_data_end+0xff801508>
  802798:	d8c02017 	ldw	r3,128(sp)
  80279c:	dc401f17 	ldw	r17,124(sp)
  8027a0:	dd800404 	addi	r22,sp,16
  8027a4:	003eb506 	br	80227c <__alt_data_end+0xff80227c>
  8027a8:	d9002d17 	ldw	r4,180(sp)
  8027ac:	d9801e04 	addi	r6,sp,120
  8027b0:	b80b883a 	mov	r5,r23
  8027b4:	0807de80 	call	807de8 <__sprint_r>
  8027b8:	103b531e 	bne	r2,zero,801508 <__alt_data_end+0xff801508>
  8027bc:	d8c02017 	ldw	r3,128(sp)
  8027c0:	dc401f17 	ldw	r17,124(sp)
  8027c4:	da000404 	addi	r8,sp,16
  8027c8:	003e8d06 	br	802200 <__alt_data_end+0xff802200>
  8027cc:	d9002d17 	ldw	r4,180(sp)
  8027d0:	d9801e04 	addi	r6,sp,120
  8027d4:	b80b883a 	mov	r5,r23
  8027d8:	0807de80 	call	807de8 <__sprint_r>
  8027dc:	103b4a1e 	bne	r2,zero,801508 <__alt_data_end+0xff801508>
  8027e0:	d8c02017 	ldw	r3,128(sp)
  8027e4:	dc401f17 	ldw	r17,124(sp)
  8027e8:	dd800404 	addi	r22,sp,16
  8027ec:	003e8f06 	br	80222c <__alt_data_end+0xff80222c>
  8027f0:	0027883a 	mov	r19,zero
  8027f4:	003f4a06 	br	802520 <__alt_data_end+0xff802520>
  8027f8:	d9002d17 	ldw	r4,180(sp)
  8027fc:	d9801e04 	addi	r6,sp,120
  802800:	b80b883a 	mov	r5,r23
  802804:	0807de80 	call	807de8 <__sprint_r>
  802808:	103b3f1e 	bne	r2,zero,801508 <__alt_data_end+0xff801508>
  80280c:	d8c02017 	ldw	r3,128(sp)
  802810:	da000404 	addi	r8,sp,16
  802814:	003c7b06 	br	801a04 <__alt_data_end+0xff801a04>
  802818:	d9402a17 	ldw	r5,168(sp)
  80281c:	04e7c83a 	sub	r19,zero,r19
  802820:	07000b44 	movi	fp,45
  802824:	9804c03a 	cmpne	r2,r19,zero
  802828:	05adc83a 	sub	r22,zero,r22
  80282c:	df002785 	stb	fp,158(sp)
  802830:	b0adc83a 	sub	r22,r22,r2
  802834:	28017b16 	blt	r5,zero,802e24 <___vfprintf_internal_r+0x1d2c>
  802838:	00bfdfc4 	movi	r2,-129
  80283c:	90a4703a 	and	r18,r18,r2
  802840:	003b8906 	br	801668 <__alt_data_end+0xff801668>
  802844:	d9003617 	ldw	r4,216(sp)
  802848:	d9403817 	ldw	r5,224(sp)
  80284c:	da003d15 	stw	r8,244(sp)
  802850:	08079740 	call	807974 <__fpclassifyd>
  802854:	da003d17 	ldw	r8,244(sp)
  802858:	1000f026 	beq	r2,zero,802c1c <___vfprintf_internal_r+0x1b24>
  80285c:	d9002a17 	ldw	r4,168(sp)
  802860:	05bff7c4 	movi	r22,-33
  802864:	00bfffc4 	movi	r2,-1
  802868:	8dac703a 	and	r22,r17,r22
  80286c:	20820026 	beq	r4,r2,803070 <___vfprintf_internal_r+0x1f78>
  802870:	008011c4 	movi	r2,71
  802874:	b081f726 	beq	r22,r2,803054 <___vfprintf_internal_r+0x1f5c>
  802878:	d9003817 	ldw	r4,224(sp)
  80287c:	90c04014 	ori	r3,r18,256
  802880:	d8c02c15 	stw	r3,176(sp)
  802884:	20021516 	blt	r4,zero,8030dc <___vfprintf_internal_r+0x1fe4>
  802888:	dcc03817 	ldw	r19,224(sp)
  80288c:	d8002905 	stb	zero,164(sp)
  802890:	00801984 	movi	r2,102
  802894:	8881f926 	beq	r17,r2,80307c <___vfprintf_internal_r+0x1f84>
  802898:	00801184 	movi	r2,70
  80289c:	88821c26 	beq	r17,r2,803110 <___vfprintf_internal_r+0x2018>
  8028a0:	00801144 	movi	r2,69
  8028a4:	b081ef26 	beq	r22,r2,803064 <___vfprintf_internal_r+0x1f6c>
  8028a8:	d8c02a17 	ldw	r3,168(sp)
  8028ac:	d8802104 	addi	r2,sp,132
  8028b0:	d8800315 	stw	r2,12(sp)
  8028b4:	d9403617 	ldw	r5,216(sp)
  8028b8:	d8802504 	addi	r2,sp,148
  8028bc:	d9002d17 	ldw	r4,180(sp)
  8028c0:	d8800215 	stw	r2,8(sp)
  8028c4:	d8802604 	addi	r2,sp,152
  8028c8:	d8c00015 	stw	r3,0(sp)
  8028cc:	d8800115 	stw	r2,4(sp)
  8028d0:	01c00084 	movi	r7,2
  8028d4:	980d883a 	mov	r6,r19
  8028d8:	d8c03c15 	stw	r3,240(sp)
  8028dc:	da003d15 	stw	r8,244(sp)
  8028e0:	08038280 	call	803828 <_dtoa_r>
  8028e4:	1021883a 	mov	r16,r2
  8028e8:	008019c4 	movi	r2,103
  8028ec:	d8c03c17 	ldw	r3,240(sp)
  8028f0:	da003d17 	ldw	r8,244(sp)
  8028f4:	88817126 	beq	r17,r2,802ebc <___vfprintf_internal_r+0x1dc4>
  8028f8:	008011c4 	movi	r2,71
  8028fc:	88829126 	beq	r17,r2,803344 <___vfprintf_internal_r+0x224c>
  802900:	80f9883a 	add	fp,r16,r3
  802904:	d9003617 	ldw	r4,216(sp)
  802908:	000d883a 	mov	r6,zero
  80290c:	000f883a 	mov	r7,zero
  802910:	980b883a 	mov	r5,r19
  802914:	da003d15 	stw	r8,244(sp)
  802918:	080c8a80 	call	80c8a8 <__eqdf2>
  80291c:	da003d17 	ldw	r8,244(sp)
  802920:	10018d26 	beq	r2,zero,802f58 <___vfprintf_internal_r+0x1e60>
  802924:	d8802117 	ldw	r2,132(sp)
  802928:	1700062e 	bgeu	r2,fp,802944 <___vfprintf_internal_r+0x184c>
  80292c:	01000c04 	movi	r4,48
  802930:	10c00044 	addi	r3,r2,1
  802934:	d8c02115 	stw	r3,132(sp)
  802938:	11000005 	stb	r4,0(r2)
  80293c:	d8802117 	ldw	r2,132(sp)
  802940:	173ffb36 	bltu	r2,fp,802930 <__alt_data_end+0xff802930>
  802944:	1405c83a 	sub	r2,r2,r16
  802948:	d8803315 	stw	r2,204(sp)
  80294c:	008011c4 	movi	r2,71
  802950:	b0817626 	beq	r22,r2,802f2c <___vfprintf_internal_r+0x1e34>
  802954:	00801944 	movi	r2,101
  802958:	1442800e 	bge	r2,r17,80335c <___vfprintf_internal_r+0x2264>
  80295c:	d8c02617 	ldw	r3,152(sp)
  802960:	00801984 	movi	r2,102
  802964:	d8c03215 	stw	r3,200(sp)
  802968:	8881fe26 	beq	r17,r2,803164 <___vfprintf_internal_r+0x206c>
  80296c:	d8c03217 	ldw	r3,200(sp)
  802970:	d9003317 	ldw	r4,204(sp)
  802974:	1901dd16 	blt	r3,r4,8030ec <___vfprintf_internal_r+0x1ff4>
  802978:	9480004c 	andi	r18,r18,1
  80297c:	90022b1e 	bne	r18,zero,80322c <___vfprintf_internal_r+0x2134>
  802980:	1805883a 	mov	r2,r3
  802984:	18028316 	blt	r3,zero,803394 <___vfprintf_internal_r+0x229c>
  802988:	d8c03217 	ldw	r3,200(sp)
  80298c:	044019c4 	movi	r17,103
  802990:	d8c02b15 	stw	r3,172(sp)
  802994:	df002907 	ldb	fp,164(sp)
  802998:	e001531e 	bne	fp,zero,802ee8 <___vfprintf_internal_r+0x1df0>
  80299c:	df002783 	ldbu	fp,158(sp)
  8029a0:	d8802915 	stw	r2,164(sp)
  8029a4:	dc802c17 	ldw	r18,176(sp)
  8029a8:	d8002a15 	stw	zero,168(sp)
  8029ac:	003baf06 	br	80186c <__alt_data_end+0xff80186c>
  8029b0:	d8c02e17 	ldw	r3,184(sp)
  8029b4:	d9002e17 	ldw	r4,184(sp)
  8029b8:	d9402e17 	ldw	r5,184(sp)
  8029bc:	18c00017 	ldw	r3,0(r3)
  8029c0:	21000117 	ldw	r4,4(r4)
  8029c4:	29400204 	addi	r5,r5,8
  8029c8:	d8c03615 	stw	r3,216(sp)
  8029cc:	d9003815 	stw	r4,224(sp)
  8029d0:	d9402e15 	stw	r5,184(sp)
  8029d4:	003b5006 	br	801718 <__alt_data_end+0xff801718>
  8029d8:	ac400007 	ldb	r17,0(r21)
  8029dc:	003a2806 	br	801280 <__alt_data_end+0xff801280>
  8029e0:	9080100c 	andi	r2,r18,64
  8029e4:	1000a826 	beq	r2,zero,802c88 <___vfprintf_internal_r+0x1b90>
  8029e8:	d8c02e17 	ldw	r3,184(sp)
  8029ec:	002d883a 	mov	r22,zero
  8029f0:	1cc0000b 	ldhu	r19,0(r3)
  8029f4:	18c00104 	addi	r3,r3,4
  8029f8:	d8c02e15 	stw	r3,184(sp)
  8029fc:	003caf06 	br	801cbc <__alt_data_end+0xff801cbc>
  802a00:	d9002e17 	ldw	r4,184(sp)
  802a04:	d9402a17 	ldw	r5,168(sp)
  802a08:	002d883a 	mov	r22,zero
  802a0c:	20800104 	addi	r2,r4,4
  802a10:	24c00017 	ldw	r19,0(r4)
  802a14:	283ebb0e 	bge	r5,zero,802504 <__alt_data_end+0xff802504>
  802a18:	003ef106 	br	8025e0 <__alt_data_end+0xff8025e0>
  802a1c:	9080040c 	andi	r2,r18,16
  802a20:	1000921e 	bne	r2,zero,802c6c <___vfprintf_internal_r+0x1b74>
  802a24:	9480100c 	andi	r18,r18,64
  802a28:	90013926 	beq	r18,zero,802f10 <___vfprintf_internal_r+0x1e18>
  802a2c:	d9402e17 	ldw	r5,184(sp)
  802a30:	d8c02f17 	ldw	r3,188(sp)
  802a34:	28800017 	ldw	r2,0(r5)
  802a38:	29400104 	addi	r5,r5,4
  802a3c:	d9402e15 	stw	r5,184(sp)
  802a40:	10c0000d 	sth	r3,0(r2)
  802a44:	0039e406 	br	8011d8 <__alt_data_end+0xff8011d8>
  802a48:	9080100c 	andi	r2,r18,64
  802a4c:	10008026 	beq	r2,zero,802c50 <___vfprintf_internal_r+0x1b58>
  802a50:	d8802e17 	ldw	r2,184(sp)
  802a54:	14c0000f 	ldh	r19,0(r2)
  802a58:	10800104 	addi	r2,r2,4
  802a5c:	d8802e15 	stw	r2,184(sp)
  802a60:	982dd7fa 	srai	r22,r19,31
  802a64:	b005883a 	mov	r2,r22
  802a68:	003af706 	br	801648 <__alt_data_end+0xff801648>
  802a6c:	9080100c 	andi	r2,r18,64
  802a70:	d8002785 	stb	zero,158(sp)
  802a74:	10008a1e 	bne	r2,zero,802ca0 <___vfprintf_internal_r+0x1ba8>
  802a78:	d9002e17 	ldw	r4,184(sp)
  802a7c:	d9402a17 	ldw	r5,168(sp)
  802a80:	002d883a 	mov	r22,zero
  802a84:	20800104 	addi	r2,r4,4
  802a88:	24c00017 	ldw	r19,0(r4)
  802a8c:	283e4b0e 	bge	r5,zero,8023bc <__alt_data_end+0xff8023bc>
  802a90:	9d86b03a 	or	r3,r19,r22
  802a94:	d8802e15 	stw	r2,184(sp)
  802a98:	183e4c1e 	bne	r3,zero,8023cc <__alt_data_end+0xff8023cc>
  802a9c:	0039883a 	mov	fp,zero
  802aa0:	0005883a 	mov	r2,zero
  802aa4:	003d4006 	br	801fa8 <__alt_data_end+0xff801fa8>
  802aa8:	01402074 	movhi	r5,129
  802aac:	29402884 	addi	r5,r5,162
  802ab0:	d9402c15 	stw	r5,176(sp)
  802ab4:	d9402c17 	ldw	r5,176(sp)
  802ab8:	1c47883a 	add	r3,r3,r17
  802abc:	10800044 	addi	r2,r2,1
  802ac0:	41400015 	stw	r5,0(r8)
  802ac4:	44400115 	stw	r17,4(r8)
  802ac8:	d8c02015 	stw	r3,128(sp)
  802acc:	d8801f15 	stw	r2,124(sp)
  802ad0:	010001c4 	movi	r4,7
  802ad4:	20bec816 	blt	r4,r2,8025f8 <__alt_data_end+0xff8025f8>
  802ad8:	42000204 	addi	r8,r8,8
  802adc:	003ecd06 	br	802614 <__alt_data_end+0xff802614>
  802ae0:	d9002a17 	ldw	r4,168(sp)
  802ae4:	d8002785 	stb	zero,158(sp)
  802ae8:	203d2d16 	blt	r4,zero,801fa0 <__alt_data_end+0xff801fa0>
  802aec:	00bfdfc4 	movi	r2,-129
  802af0:	90a4703a 	and	r18,r18,r2
  802af4:	003a6106 	br	80147c <__alt_data_end+0xff80147c>
  802af8:	01002074 	movhi	r4,129
  802afc:	21002884 	addi	r4,r4,162
  802b00:	d9002c15 	stw	r4,176(sp)
  802b04:	003bea06 	br	801ab0 <__alt_data_end+0xff801ab0>
  802b08:	d9002d17 	ldw	r4,180(sp)
  802b0c:	d9801e04 	addi	r6,sp,120
  802b10:	b80b883a 	mov	r5,r23
  802b14:	0807de80 	call	807de8 <__sprint_r>
  802b18:	103a7b1e 	bne	r2,zero,801508 <__alt_data_end+0xff801508>
  802b1c:	d8c02017 	ldw	r3,128(sp)
  802b20:	da000404 	addi	r8,sp,16
  802b24:	003d4106 	br	80202c <__alt_data_end+0xff80202c>
  802b28:	d8801f17 	ldw	r2,124(sp)
  802b2c:	01402074 	movhi	r5,129
  802b30:	01000044 	movi	r4,1
  802b34:	18c00044 	addi	r3,r3,1
  802b38:	10800044 	addi	r2,r2,1
  802b3c:	29402804 	addi	r5,r5,160
  802b40:	41000115 	stw	r4,4(r8)
  802b44:	41400015 	stw	r5,0(r8)
  802b48:	d8c02015 	stw	r3,128(sp)
  802b4c:	d8801f15 	stw	r2,124(sp)
  802b50:	010001c4 	movi	r4,7
  802b54:	20805c16 	blt	r4,r2,802cc8 <___vfprintf_internal_r+0x1bd0>
  802b58:	42000204 	addi	r8,r8,8
  802b5c:	8800041e 	bne	r17,zero,802b70 <___vfprintf_internal_r+0x1a78>
  802b60:	d8803317 	ldw	r2,204(sp)
  802b64:	1000021e 	bne	r2,zero,802b70 <___vfprintf_internal_r+0x1a78>
  802b68:	9080004c 	andi	r2,r18,1
  802b6c:	103be726 	beq	r2,zero,801b0c <__alt_data_end+0xff801b0c>
  802b70:	d9003717 	ldw	r4,220(sp)
  802b74:	d8801f17 	ldw	r2,124(sp)
  802b78:	d9403417 	ldw	r5,208(sp)
  802b7c:	20c7883a 	add	r3,r4,r3
  802b80:	10800044 	addi	r2,r2,1
  802b84:	41000115 	stw	r4,4(r8)
  802b88:	41400015 	stw	r5,0(r8)
  802b8c:	d8c02015 	stw	r3,128(sp)
  802b90:	d8801f15 	stw	r2,124(sp)
  802b94:	010001c4 	movi	r4,7
  802b98:	20812116 	blt	r4,r2,803020 <___vfprintf_internal_r+0x1f28>
  802b9c:	42000204 	addi	r8,r8,8
  802ba0:	0463c83a 	sub	r17,zero,r17
  802ba4:	0440730e 	bge	zero,r17,802d74 <___vfprintf_internal_r+0x1c7c>
  802ba8:	05800404 	movi	r22,16
  802bac:	b440860e 	bge	r22,r17,802dc8 <___vfprintf_internal_r+0x1cd0>
  802bb0:	01402074 	movhi	r5,129
  802bb4:	29402884 	addi	r5,r5,162
  802bb8:	d9402c15 	stw	r5,176(sp)
  802bbc:	070001c4 	movi	fp,7
  802bc0:	dcc02d17 	ldw	r19,180(sp)
  802bc4:	00000306 	br	802bd4 <___vfprintf_internal_r+0x1adc>
  802bc8:	42000204 	addi	r8,r8,8
  802bcc:	8c7ffc04 	addi	r17,r17,-16
  802bd0:	b440800e 	bge	r22,r17,802dd4 <___vfprintf_internal_r+0x1cdc>
  802bd4:	18c00404 	addi	r3,r3,16
  802bd8:	10800044 	addi	r2,r2,1
  802bdc:	45000015 	stw	r20,0(r8)
  802be0:	45800115 	stw	r22,4(r8)
  802be4:	d8c02015 	stw	r3,128(sp)
  802be8:	d8801f15 	stw	r2,124(sp)
  802bec:	e0bff60e 	bge	fp,r2,802bc8 <__alt_data_end+0xff802bc8>
  802bf0:	d9801e04 	addi	r6,sp,120
  802bf4:	b80b883a 	mov	r5,r23
  802bf8:	9809883a 	mov	r4,r19
  802bfc:	0807de80 	call	807de8 <__sprint_r>
  802c00:	103a411e 	bne	r2,zero,801508 <__alt_data_end+0xff801508>
  802c04:	d8c02017 	ldw	r3,128(sp)
  802c08:	d8801f17 	ldw	r2,124(sp)
  802c0c:	da000404 	addi	r8,sp,16
  802c10:	003fee06 	br	802bcc <__alt_data_end+0xff802bcc>
  802c14:	00bfffc4 	movi	r2,-1
  802c18:	003a3f06 	br	801518 <__alt_data_end+0xff801518>
  802c1c:	008011c4 	movi	r2,71
  802c20:	1440b816 	blt	r2,r17,802f04 <___vfprintf_internal_r+0x1e0c>
  802c24:	04002074 	movhi	r16,129
  802c28:	84001a04 	addi	r16,r16,104
  802c2c:	00c000c4 	movi	r3,3
  802c30:	00bfdfc4 	movi	r2,-129
  802c34:	d8c02915 	stw	r3,164(sp)
  802c38:	90a4703a 	and	r18,r18,r2
  802c3c:	df002783 	ldbu	fp,158(sp)
  802c40:	d8c02b15 	stw	r3,172(sp)
  802c44:	d8002a15 	stw	zero,168(sp)
  802c48:	d8003215 	stw	zero,200(sp)
  802c4c:	003b0706 	br	80186c <__alt_data_end+0xff80186c>
  802c50:	d8c02e17 	ldw	r3,184(sp)
  802c54:	1cc00017 	ldw	r19,0(r3)
  802c58:	18c00104 	addi	r3,r3,4
  802c5c:	d8c02e15 	stw	r3,184(sp)
  802c60:	982dd7fa 	srai	r22,r19,31
  802c64:	b005883a 	mov	r2,r22
  802c68:	003a7706 	br	801648 <__alt_data_end+0xff801648>
  802c6c:	d8c02e17 	ldw	r3,184(sp)
  802c70:	d9002f17 	ldw	r4,188(sp)
  802c74:	18800017 	ldw	r2,0(r3)
  802c78:	18c00104 	addi	r3,r3,4
  802c7c:	d8c02e15 	stw	r3,184(sp)
  802c80:	11000015 	stw	r4,0(r2)
  802c84:	00395406 	br	8011d8 <__alt_data_end+0xff8011d8>
  802c88:	d9002e17 	ldw	r4,184(sp)
  802c8c:	002d883a 	mov	r22,zero
  802c90:	24c00017 	ldw	r19,0(r4)
  802c94:	21000104 	addi	r4,r4,4
  802c98:	d9002e15 	stw	r4,184(sp)
  802c9c:	003c0706 	br	801cbc <__alt_data_end+0xff801cbc>
  802ca0:	d9402e17 	ldw	r5,184(sp)
  802ca4:	d8c02a17 	ldw	r3,168(sp)
  802ca8:	002d883a 	mov	r22,zero
  802cac:	28800104 	addi	r2,r5,4
  802cb0:	2cc0000b 	ldhu	r19,0(r5)
  802cb4:	183dc10e 	bge	r3,zero,8023bc <__alt_data_end+0xff8023bc>
  802cb8:	003f7506 	br	802a90 <__alt_data_end+0xff802a90>
  802cbc:	04002074 	movhi	r16,129
  802cc0:	84001804 	addi	r16,r16,96
  802cc4:	003aa706 	br	801764 <__alt_data_end+0xff801764>
  802cc8:	d9002d17 	ldw	r4,180(sp)
  802ccc:	d9801e04 	addi	r6,sp,120
  802cd0:	b80b883a 	mov	r5,r23
  802cd4:	0807de80 	call	807de8 <__sprint_r>
  802cd8:	103a0b1e 	bne	r2,zero,801508 <__alt_data_end+0xff801508>
  802cdc:	dc402617 	ldw	r17,152(sp)
  802ce0:	d8c02017 	ldw	r3,128(sp)
  802ce4:	da000404 	addi	r8,sp,16
  802ce8:	003f9c06 	br	802b5c <__alt_data_end+0xff802b5c>
  802cec:	ac400043 	ldbu	r17,1(r21)
  802cf0:	84000814 	ori	r16,r16,32
  802cf4:	ad400044 	addi	r21,r21,1
  802cf8:	8c403fcc 	andi	r17,r17,255
  802cfc:	8c40201c 	xori	r17,r17,128
  802d00:	8c7fe004 	addi	r17,r17,-128
  802d04:	00395e06 	br	801280 <__alt_data_end+0xff801280>
  802d08:	d8c02e15 	stw	r3,184(sp)
  802d0c:	0039883a 	mov	fp,zero
  802d10:	003e3506 	br	8025e8 <__alt_data_end+0xff8025e8>
  802d14:	d9002d17 	ldw	r4,180(sp)
  802d18:	d9801e04 	addi	r6,sp,120
  802d1c:	b80b883a 	mov	r5,r23
  802d20:	0807de80 	call	807de8 <__sprint_r>
  802d24:	1039f81e 	bne	r2,zero,801508 <__alt_data_end+0xff801508>
  802d28:	d8c02017 	ldw	r3,128(sp)
  802d2c:	da000404 	addi	r8,sp,16
  802d30:	003cd006 	br	802074 <__alt_data_end+0xff802074>
  802d34:	8009883a 	mov	r4,r16
  802d38:	df003d15 	stw	fp,244(sp)
  802d3c:	0807c540 	call	807c54 <strlen>
  802d40:	d8802b15 	stw	r2,172(sp)
  802d44:	da003d17 	ldw	r8,244(sp)
  802d48:	103c200e 	bge	r2,zero,801dcc <__alt_data_end+0xff801dcc>
  802d4c:	0005883a 	mov	r2,zero
  802d50:	003c1e06 	br	801dcc <__alt_data_end+0xff801dcc>
  802d54:	d9002d17 	ldw	r4,180(sp)
  802d58:	d9801e04 	addi	r6,sp,120
  802d5c:	b80b883a 	mov	r5,r23
  802d60:	0807de80 	call	807de8 <__sprint_r>
  802d64:	1039e81e 	bne	r2,zero,801508 <__alt_data_end+0xff801508>
  802d68:	d8c02017 	ldw	r3,128(sp)
  802d6c:	d8801f17 	ldw	r2,124(sp)
  802d70:	da000404 	addi	r8,sp,16
  802d74:	d9403317 	ldw	r5,204(sp)
  802d78:	10800044 	addi	r2,r2,1
  802d7c:	44000015 	stw	r16,0(r8)
  802d80:	28c7883a 	add	r3,r5,r3
  802d84:	003b5b06 	br	801af4 <__alt_data_end+0xff801af4>
  802d88:	01002074 	movhi	r4,129
  802d8c:	21002c84 	addi	r4,r4,178
  802d90:	d9003515 	stw	r4,212(sp)
  802d94:	003af206 	br	801960 <__alt_data_end+0xff801960>
  802d98:	013fffc4 	movi	r4,-1
  802d9c:	003a0806 	br	8015c0 <__alt_data_end+0xff8015c0>
  802da0:	0023883a 	mov	r17,zero
  802da4:	003d9d06 	br	80241c <__alt_data_end+0xff80241c>
  802da8:	d9002d17 	ldw	r4,180(sp)
  802dac:	d9801e04 	addi	r6,sp,120
  802db0:	b80b883a 	mov	r5,r23
  802db4:	0807de80 	call	807de8 <__sprint_r>
  802db8:	1039d31e 	bne	r2,zero,801508 <__alt_data_end+0xff801508>
  802dbc:	d8c02017 	ldw	r3,128(sp)
  802dc0:	da000404 	addi	r8,sp,16
  802dc4:	003d9406 	br	802418 <__alt_data_end+0xff802418>
  802dc8:	01002074 	movhi	r4,129
  802dcc:	21002884 	addi	r4,r4,162
  802dd0:	d9002c15 	stw	r4,176(sp)
  802dd4:	d9002c17 	ldw	r4,176(sp)
  802dd8:	1c47883a 	add	r3,r3,r17
  802ddc:	10800044 	addi	r2,r2,1
  802de0:	41000015 	stw	r4,0(r8)
  802de4:	44400115 	stw	r17,4(r8)
  802de8:	d8c02015 	stw	r3,128(sp)
  802dec:	d8801f15 	stw	r2,124(sp)
  802df0:	010001c4 	movi	r4,7
  802df4:	20bfd716 	blt	r4,r2,802d54 <__alt_data_end+0xff802d54>
  802df8:	42000204 	addi	r8,r8,8
  802dfc:	003fdd06 	br	802d74 <__alt_data_end+0xff802d74>
  802e00:	d9002d17 	ldw	r4,180(sp)
  802e04:	d9801e04 	addi	r6,sp,120
  802e08:	b80b883a 	mov	r5,r23
  802e0c:	0807de80 	call	807de8 <__sprint_r>
  802e10:	1039bd1e 	bne	r2,zero,801508 <__alt_data_end+0xff801508>
  802e14:	d8802617 	ldw	r2,152(sp)
  802e18:	d8c02017 	ldw	r3,128(sp)
  802e1c:	da000404 	addi	r8,sp,16
  802e20:	003e1006 	br	802664 <__alt_data_end+0xff802664>
  802e24:	00800044 	movi	r2,1
  802e28:	10803fcc 	andi	r2,r2,255
  802e2c:	00c00044 	movi	r3,1
  802e30:	10fa0d26 	beq	r2,r3,801668 <__alt_data_end+0xff801668>
  802e34:	00c00084 	movi	r3,2
  802e38:	10fbaf26 	beq	r2,r3,801cf8 <__alt_data_end+0xff801cf8>
  802e3c:	003a6d06 	br	8017f4 <__alt_data_end+0xff8017f4>
  802e40:	01002074 	movhi	r4,129
  802e44:	21002c84 	addi	r4,r4,178
  802e48:	d9003515 	stw	r4,212(sp)
  802e4c:	003b5406 	br	801ba0 <__alt_data_end+0xff801ba0>
  802e50:	d8802a17 	ldw	r2,168(sp)
  802e54:	00c00184 	movi	r3,6
  802e58:	1880012e 	bgeu	r3,r2,802e60 <___vfprintf_internal_r+0x1d68>
  802e5c:	1805883a 	mov	r2,r3
  802e60:	d8802b15 	stw	r2,172(sp)
  802e64:	1000ef16 	blt	r2,zero,803224 <___vfprintf_internal_r+0x212c>
  802e68:	04002074 	movhi	r16,129
  802e6c:	d8802915 	stw	r2,164(sp)
  802e70:	dcc02e15 	stw	r19,184(sp)
  802e74:	d8002a15 	stw	zero,168(sp)
  802e78:	d8003215 	stw	zero,200(sp)
  802e7c:	84002604 	addi	r16,r16,152
  802e80:	0039883a 	mov	fp,zero
  802e84:	003a8006 	br	801888 <__alt_data_end+0xff801888>
  802e88:	0021883a 	mov	r16,zero
  802e8c:	003e0706 	br	8026ac <__alt_data_end+0xff8026ac>
  802e90:	d9002d17 	ldw	r4,180(sp)
  802e94:	d9801e04 	addi	r6,sp,120
  802e98:	b80b883a 	mov	r5,r23
  802e9c:	0807de80 	call	807de8 <__sprint_r>
  802ea0:	1039991e 	bne	r2,zero,801508 <__alt_data_end+0xff801508>
  802ea4:	d8802617 	ldw	r2,152(sp)
  802ea8:	d9403317 	ldw	r5,204(sp)
  802eac:	d8c02017 	ldw	r3,128(sp)
  802eb0:	da000404 	addi	r8,sp,16
  802eb4:	2885c83a 	sub	r2,r5,r2
  802eb8:	003dfb06 	br	8026a8 <__alt_data_end+0xff8026a8>
  802ebc:	9080004c 	andi	r2,r18,1
  802ec0:	103e8f1e 	bne	r2,zero,802900 <__alt_data_end+0xff802900>
  802ec4:	d8802117 	ldw	r2,132(sp)
  802ec8:	003e9e06 	br	802944 <__alt_data_end+0xff802944>
  802ecc:	1025883a 	mov	r18,r2
  802ed0:	0039883a 	mov	fp,zero
  802ed4:	00800084 	movi	r2,2
  802ed8:	003fd306 	br	802e28 <__alt_data_end+0xff802e28>
  802edc:	07000b44 	movi	fp,45
  802ee0:	df002785 	stb	fp,158(sp)
  802ee4:	003a1b06 	br	801754 <__alt_data_end+0xff801754>
  802ee8:	00c00b44 	movi	r3,45
  802eec:	d8c02785 	stb	r3,158(sp)
  802ef0:	d8802915 	stw	r2,164(sp)
  802ef4:	dc802c17 	ldw	r18,176(sp)
  802ef8:	d8002a15 	stw	zero,168(sp)
  802efc:	07000b44 	movi	fp,45
  802f00:	003a5e06 	br	80187c <__alt_data_end+0xff80187c>
  802f04:	04002074 	movhi	r16,129
  802f08:	84001b04 	addi	r16,r16,108
  802f0c:	003f4706 	br	802c2c <__alt_data_end+0xff802c2c>
  802f10:	d9002e17 	ldw	r4,184(sp)
  802f14:	d9402f17 	ldw	r5,188(sp)
  802f18:	20800017 	ldw	r2,0(r4)
  802f1c:	21000104 	addi	r4,r4,4
  802f20:	d9002e15 	stw	r4,184(sp)
  802f24:	11400015 	stw	r5,0(r2)
  802f28:	0038ab06 	br	8011d8 <__alt_data_end+0xff8011d8>
  802f2c:	dd802617 	ldw	r22,152(sp)
  802f30:	00bfff44 	movi	r2,-3
  802f34:	b0801c16 	blt	r22,r2,802fa8 <___vfprintf_internal_r+0x1eb0>
  802f38:	d9402a17 	ldw	r5,168(sp)
  802f3c:	2d801a16 	blt	r5,r22,802fa8 <___vfprintf_internal_r+0x1eb0>
  802f40:	dd803215 	stw	r22,200(sp)
  802f44:	003e8906 	br	80296c <__alt_data_end+0xff80296c>
  802f48:	01002074 	movhi	r4,129
  802f4c:	21002884 	addi	r4,r4,162
  802f50:	d9002c15 	stw	r4,176(sp)
  802f54:	003c9106 	br	80219c <__alt_data_end+0xff80219c>
  802f58:	e005883a 	mov	r2,fp
  802f5c:	003e7906 	br	802944 <__alt_data_end+0xff802944>
  802f60:	d9002a17 	ldw	r4,168(sp)
  802f64:	df002783 	ldbu	fp,158(sp)
  802f68:	dcc02e15 	stw	r19,184(sp)
  802f6c:	d9002915 	stw	r4,164(sp)
  802f70:	d9002b15 	stw	r4,172(sp)
  802f74:	d8002a15 	stw	zero,168(sp)
  802f78:	d8003215 	stw	zero,200(sp)
  802f7c:	003a3b06 	br	80186c <__alt_data_end+0xff80186c>
  802f80:	9080004c 	andi	r2,r18,1
  802f84:	0039883a 	mov	fp,zero
  802f88:	10000426 	beq	r2,zero,802f9c <___vfprintf_internal_r+0x1ea4>
  802f8c:	00800c04 	movi	r2,48
  802f90:	dc001dc4 	addi	r16,sp,119
  802f94:	d8801dc5 	stb	r2,119(sp)
  802f98:	003b6406 	br	801d2c <__alt_data_end+0xff801d2c>
  802f9c:	d8002b15 	stw	zero,172(sp)
  802fa0:	dc001e04 	addi	r16,sp,120
  802fa4:	003a2b06 	br	801854 <__alt_data_end+0xff801854>
  802fa8:	8c7fff84 	addi	r17,r17,-2
  802fac:	b5bfffc4 	addi	r22,r22,-1
  802fb0:	dd802615 	stw	r22,152(sp)
  802fb4:	dc4022c5 	stb	r17,139(sp)
  802fb8:	b000bf16 	blt	r22,zero,8032b8 <___vfprintf_internal_r+0x21c0>
  802fbc:	00800ac4 	movi	r2,43
  802fc0:	d8802305 	stb	r2,140(sp)
  802fc4:	00800244 	movi	r2,9
  802fc8:	15807016 	blt	r2,r22,80318c <___vfprintf_internal_r+0x2094>
  802fcc:	00800c04 	movi	r2,48
  802fd0:	b5800c04 	addi	r22,r22,48
  802fd4:	d8802345 	stb	r2,141(sp)
  802fd8:	dd802385 	stb	r22,142(sp)
  802fdc:	d88023c4 	addi	r2,sp,143
  802fe0:	df0022c4 	addi	fp,sp,139
  802fe4:	d8c03317 	ldw	r3,204(sp)
  802fe8:	1739c83a 	sub	fp,r2,fp
  802fec:	d9003317 	ldw	r4,204(sp)
  802ff0:	e0c7883a 	add	r3,fp,r3
  802ff4:	df003a15 	stw	fp,232(sp)
  802ff8:	d8c02b15 	stw	r3,172(sp)
  802ffc:	00800044 	movi	r2,1
  803000:	1100b30e 	bge	r2,r4,8032d0 <___vfprintf_internal_r+0x21d8>
  803004:	d8c02b17 	ldw	r3,172(sp)
  803008:	18c00044 	addi	r3,r3,1
  80300c:	d8c02b15 	stw	r3,172(sp)
  803010:	1805883a 	mov	r2,r3
  803014:	1800ac16 	blt	r3,zero,8032c8 <___vfprintf_internal_r+0x21d0>
  803018:	d8003215 	stw	zero,200(sp)
  80301c:	003e5d06 	br	802994 <__alt_data_end+0xff802994>
  803020:	d9002d17 	ldw	r4,180(sp)
  803024:	d9801e04 	addi	r6,sp,120
  803028:	b80b883a 	mov	r5,r23
  80302c:	0807de80 	call	807de8 <__sprint_r>
  803030:	1039351e 	bne	r2,zero,801508 <__alt_data_end+0xff801508>
  803034:	dc402617 	ldw	r17,152(sp)
  803038:	d8c02017 	ldw	r3,128(sp)
  80303c:	d8801f17 	ldw	r2,124(sp)
  803040:	da000404 	addi	r8,sp,16
  803044:	003ed606 	br	802ba0 <__alt_data_end+0xff802ba0>
  803048:	182b883a 	mov	r21,r3
  80304c:	d8002a15 	stw	zero,168(sp)
  803050:	00388c06 	br	801284 <__alt_data_end+0xff801284>
  803054:	d8802a17 	ldw	r2,168(sp)
  803058:	103e071e 	bne	r2,zero,802878 <__alt_data_end+0xff802878>
  80305c:	dc002a15 	stw	r16,168(sp)
  803060:	003e0506 	br	802878 <__alt_data_end+0xff802878>
  803064:	d9002a17 	ldw	r4,168(sp)
  803068:	20c00044 	addi	r3,r4,1
  80306c:	003e0f06 	br	8028ac <__alt_data_end+0xff8028ac>
  803070:	01400184 	movi	r5,6
  803074:	d9402a15 	stw	r5,168(sp)
  803078:	003dff06 	br	802878 <__alt_data_end+0xff802878>
  80307c:	d8802104 	addi	r2,sp,132
  803080:	d8800315 	stw	r2,12(sp)
  803084:	d8802504 	addi	r2,sp,148
  803088:	d8800215 	stw	r2,8(sp)
  80308c:	d8802604 	addi	r2,sp,152
  803090:	d8800115 	stw	r2,4(sp)
  803094:	d8802a17 	ldw	r2,168(sp)
  803098:	d9403617 	ldw	r5,216(sp)
  80309c:	d9002d17 	ldw	r4,180(sp)
  8030a0:	d8800015 	stw	r2,0(sp)
  8030a4:	01c000c4 	movi	r7,3
  8030a8:	980d883a 	mov	r6,r19
  8030ac:	da003d15 	stw	r8,244(sp)
  8030b0:	08038280 	call	803828 <_dtoa_r>
  8030b4:	d8c02a17 	ldw	r3,168(sp)
  8030b8:	da003d17 	ldw	r8,244(sp)
  8030bc:	1021883a 	mov	r16,r2
  8030c0:	10f9883a 	add	fp,r2,r3
  8030c4:	81000007 	ldb	r4,0(r16)
  8030c8:	00800c04 	movi	r2,48
  8030cc:	20805e26 	beq	r4,r2,803248 <___vfprintf_internal_r+0x2150>
  8030d0:	d8c02617 	ldw	r3,152(sp)
  8030d4:	e0f9883a 	add	fp,fp,r3
  8030d8:	003e0a06 	br	802904 <__alt_data_end+0xff802904>
  8030dc:	00c00b44 	movi	r3,45
  8030e0:	24e0003c 	xorhi	r19,r4,32768
  8030e4:	d8c02905 	stb	r3,164(sp)
  8030e8:	003de906 	br	802890 <__alt_data_end+0xff802890>
  8030ec:	d8c03217 	ldw	r3,200(sp)
  8030f0:	00c07a0e 	bge	zero,r3,8032dc <___vfprintf_internal_r+0x21e4>
  8030f4:	00800044 	movi	r2,1
  8030f8:	d9003317 	ldw	r4,204(sp)
  8030fc:	1105883a 	add	r2,r2,r4
  803100:	d8802b15 	stw	r2,172(sp)
  803104:	10004e16 	blt	r2,zero,803240 <___vfprintf_internal_r+0x2148>
  803108:	044019c4 	movi	r17,103
  80310c:	003e2106 	br	802994 <__alt_data_end+0xff802994>
  803110:	d9002a17 	ldw	r4,168(sp)
  803114:	d8802104 	addi	r2,sp,132
  803118:	d8800315 	stw	r2,12(sp)
  80311c:	d9000015 	stw	r4,0(sp)
  803120:	d8802504 	addi	r2,sp,148
  803124:	d9403617 	ldw	r5,216(sp)
  803128:	d9002d17 	ldw	r4,180(sp)
  80312c:	d8800215 	stw	r2,8(sp)
  803130:	d8802604 	addi	r2,sp,152
  803134:	d8800115 	stw	r2,4(sp)
  803138:	01c000c4 	movi	r7,3
  80313c:	980d883a 	mov	r6,r19
  803140:	da003d15 	stw	r8,244(sp)
  803144:	08038280 	call	803828 <_dtoa_r>
  803148:	d8c02a17 	ldw	r3,168(sp)
  80314c:	da003d17 	ldw	r8,244(sp)
  803150:	1021883a 	mov	r16,r2
  803154:	00801184 	movi	r2,70
  803158:	80f9883a 	add	fp,r16,r3
  80315c:	88bfd926 	beq	r17,r2,8030c4 <__alt_data_end+0xff8030c4>
  803160:	003de806 	br	802904 <__alt_data_end+0xff802904>
  803164:	d9002a17 	ldw	r4,168(sp)
  803168:	00c04d0e 	bge	zero,r3,8032a0 <___vfprintf_internal_r+0x21a8>
  80316c:	2000441e 	bne	r4,zero,803280 <___vfprintf_internal_r+0x2188>
  803170:	9480004c 	andi	r18,r18,1
  803174:	9000421e 	bne	r18,zero,803280 <___vfprintf_internal_r+0x2188>
  803178:	1805883a 	mov	r2,r3
  80317c:	18006f16 	blt	r3,zero,80333c <___vfprintf_internal_r+0x2244>
  803180:	d8c03217 	ldw	r3,200(sp)
  803184:	d8c02b15 	stw	r3,172(sp)
  803188:	003e0206 	br	802994 <__alt_data_end+0xff802994>
  80318c:	df0022c4 	addi	fp,sp,139
  803190:	dc002a15 	stw	r16,168(sp)
  803194:	4027883a 	mov	r19,r8
  803198:	e021883a 	mov	r16,fp
  80319c:	b009883a 	mov	r4,r22
  8031a0:	01400284 	movi	r5,10
  8031a4:	080b4fc0 	call	80b4fc <__modsi3>
  8031a8:	10800c04 	addi	r2,r2,48
  8031ac:	843fffc4 	addi	r16,r16,-1
  8031b0:	b009883a 	mov	r4,r22
  8031b4:	01400284 	movi	r5,10
  8031b8:	80800005 	stb	r2,0(r16)
  8031bc:	080b4780 	call	80b478 <__divsi3>
  8031c0:	102d883a 	mov	r22,r2
  8031c4:	00800244 	movi	r2,9
  8031c8:	15bff416 	blt	r2,r22,80319c <__alt_data_end+0xff80319c>
  8031cc:	9811883a 	mov	r8,r19
  8031d0:	b0800c04 	addi	r2,r22,48
  8031d4:	8027883a 	mov	r19,r16
  8031d8:	997fffc4 	addi	r5,r19,-1
  8031dc:	98bfffc5 	stb	r2,-1(r19)
  8031e0:	dc002a17 	ldw	r16,168(sp)
  8031e4:	2f006d2e 	bgeu	r5,fp,80339c <___vfprintf_internal_r+0x22a4>
  8031e8:	d9c02384 	addi	r7,sp,142
  8031ec:	3ccfc83a 	sub	r7,r7,r19
  8031f0:	d9002344 	addi	r4,sp,141
  8031f4:	e1cf883a 	add	r7,fp,r7
  8031f8:	00000106 	br	803200 <___vfprintf_internal_r+0x2108>
  8031fc:	28800003 	ldbu	r2,0(r5)
  803200:	20800005 	stb	r2,0(r4)
  803204:	21000044 	addi	r4,r4,1
  803208:	29400044 	addi	r5,r5,1
  80320c:	393ffb1e 	bne	r7,r4,8031fc <__alt_data_end+0xff8031fc>
  803210:	d8802304 	addi	r2,sp,140
  803214:	14c5c83a 	sub	r2,r2,r19
  803218:	d8c02344 	addi	r3,sp,141
  80321c:	1885883a 	add	r2,r3,r2
  803220:	003f7006 	br	802fe4 <__alt_data_end+0xff802fe4>
  803224:	0005883a 	mov	r2,zero
  803228:	003f0f06 	br	802e68 <__alt_data_end+0xff802e68>
  80322c:	d8c03217 	ldw	r3,200(sp)
  803230:	18c00044 	addi	r3,r3,1
  803234:	d8c02b15 	stw	r3,172(sp)
  803238:	1805883a 	mov	r2,r3
  80323c:	183fb20e 	bge	r3,zero,803108 <__alt_data_end+0xff803108>
  803240:	0005883a 	mov	r2,zero
  803244:	003fb006 	br	803108 <__alt_data_end+0xff803108>
  803248:	d9003617 	ldw	r4,216(sp)
  80324c:	000d883a 	mov	r6,zero
  803250:	000f883a 	mov	r7,zero
  803254:	980b883a 	mov	r5,r19
  803258:	d8c03c15 	stw	r3,240(sp)
  80325c:	da003d15 	stw	r8,244(sp)
  803260:	080c8a80 	call	80c8a8 <__eqdf2>
  803264:	d8c03c17 	ldw	r3,240(sp)
  803268:	da003d17 	ldw	r8,244(sp)
  80326c:	103f9826 	beq	r2,zero,8030d0 <__alt_data_end+0xff8030d0>
  803270:	00800044 	movi	r2,1
  803274:	10c7c83a 	sub	r3,r2,r3
  803278:	d8c02615 	stw	r3,152(sp)
  80327c:	003f9506 	br	8030d4 <__alt_data_end+0xff8030d4>
  803280:	d9002a17 	ldw	r4,168(sp)
  803284:	d8c03217 	ldw	r3,200(sp)
  803288:	20800044 	addi	r2,r4,1
  80328c:	1885883a 	add	r2,r3,r2
  803290:	d8802b15 	stw	r2,172(sp)
  803294:	103dbf0e 	bge	r2,zero,802994 <__alt_data_end+0xff802994>
  803298:	0005883a 	mov	r2,zero
  80329c:	003dbd06 	br	802994 <__alt_data_end+0xff802994>
  8032a0:	2000201e 	bne	r4,zero,803324 <___vfprintf_internal_r+0x222c>
  8032a4:	9480004c 	andi	r18,r18,1
  8032a8:	90001e1e 	bne	r18,zero,803324 <___vfprintf_internal_r+0x222c>
  8032ac:	00800044 	movi	r2,1
  8032b0:	d8802b15 	stw	r2,172(sp)
  8032b4:	003db706 	br	802994 <__alt_data_end+0xff802994>
  8032b8:	00800b44 	movi	r2,45
  8032bc:	05adc83a 	sub	r22,zero,r22
  8032c0:	d8802305 	stb	r2,140(sp)
  8032c4:	003f3f06 	br	802fc4 <__alt_data_end+0xff802fc4>
  8032c8:	0005883a 	mov	r2,zero
  8032cc:	003f5206 	br	803018 <__alt_data_end+0xff803018>
  8032d0:	90a4703a 	and	r18,r18,r2
  8032d4:	903f4e26 	beq	r18,zero,803010 <__alt_data_end+0xff803010>
  8032d8:	003f4a06 	br	803004 <__alt_data_end+0xff803004>
  8032dc:	00800084 	movi	r2,2
  8032e0:	10c5c83a 	sub	r2,r2,r3
  8032e4:	003f8406 	br	8030f8 <__alt_data_end+0xff8030f8>
  8032e8:	d9402e17 	ldw	r5,184(sp)
  8032ec:	d9002e17 	ldw	r4,184(sp)
  8032f0:	ac400043 	ldbu	r17,1(r21)
  8032f4:	29400017 	ldw	r5,0(r5)
  8032f8:	20800104 	addi	r2,r4,4
  8032fc:	d8802e15 	stw	r2,184(sp)
  803300:	d9402a15 	stw	r5,168(sp)
  803304:	182b883a 	mov	r21,r3
  803308:	283e7b0e 	bge	r5,zero,802cf8 <__alt_data_end+0xff802cf8>
  80330c:	8c403fcc 	andi	r17,r17,255
  803310:	017fffc4 	movi	r5,-1
  803314:	8c40201c 	xori	r17,r17,128
  803318:	d9402a15 	stw	r5,168(sp)
  80331c:	8c7fe004 	addi	r17,r17,-128
  803320:	0037d706 	br	801280 <__alt_data_end+0xff801280>
  803324:	d8c02a17 	ldw	r3,168(sp)
  803328:	18c00084 	addi	r3,r3,2
  80332c:	d8c02b15 	stw	r3,172(sp)
  803330:	1805883a 	mov	r2,r3
  803334:	183d970e 	bge	r3,zero,802994 <__alt_data_end+0xff802994>
  803338:	003fd706 	br	803298 <__alt_data_end+0xff803298>
  80333c:	0005883a 	mov	r2,zero
  803340:	003f8f06 	br	803180 <__alt_data_end+0xff803180>
  803344:	9080004c 	andi	r2,r18,1
  803348:	103f821e 	bne	r2,zero,803154 <__alt_data_end+0xff803154>
  80334c:	d8802117 	ldw	r2,132(sp)
  803350:	1405c83a 	sub	r2,r2,r16
  803354:	d8803315 	stw	r2,204(sp)
  803358:	b47ef426 	beq	r22,r17,802f2c <__alt_data_end+0xff802f2c>
  80335c:	dd802617 	ldw	r22,152(sp)
  803360:	003f1206 	br	802fac <__alt_data_end+0xff802fac>
  803364:	d8c02b03 	ldbu	r3,172(sp)
  803368:	d8c02785 	stb	r3,158(sp)
  80336c:	0038df06 	br	8016ec <__alt_data_end+0xff8016ec>
  803370:	d8c02b03 	ldbu	r3,172(sp)
  803374:	d8c02785 	stb	r3,158(sp)
  803378:	0038aa06 	br	801624 <__alt_data_end+0xff801624>
  80337c:	d8c02b03 	ldbu	r3,172(sp)
  803380:	d8c02785 	stb	r3,158(sp)
  803384:	003a4306 	br	801c94 <__alt_data_end+0xff801c94>
  803388:	d8c02b03 	ldbu	r3,172(sp)
  80338c:	d8c02785 	stb	r3,158(sp)
  803390:	003af506 	br	801f68 <__alt_data_end+0xff801f68>
  803394:	0005883a 	mov	r2,zero
  803398:	003d7b06 	br	802988 <__alt_data_end+0xff802988>
  80339c:	d8802344 	addi	r2,sp,141
  8033a0:	003f1006 	br	802fe4 <__alt_data_end+0xff802fe4>
  8033a4:	d8c02b03 	ldbu	r3,172(sp)
  8033a8:	d8c02785 	stb	r3,158(sp)
  8033ac:	0038fd06 	br	8017a4 <__alt_data_end+0xff8017a4>
  8033b0:	d8c02b03 	ldbu	r3,172(sp)
  8033b4:	d8c02785 	stb	r3,158(sp)
  8033b8:	003a9706 	br	801e18 <__alt_data_end+0xff801e18>
  8033bc:	d8c02b03 	ldbu	r3,172(sp)
  8033c0:	d8c02785 	stb	r3,158(sp)
  8033c4:	003a1806 	br	801c28 <__alt_data_end+0xff801c28>
  8033c8:	d8c02b03 	ldbu	r3,172(sp)
  8033cc:	d8c02785 	stb	r3,158(sp)
  8033d0:	003abe06 	br	801ecc <__alt_data_end+0xff801ecc>

008033d4 <__vfprintf_internal>:
  8033d4:	00802074 	movhi	r2,129
  8033d8:	10833404 	addi	r2,r2,3280
  8033dc:	300f883a 	mov	r7,r6
  8033e0:	280d883a 	mov	r6,r5
  8033e4:	200b883a 	mov	r5,r4
  8033e8:	11000017 	ldw	r4,0(r2)
  8033ec:	08010f81 	jmpi	8010f8 <___vfprintf_internal_r>

008033f0 <__sbprintf>:
  8033f0:	2880030b 	ldhu	r2,12(r5)
  8033f4:	2ac01917 	ldw	r11,100(r5)
  8033f8:	2a80038b 	ldhu	r10,14(r5)
  8033fc:	2a400717 	ldw	r9,28(r5)
  803400:	2a000917 	ldw	r8,36(r5)
  803404:	defee204 	addi	sp,sp,-1144
  803408:	00c10004 	movi	r3,1024
  80340c:	dc011a15 	stw	r16,1128(sp)
  803410:	10bfff4c 	andi	r2,r2,65533
  803414:	2821883a 	mov	r16,r5
  803418:	d8cb883a 	add	r5,sp,r3
  80341c:	dc811c15 	stw	r18,1136(sp)
  803420:	dc411b15 	stw	r17,1132(sp)
  803424:	dfc11d15 	stw	ra,1140(sp)
  803428:	2025883a 	mov	r18,r4
  80342c:	d881030d 	sth	r2,1036(sp)
  803430:	dac11915 	stw	r11,1124(sp)
  803434:	da81038d 	sth	r10,1038(sp)
  803438:	da410715 	stw	r9,1052(sp)
  80343c:	da010915 	stw	r8,1060(sp)
  803440:	dec10015 	stw	sp,1024(sp)
  803444:	dec10415 	stw	sp,1040(sp)
  803448:	d8c10215 	stw	r3,1032(sp)
  80344c:	d8c10515 	stw	r3,1044(sp)
  803450:	d8010615 	stw	zero,1048(sp)
  803454:	08010f80 	call	8010f8 <___vfprintf_internal_r>
  803458:	1023883a 	mov	r17,r2
  80345c:	10000416 	blt	r2,zero,803470 <__sbprintf+0x80>
  803460:	d9410004 	addi	r5,sp,1024
  803464:	9009883a 	mov	r4,r18
  803468:	08050cc0 	call	8050cc <_fflush_r>
  80346c:	10000d1e 	bne	r2,zero,8034a4 <__sbprintf+0xb4>
  803470:	d881030b 	ldhu	r2,1036(sp)
  803474:	1080100c 	andi	r2,r2,64
  803478:	10000326 	beq	r2,zero,803488 <__sbprintf+0x98>
  80347c:	8080030b 	ldhu	r2,12(r16)
  803480:	10801014 	ori	r2,r2,64
  803484:	8080030d 	sth	r2,12(r16)
  803488:	8805883a 	mov	r2,r17
  80348c:	dfc11d17 	ldw	ra,1140(sp)
  803490:	dc811c17 	ldw	r18,1136(sp)
  803494:	dc411b17 	ldw	r17,1132(sp)
  803498:	dc011a17 	ldw	r16,1128(sp)
  80349c:	dec11e04 	addi	sp,sp,1144
  8034a0:	f800283a 	ret
  8034a4:	047fffc4 	movi	r17,-1
  8034a8:	003ff106 	br	803470 <__alt_data_end+0xff803470>

008034ac <__swsetup_r>:
  8034ac:	00802074 	movhi	r2,129
  8034b0:	defffd04 	addi	sp,sp,-12
  8034b4:	10833404 	addi	r2,r2,3280
  8034b8:	dc400115 	stw	r17,4(sp)
  8034bc:	2023883a 	mov	r17,r4
  8034c0:	11000017 	ldw	r4,0(r2)
  8034c4:	dc000015 	stw	r16,0(sp)
  8034c8:	dfc00215 	stw	ra,8(sp)
  8034cc:	2821883a 	mov	r16,r5
  8034d0:	20000226 	beq	r4,zero,8034dc <__swsetup_r+0x30>
  8034d4:	20800e17 	ldw	r2,56(r4)
  8034d8:	10003126 	beq	r2,zero,8035a0 <__swsetup_r+0xf4>
  8034dc:	8080030b 	ldhu	r2,12(r16)
  8034e0:	10c0020c 	andi	r3,r2,8
  8034e4:	1009883a 	mov	r4,r2
  8034e8:	18000f26 	beq	r3,zero,803528 <__swsetup_r+0x7c>
  8034ec:	80c00417 	ldw	r3,16(r16)
  8034f0:	18001526 	beq	r3,zero,803548 <__swsetup_r+0x9c>
  8034f4:	1100004c 	andi	r4,r2,1
  8034f8:	20001c1e 	bne	r4,zero,80356c <__swsetup_r+0xc0>
  8034fc:	1080008c 	andi	r2,r2,2
  803500:	1000291e 	bne	r2,zero,8035a8 <__swsetup_r+0xfc>
  803504:	80800517 	ldw	r2,20(r16)
  803508:	80800215 	stw	r2,8(r16)
  80350c:	18001c26 	beq	r3,zero,803580 <__swsetup_r+0xd4>
  803510:	0005883a 	mov	r2,zero
  803514:	dfc00217 	ldw	ra,8(sp)
  803518:	dc400117 	ldw	r17,4(sp)
  80351c:	dc000017 	ldw	r16,0(sp)
  803520:	dec00304 	addi	sp,sp,12
  803524:	f800283a 	ret
  803528:	2080040c 	andi	r2,r4,16
  80352c:	10002e26 	beq	r2,zero,8035e8 <__swsetup_r+0x13c>
  803530:	2080010c 	andi	r2,r4,4
  803534:	10001e1e 	bne	r2,zero,8035b0 <__swsetup_r+0x104>
  803538:	80c00417 	ldw	r3,16(r16)
  80353c:	20800214 	ori	r2,r4,8
  803540:	8080030d 	sth	r2,12(r16)
  803544:	183feb1e 	bne	r3,zero,8034f4 <__alt_data_end+0xff8034f4>
  803548:	1100a00c 	andi	r4,r2,640
  80354c:	01408004 	movi	r5,512
  803550:	217fe826 	beq	r4,r5,8034f4 <__alt_data_end+0xff8034f4>
  803554:	800b883a 	mov	r5,r16
  803558:	8809883a 	mov	r4,r17
  80355c:	0805ba00 	call	805ba0 <__smakebuf_r>
  803560:	8080030b 	ldhu	r2,12(r16)
  803564:	80c00417 	ldw	r3,16(r16)
  803568:	003fe206 	br	8034f4 <__alt_data_end+0xff8034f4>
  80356c:	80800517 	ldw	r2,20(r16)
  803570:	80000215 	stw	zero,8(r16)
  803574:	0085c83a 	sub	r2,zero,r2
  803578:	80800615 	stw	r2,24(r16)
  80357c:	183fe41e 	bne	r3,zero,803510 <__alt_data_end+0xff803510>
  803580:	80c0030b 	ldhu	r3,12(r16)
  803584:	0005883a 	mov	r2,zero
  803588:	1900200c 	andi	r4,r3,128
  80358c:	203fe126 	beq	r4,zero,803514 <__alt_data_end+0xff803514>
  803590:	18c01014 	ori	r3,r3,64
  803594:	80c0030d 	sth	r3,12(r16)
  803598:	00bfffc4 	movi	r2,-1
  80359c:	003fdd06 	br	803514 <__alt_data_end+0xff803514>
  8035a0:	08054b80 	call	8054b8 <__sinit>
  8035a4:	003fcd06 	br	8034dc <__alt_data_end+0xff8034dc>
  8035a8:	0005883a 	mov	r2,zero
  8035ac:	003fd606 	br	803508 <__alt_data_end+0xff803508>
  8035b0:	81400c17 	ldw	r5,48(r16)
  8035b4:	28000626 	beq	r5,zero,8035d0 <__swsetup_r+0x124>
  8035b8:	80801004 	addi	r2,r16,64
  8035bc:	28800326 	beq	r5,r2,8035cc <__swsetup_r+0x120>
  8035c0:	8809883a 	mov	r4,r17
  8035c4:	080562c0 	call	80562c <_free_r>
  8035c8:	8100030b 	ldhu	r4,12(r16)
  8035cc:	80000c15 	stw	zero,48(r16)
  8035d0:	80c00417 	ldw	r3,16(r16)
  8035d4:	00bff6c4 	movi	r2,-37
  8035d8:	1108703a 	and	r4,r2,r4
  8035dc:	80000115 	stw	zero,4(r16)
  8035e0:	80c00015 	stw	r3,0(r16)
  8035e4:	003fd506 	br	80353c <__alt_data_end+0xff80353c>
  8035e8:	00800244 	movi	r2,9
  8035ec:	88800015 	stw	r2,0(r17)
  8035f0:	20801014 	ori	r2,r4,64
  8035f4:	8080030d 	sth	r2,12(r16)
  8035f8:	00bfffc4 	movi	r2,-1
  8035fc:	003fc506 	br	803514 <__alt_data_end+0xff803514>

00803600 <quorem>:
  803600:	defff204 	addi	sp,sp,-56
  803604:	ddc00b15 	stw	r23,44(sp)
  803608:	20800417 	ldw	r2,16(r4)
  80360c:	2dc00417 	ldw	r23,16(r5)
  803610:	dfc00d15 	stw	ra,52(sp)
  803614:	df000c15 	stw	fp,48(sp)
  803618:	dd800a15 	stw	r22,40(sp)
  80361c:	dd400915 	stw	r21,36(sp)
  803620:	dd000815 	stw	r20,32(sp)
  803624:	dcc00715 	stw	r19,28(sp)
  803628:	dc800615 	stw	r18,24(sp)
  80362c:	dc400515 	stw	r17,20(sp)
  803630:	dc000415 	stw	r16,16(sp)
  803634:	15c07a16 	blt	r2,r23,803820 <quorem+0x220>
  803638:	bdffffc4 	addi	r23,r23,-1
  80363c:	bde9883a 	add	r20,r23,r23
  803640:	28c00504 	addi	r3,r5,20
  803644:	a529883a 	add	r20,r20,r20
  803648:	1d39883a 	add	fp,r3,r20
  80364c:	24c00504 	addi	r19,r4,20
  803650:	d9400215 	stw	r5,8(sp)
  803654:	9d29883a 	add	r20,r19,r20
  803658:	e1400017 	ldw	r5,0(fp)
  80365c:	d9000015 	stw	r4,0(sp)
  803660:	a1000017 	ldw	r4,0(r20)
  803664:	29400044 	addi	r5,r5,1
  803668:	d8c00115 	stw	r3,4(sp)
  80366c:	dd000315 	stw	r20,12(sp)
  803670:	080b5700 	call	80b570 <__udivsi3>
  803674:	1025883a 	mov	r18,r2
  803678:	10003026 	beq	r2,zero,80373c <quorem+0x13c>
  80367c:	dc400117 	ldw	r17,4(sp)
  803680:	9829883a 	mov	r20,r19
  803684:	002d883a 	mov	r22,zero
  803688:	0021883a 	mov	r16,zero
  80368c:	8d400017 	ldw	r21,0(r17)
  803690:	900b883a 	mov	r5,r18
  803694:	8c400104 	addi	r17,r17,4
  803698:	a93fffcc 	andi	r4,r21,65535
  80369c:	08005640 	call	800564 <__mulsi3>
  8036a0:	a808d43a 	srli	r4,r21,16
  8036a4:	900b883a 	mov	r5,r18
  8036a8:	15ad883a 	add	r22,r2,r22
  8036ac:	08005640 	call	800564 <__mulsi3>
  8036b0:	a1000017 	ldw	r4,0(r20)
  8036b4:	b00cd43a 	srli	r6,r22,16
  8036b8:	b0ffffcc 	andi	r3,r22,65535
  8036bc:	217fffcc 	andi	r5,r4,65535
  8036c0:	2c21883a 	add	r16,r5,r16
  8036c4:	80c7c83a 	sub	r3,r16,r3
  8036c8:	2008d43a 	srli	r4,r4,16
  8036cc:	1185883a 	add	r2,r2,r6
  8036d0:	1821d43a 	srai	r16,r3,16
  8036d4:	117fffcc 	andi	r5,r2,65535
  8036d8:	2149c83a 	sub	r4,r4,r5
  8036dc:	2421883a 	add	r16,r4,r16
  8036e0:	8008943a 	slli	r4,r16,16
  8036e4:	18ffffcc 	andi	r3,r3,65535
  8036e8:	102cd43a 	srli	r22,r2,16
  8036ec:	20c8b03a 	or	r4,r4,r3
  8036f0:	a1000015 	stw	r4,0(r20)
  8036f4:	8021d43a 	srai	r16,r16,16
  8036f8:	a5000104 	addi	r20,r20,4
  8036fc:	e47fe32e 	bgeu	fp,r17,80368c <__alt_data_end+0xff80368c>
  803700:	d8c00317 	ldw	r3,12(sp)
  803704:	18800017 	ldw	r2,0(r3)
  803708:	10000c1e 	bne	r2,zero,80373c <quorem+0x13c>
  80370c:	18bfff04 	addi	r2,r3,-4
  803710:	9880082e 	bgeu	r19,r2,803734 <quorem+0x134>
  803714:	18ffff17 	ldw	r3,-4(r3)
  803718:	18000326 	beq	r3,zero,803728 <quorem+0x128>
  80371c:	00000506 	br	803734 <quorem+0x134>
  803720:	10c00017 	ldw	r3,0(r2)
  803724:	1800031e 	bne	r3,zero,803734 <quorem+0x134>
  803728:	10bfff04 	addi	r2,r2,-4
  80372c:	bdffffc4 	addi	r23,r23,-1
  803730:	98bffb36 	bltu	r19,r2,803720 <__alt_data_end+0xff803720>
  803734:	d8c00017 	ldw	r3,0(sp)
  803738:	1dc00415 	stw	r23,16(r3)
  80373c:	d9400217 	ldw	r5,8(sp)
  803740:	d9000017 	ldw	r4,0(sp)
  803744:	08072400 	call	807240 <__mcmp>
  803748:	10002816 	blt	r2,zero,8037ec <quorem+0x1ec>
  80374c:	dc400117 	ldw	r17,4(sp)
  803750:	94800044 	addi	r18,r18,1
  803754:	980d883a 	mov	r6,r19
  803758:	0007883a 	mov	r3,zero
  80375c:	31000017 	ldw	r4,0(r6)
  803760:	89400017 	ldw	r5,0(r17)
  803764:	31800104 	addi	r6,r6,4
  803768:	20bfffcc 	andi	r2,r4,65535
  80376c:	10c7883a 	add	r3,r2,r3
  803770:	28bfffcc 	andi	r2,r5,65535
  803774:	1885c83a 	sub	r2,r3,r2
  803778:	280ad43a 	srli	r5,r5,16
  80377c:	2008d43a 	srli	r4,r4,16
  803780:	1007d43a 	srai	r3,r2,16
  803784:	10bfffcc 	andi	r2,r2,65535
  803788:	2149c83a 	sub	r4,r4,r5
  80378c:	20c9883a 	add	r4,r4,r3
  803790:	200a943a 	slli	r5,r4,16
  803794:	8c400104 	addi	r17,r17,4
  803798:	2007d43a 	srai	r3,r4,16
  80379c:	2884b03a 	or	r2,r5,r2
  8037a0:	30bfff15 	stw	r2,-4(r6)
  8037a4:	e47fed2e 	bgeu	fp,r17,80375c <__alt_data_end+0xff80375c>
  8037a8:	bdc5883a 	add	r2,r23,r23
  8037ac:	1085883a 	add	r2,r2,r2
  8037b0:	9887883a 	add	r3,r19,r2
  8037b4:	18800017 	ldw	r2,0(r3)
  8037b8:	10000c1e 	bne	r2,zero,8037ec <quorem+0x1ec>
  8037bc:	18bfff04 	addi	r2,r3,-4
  8037c0:	9880082e 	bgeu	r19,r2,8037e4 <quorem+0x1e4>
  8037c4:	18ffff17 	ldw	r3,-4(r3)
  8037c8:	18000326 	beq	r3,zero,8037d8 <quorem+0x1d8>
  8037cc:	00000506 	br	8037e4 <quorem+0x1e4>
  8037d0:	10c00017 	ldw	r3,0(r2)
  8037d4:	1800031e 	bne	r3,zero,8037e4 <quorem+0x1e4>
  8037d8:	10bfff04 	addi	r2,r2,-4
  8037dc:	bdffffc4 	addi	r23,r23,-1
  8037e0:	98bffb36 	bltu	r19,r2,8037d0 <__alt_data_end+0xff8037d0>
  8037e4:	d8c00017 	ldw	r3,0(sp)
  8037e8:	1dc00415 	stw	r23,16(r3)
  8037ec:	9005883a 	mov	r2,r18
  8037f0:	dfc00d17 	ldw	ra,52(sp)
  8037f4:	df000c17 	ldw	fp,48(sp)
  8037f8:	ddc00b17 	ldw	r23,44(sp)
  8037fc:	dd800a17 	ldw	r22,40(sp)
  803800:	dd400917 	ldw	r21,36(sp)
  803804:	dd000817 	ldw	r20,32(sp)
  803808:	dcc00717 	ldw	r19,28(sp)
  80380c:	dc800617 	ldw	r18,24(sp)
  803810:	dc400517 	ldw	r17,20(sp)
  803814:	dc000417 	ldw	r16,16(sp)
  803818:	dec00e04 	addi	sp,sp,56
  80381c:	f800283a 	ret
  803820:	0005883a 	mov	r2,zero
  803824:	003ff206 	br	8037f0 <__alt_data_end+0xff8037f0>

00803828 <_dtoa_r>:
  803828:	20801017 	ldw	r2,64(r4)
  80382c:	deffde04 	addi	sp,sp,-136
  803830:	df002015 	stw	fp,128(sp)
  803834:	dcc01b15 	stw	r19,108(sp)
  803838:	dc801a15 	stw	r18,104(sp)
  80383c:	dc401915 	stw	r17,100(sp)
  803840:	dc001815 	stw	r16,96(sp)
  803844:	dfc02115 	stw	ra,132(sp)
  803848:	ddc01f15 	stw	r23,124(sp)
  80384c:	dd801e15 	stw	r22,120(sp)
  803850:	dd401d15 	stw	r21,116(sp)
  803854:	dd001c15 	stw	r20,112(sp)
  803858:	d9c00315 	stw	r7,12(sp)
  80385c:	2039883a 	mov	fp,r4
  803860:	3023883a 	mov	r17,r6
  803864:	2825883a 	mov	r18,r5
  803868:	dc002417 	ldw	r16,144(sp)
  80386c:	3027883a 	mov	r19,r6
  803870:	10000826 	beq	r2,zero,803894 <_dtoa_r+0x6c>
  803874:	21801117 	ldw	r6,68(r4)
  803878:	00c00044 	movi	r3,1
  80387c:	100b883a 	mov	r5,r2
  803880:	1986983a 	sll	r3,r3,r6
  803884:	11800115 	stw	r6,4(r2)
  803888:	10c00215 	stw	r3,8(r2)
  80388c:	08069640 	call	806964 <_Bfree>
  803890:	e0001015 	stw	zero,64(fp)
  803894:	88002e16 	blt	r17,zero,803950 <_dtoa_r+0x128>
  803898:	80000015 	stw	zero,0(r16)
  80389c:	889ffc2c 	andhi	r2,r17,32752
  8038a0:	00dffc34 	movhi	r3,32752
  8038a4:	10c01c26 	beq	r2,r3,803918 <_dtoa_r+0xf0>
  8038a8:	000d883a 	mov	r6,zero
  8038ac:	000f883a 	mov	r7,zero
  8038b0:	9009883a 	mov	r4,r18
  8038b4:	980b883a 	mov	r5,r19
  8038b8:	080c8a80 	call	80c8a8 <__eqdf2>
  8038bc:	10002b1e 	bne	r2,zero,80396c <_dtoa_r+0x144>
  8038c0:	d9c02317 	ldw	r7,140(sp)
  8038c4:	00800044 	movi	r2,1
  8038c8:	38800015 	stw	r2,0(r7)
  8038cc:	d8802517 	ldw	r2,148(sp)
  8038d0:	10019e26 	beq	r2,zero,803f4c <_dtoa_r+0x724>
  8038d4:	d8c02517 	ldw	r3,148(sp)
  8038d8:	00802074 	movhi	r2,129
  8038dc:	10802844 	addi	r2,r2,161
  8038e0:	18800015 	stw	r2,0(r3)
  8038e4:	10bfffc4 	addi	r2,r2,-1
  8038e8:	dfc02117 	ldw	ra,132(sp)
  8038ec:	df002017 	ldw	fp,128(sp)
  8038f0:	ddc01f17 	ldw	r23,124(sp)
  8038f4:	dd801e17 	ldw	r22,120(sp)
  8038f8:	dd401d17 	ldw	r21,116(sp)
  8038fc:	dd001c17 	ldw	r20,112(sp)
  803900:	dcc01b17 	ldw	r19,108(sp)
  803904:	dc801a17 	ldw	r18,104(sp)
  803908:	dc401917 	ldw	r17,100(sp)
  80390c:	dc001817 	ldw	r16,96(sp)
  803910:	dec02204 	addi	sp,sp,136
  803914:	f800283a 	ret
  803918:	d8c02317 	ldw	r3,140(sp)
  80391c:	0089c3c4 	movi	r2,9999
  803920:	18800015 	stw	r2,0(r3)
  803924:	90017726 	beq	r18,zero,803f04 <_dtoa_r+0x6dc>
  803928:	00802074 	movhi	r2,129
  80392c:	10803404 	addi	r2,r2,208
  803930:	d9002517 	ldw	r4,148(sp)
  803934:	203fec26 	beq	r4,zero,8038e8 <__alt_data_end+0xff8038e8>
  803938:	10c000c7 	ldb	r3,3(r2)
  80393c:	1801781e 	bne	r3,zero,803f20 <_dtoa_r+0x6f8>
  803940:	10c000c4 	addi	r3,r2,3
  803944:	d9802517 	ldw	r6,148(sp)
  803948:	30c00015 	stw	r3,0(r6)
  80394c:	003fe606 	br	8038e8 <__alt_data_end+0xff8038e8>
  803950:	04e00034 	movhi	r19,32768
  803954:	9cffffc4 	addi	r19,r19,-1
  803958:	00800044 	movi	r2,1
  80395c:	8ce6703a 	and	r19,r17,r19
  803960:	80800015 	stw	r2,0(r16)
  803964:	9823883a 	mov	r17,r19
  803968:	003fcc06 	br	80389c <__alt_data_end+0xff80389c>
  80396c:	d8800204 	addi	r2,sp,8
  803970:	d8800015 	stw	r2,0(sp)
  803974:	d9c00104 	addi	r7,sp,4
  803978:	900b883a 	mov	r5,r18
  80397c:	980d883a 	mov	r6,r19
  803980:	e009883a 	mov	r4,fp
  803984:	8820d53a 	srli	r16,r17,20
  803988:	080760c0 	call	80760c <__d2b>
  80398c:	d8800915 	stw	r2,36(sp)
  803990:	8001651e 	bne	r16,zero,803f28 <_dtoa_r+0x700>
  803994:	dd800217 	ldw	r22,8(sp)
  803998:	dc000117 	ldw	r16,4(sp)
  80399c:	00800804 	movi	r2,32
  8039a0:	b421883a 	add	r16,r22,r16
  8039a4:	80c10c84 	addi	r3,r16,1074
  8039a8:	10c2d10e 	bge	r2,r3,8044f0 <_dtoa_r+0xcc8>
  8039ac:	00801004 	movi	r2,64
  8039b0:	81010484 	addi	r4,r16,1042
  8039b4:	10c7c83a 	sub	r3,r2,r3
  8039b8:	9108d83a 	srl	r4,r18,r4
  8039bc:	88e2983a 	sll	r17,r17,r3
  8039c0:	2448b03a 	or	r4,r4,r17
  8039c4:	080ddc40 	call	80ddc4 <__floatunsidf>
  8039c8:	017f8434 	movhi	r5,65040
  8039cc:	01800044 	movi	r6,1
  8039d0:	1009883a 	mov	r4,r2
  8039d4:	194b883a 	add	r5,r3,r5
  8039d8:	843fffc4 	addi	r16,r16,-1
  8039dc:	d9801115 	stw	r6,68(sp)
  8039e0:	000d883a 	mov	r6,zero
  8039e4:	01cffe34 	movhi	r7,16376
  8039e8:	080d36c0 	call	80d36c <__subdf3>
  8039ec:	0198dbf4 	movhi	r6,25455
  8039f0:	01cff4f4 	movhi	r7,16339
  8039f4:	3190d844 	addi	r6,r6,17249
  8039f8:	39e1e9c4 	addi	r7,r7,-30809
  8039fc:	1009883a 	mov	r4,r2
  803a00:	180b883a 	mov	r5,r3
  803a04:	080cb000 	call	80cb00 <__muldf3>
  803a08:	01a2d874 	movhi	r6,35681
  803a0c:	01cff1f4 	movhi	r7,16327
  803a10:	31b22cc4 	addi	r6,r6,-14157
  803a14:	39e28a04 	addi	r7,r7,-30168
  803a18:	180b883a 	mov	r5,r3
  803a1c:	1009883a 	mov	r4,r2
  803a20:	080b62c0 	call	80b62c <__adddf3>
  803a24:	8009883a 	mov	r4,r16
  803a28:	1029883a 	mov	r20,r2
  803a2c:	1823883a 	mov	r17,r3
  803a30:	080dce80 	call	80dce8 <__floatsidf>
  803a34:	019427f4 	movhi	r6,20639
  803a38:	01cff4f4 	movhi	r7,16339
  803a3c:	319e7ec4 	addi	r6,r6,31227
  803a40:	39d104c4 	addi	r7,r7,17427
  803a44:	1009883a 	mov	r4,r2
  803a48:	180b883a 	mov	r5,r3
  803a4c:	080cb000 	call	80cb00 <__muldf3>
  803a50:	100d883a 	mov	r6,r2
  803a54:	180f883a 	mov	r7,r3
  803a58:	a009883a 	mov	r4,r20
  803a5c:	880b883a 	mov	r5,r17
  803a60:	080b62c0 	call	80b62c <__adddf3>
  803a64:	1009883a 	mov	r4,r2
  803a68:	180b883a 	mov	r5,r3
  803a6c:	1029883a 	mov	r20,r2
  803a70:	1823883a 	mov	r17,r3
  803a74:	080dc680 	call	80dc68 <__fixdfsi>
  803a78:	000d883a 	mov	r6,zero
  803a7c:	000f883a 	mov	r7,zero
  803a80:	a009883a 	mov	r4,r20
  803a84:	880b883a 	mov	r5,r17
  803a88:	d8800515 	stw	r2,20(sp)
  803a8c:	080ca0c0 	call	80ca0c <__ledf2>
  803a90:	10028716 	blt	r2,zero,8044b0 <_dtoa_r+0xc88>
  803a94:	d8c00517 	ldw	r3,20(sp)
  803a98:	00800584 	movi	r2,22
  803a9c:	10c27536 	bltu	r2,r3,804474 <_dtoa_r+0xc4c>
  803aa0:	180490fa 	slli	r2,r3,3
  803aa4:	00c02074 	movhi	r3,129
  803aa8:	18c05004 	addi	r3,r3,320
  803aac:	1885883a 	add	r2,r3,r2
  803ab0:	11000017 	ldw	r4,0(r2)
  803ab4:	11400117 	ldw	r5,4(r2)
  803ab8:	900d883a 	mov	r6,r18
  803abc:	980f883a 	mov	r7,r19
  803ac0:	080c9300 	call	80c930 <__gedf2>
  803ac4:	00828d0e 	bge	zero,r2,8044fc <_dtoa_r+0xcd4>
  803ac8:	d9000517 	ldw	r4,20(sp)
  803acc:	d8000e15 	stw	zero,56(sp)
  803ad0:	213fffc4 	addi	r4,r4,-1
  803ad4:	d9000515 	stw	r4,20(sp)
  803ad8:	b42dc83a 	sub	r22,r22,r16
  803adc:	b5bfffc4 	addi	r22,r22,-1
  803ae0:	b0026f16 	blt	r22,zero,8044a0 <_dtoa_r+0xc78>
  803ae4:	d8000815 	stw	zero,32(sp)
  803ae8:	d9c00517 	ldw	r7,20(sp)
  803aec:	38026416 	blt	r7,zero,804480 <_dtoa_r+0xc58>
  803af0:	b1ed883a 	add	r22,r22,r7
  803af4:	d9c00d15 	stw	r7,52(sp)
  803af8:	d8000a15 	stw	zero,40(sp)
  803afc:	d9800317 	ldw	r6,12(sp)
  803b00:	00800244 	movi	r2,9
  803b04:	11811436 	bltu	r2,r6,803f58 <_dtoa_r+0x730>
  803b08:	00800144 	movi	r2,5
  803b0c:	1184e10e 	bge	r2,r6,804e94 <_dtoa_r+0x166c>
  803b10:	31bfff04 	addi	r6,r6,-4
  803b14:	d9800315 	stw	r6,12(sp)
  803b18:	0023883a 	mov	r17,zero
  803b1c:	d9800317 	ldw	r6,12(sp)
  803b20:	008000c4 	movi	r2,3
  803b24:	30836726 	beq	r6,r2,8048c4 <_dtoa_r+0x109c>
  803b28:	1183410e 	bge	r2,r6,804830 <_dtoa_r+0x1008>
  803b2c:	d9c00317 	ldw	r7,12(sp)
  803b30:	00800104 	movi	r2,4
  803b34:	38827c26 	beq	r7,r2,804528 <_dtoa_r+0xd00>
  803b38:	00800144 	movi	r2,5
  803b3c:	3884c41e 	bne	r7,r2,804e50 <_dtoa_r+0x1628>
  803b40:	00800044 	movi	r2,1
  803b44:	d8800b15 	stw	r2,44(sp)
  803b48:	d8c00517 	ldw	r3,20(sp)
  803b4c:	d9002217 	ldw	r4,136(sp)
  803b50:	1907883a 	add	r3,r3,r4
  803b54:	19800044 	addi	r6,r3,1
  803b58:	d8c00c15 	stw	r3,48(sp)
  803b5c:	d9800615 	stw	r6,24(sp)
  803b60:	0183a40e 	bge	zero,r6,8049f4 <_dtoa_r+0x11cc>
  803b64:	d9800617 	ldw	r6,24(sp)
  803b68:	3021883a 	mov	r16,r6
  803b6c:	e0001115 	stw	zero,68(fp)
  803b70:	008005c4 	movi	r2,23
  803b74:	1184c92e 	bgeu	r2,r6,804e9c <_dtoa_r+0x1674>
  803b78:	00c00044 	movi	r3,1
  803b7c:	00800104 	movi	r2,4
  803b80:	1085883a 	add	r2,r2,r2
  803b84:	11000504 	addi	r4,r2,20
  803b88:	180b883a 	mov	r5,r3
  803b8c:	18c00044 	addi	r3,r3,1
  803b90:	313ffb2e 	bgeu	r6,r4,803b80 <__alt_data_end+0xff803b80>
  803b94:	e1401115 	stw	r5,68(fp)
  803b98:	e009883a 	mov	r4,fp
  803b9c:	08068bc0 	call	8068bc <_Balloc>
  803ba0:	d8800715 	stw	r2,28(sp)
  803ba4:	e0801015 	stw	r2,64(fp)
  803ba8:	00800384 	movi	r2,14
  803bac:	1400f736 	bltu	r2,r16,803f8c <_dtoa_r+0x764>
  803bb0:	8800f626 	beq	r17,zero,803f8c <_dtoa_r+0x764>
  803bb4:	d9c00517 	ldw	r7,20(sp)
  803bb8:	01c39a0e 	bge	zero,r7,804a24 <_dtoa_r+0x11fc>
  803bbc:	388003cc 	andi	r2,r7,15
  803bc0:	100490fa 	slli	r2,r2,3
  803bc4:	382bd13a 	srai	r21,r7,4
  803bc8:	00c02074 	movhi	r3,129
  803bcc:	18c05004 	addi	r3,r3,320
  803bd0:	1885883a 	add	r2,r3,r2
  803bd4:	a8c0040c 	andi	r3,r21,16
  803bd8:	12400017 	ldw	r9,0(r2)
  803bdc:	12000117 	ldw	r8,4(r2)
  803be0:	18037926 	beq	r3,zero,8049c8 <_dtoa_r+0x11a0>
  803be4:	00802074 	movhi	r2,129
  803be8:	10804604 	addi	r2,r2,280
  803bec:	11800817 	ldw	r6,32(r2)
  803bf0:	11c00917 	ldw	r7,36(r2)
  803bf4:	9009883a 	mov	r4,r18
  803bf8:	980b883a 	mov	r5,r19
  803bfc:	da001715 	stw	r8,92(sp)
  803c00:	da401615 	stw	r9,88(sp)
  803c04:	080bed80 	call	80bed8 <__divdf3>
  803c08:	da001717 	ldw	r8,92(sp)
  803c0c:	da401617 	ldw	r9,88(sp)
  803c10:	ad4003cc 	andi	r21,r21,15
  803c14:	040000c4 	movi	r16,3
  803c18:	1023883a 	mov	r17,r2
  803c1c:	1829883a 	mov	r20,r3
  803c20:	a8001126 	beq	r21,zero,803c68 <_dtoa_r+0x440>
  803c24:	05c02074 	movhi	r23,129
  803c28:	bdc04604 	addi	r23,r23,280
  803c2c:	4805883a 	mov	r2,r9
  803c30:	4007883a 	mov	r3,r8
  803c34:	a980004c 	andi	r6,r21,1
  803c38:	1009883a 	mov	r4,r2
  803c3c:	a82bd07a 	srai	r21,r21,1
  803c40:	180b883a 	mov	r5,r3
  803c44:	30000426 	beq	r6,zero,803c58 <_dtoa_r+0x430>
  803c48:	b9800017 	ldw	r6,0(r23)
  803c4c:	b9c00117 	ldw	r7,4(r23)
  803c50:	84000044 	addi	r16,r16,1
  803c54:	080cb000 	call	80cb00 <__muldf3>
  803c58:	bdc00204 	addi	r23,r23,8
  803c5c:	a83ff51e 	bne	r21,zero,803c34 <__alt_data_end+0xff803c34>
  803c60:	1013883a 	mov	r9,r2
  803c64:	1811883a 	mov	r8,r3
  803c68:	480d883a 	mov	r6,r9
  803c6c:	400f883a 	mov	r7,r8
  803c70:	8809883a 	mov	r4,r17
  803c74:	a00b883a 	mov	r5,r20
  803c78:	080bed80 	call	80bed8 <__divdf3>
  803c7c:	d8800f15 	stw	r2,60(sp)
  803c80:	d8c01015 	stw	r3,64(sp)
  803c84:	d8c00e17 	ldw	r3,56(sp)
  803c88:	18000626 	beq	r3,zero,803ca4 <_dtoa_r+0x47c>
  803c8c:	d9000f17 	ldw	r4,60(sp)
  803c90:	d9401017 	ldw	r5,64(sp)
  803c94:	000d883a 	mov	r6,zero
  803c98:	01cffc34 	movhi	r7,16368
  803c9c:	080ca0c0 	call	80ca0c <__ledf2>
  803ca0:	10040b16 	blt	r2,zero,804cd0 <_dtoa_r+0x14a8>
  803ca4:	8009883a 	mov	r4,r16
  803ca8:	080dce80 	call	80dce8 <__floatsidf>
  803cac:	d9800f17 	ldw	r6,60(sp)
  803cb0:	d9c01017 	ldw	r7,64(sp)
  803cb4:	1009883a 	mov	r4,r2
  803cb8:	180b883a 	mov	r5,r3
  803cbc:	080cb000 	call	80cb00 <__muldf3>
  803cc0:	000d883a 	mov	r6,zero
  803cc4:	01d00734 	movhi	r7,16412
  803cc8:	1009883a 	mov	r4,r2
  803ccc:	180b883a 	mov	r5,r3
  803cd0:	080b62c0 	call	80b62c <__adddf3>
  803cd4:	1021883a 	mov	r16,r2
  803cd8:	d8800617 	ldw	r2,24(sp)
  803cdc:	047f3034 	movhi	r17,64704
  803ce0:	1c63883a 	add	r17,r3,r17
  803ce4:	10031826 	beq	r2,zero,804948 <_dtoa_r+0x1120>
  803ce8:	d8c00517 	ldw	r3,20(sp)
  803cec:	db000617 	ldw	r12,24(sp)
  803cf0:	d8c01315 	stw	r3,76(sp)
  803cf4:	d9000b17 	ldw	r4,44(sp)
  803cf8:	20038f26 	beq	r4,zero,804b38 <_dtoa_r+0x1310>
  803cfc:	60bfffc4 	addi	r2,r12,-1
  803d00:	100490fa 	slli	r2,r2,3
  803d04:	00c02074 	movhi	r3,129
  803d08:	18c05004 	addi	r3,r3,320
  803d0c:	1885883a 	add	r2,r3,r2
  803d10:	11800017 	ldw	r6,0(r2)
  803d14:	11c00117 	ldw	r7,4(r2)
  803d18:	d8800717 	ldw	r2,28(sp)
  803d1c:	0009883a 	mov	r4,zero
  803d20:	014ff834 	movhi	r5,16352
  803d24:	db001615 	stw	r12,88(sp)
  803d28:	15c00044 	addi	r23,r2,1
  803d2c:	080bed80 	call	80bed8 <__divdf3>
  803d30:	800d883a 	mov	r6,r16
  803d34:	880f883a 	mov	r7,r17
  803d38:	1009883a 	mov	r4,r2
  803d3c:	180b883a 	mov	r5,r3
  803d40:	080d36c0 	call	80d36c <__subdf3>
  803d44:	d9401017 	ldw	r5,64(sp)
  803d48:	d9000f17 	ldw	r4,60(sp)
  803d4c:	102b883a 	mov	r21,r2
  803d50:	d8c01215 	stw	r3,72(sp)
  803d54:	080dc680 	call	80dc68 <__fixdfsi>
  803d58:	1009883a 	mov	r4,r2
  803d5c:	1029883a 	mov	r20,r2
  803d60:	080dce80 	call	80dce8 <__floatsidf>
  803d64:	d9000f17 	ldw	r4,60(sp)
  803d68:	d9401017 	ldw	r5,64(sp)
  803d6c:	100d883a 	mov	r6,r2
  803d70:	180f883a 	mov	r7,r3
  803d74:	080d36c0 	call	80d36c <__subdf3>
  803d78:	1823883a 	mov	r17,r3
  803d7c:	d8c00717 	ldw	r3,28(sp)
  803d80:	d9401217 	ldw	r5,72(sp)
  803d84:	a2000c04 	addi	r8,r20,48
  803d88:	1021883a 	mov	r16,r2
  803d8c:	1a000005 	stb	r8,0(r3)
  803d90:	800d883a 	mov	r6,r16
  803d94:	880f883a 	mov	r7,r17
  803d98:	a809883a 	mov	r4,r21
  803d9c:	4029883a 	mov	r20,r8
  803da0:	080c9300 	call	80c930 <__gedf2>
  803da4:	00841d16 	blt	zero,r2,804e1c <_dtoa_r+0x15f4>
  803da8:	800d883a 	mov	r6,r16
  803dac:	880f883a 	mov	r7,r17
  803db0:	0009883a 	mov	r4,zero
  803db4:	014ffc34 	movhi	r5,16368
  803db8:	080d36c0 	call	80d36c <__subdf3>
  803dbc:	d9401217 	ldw	r5,72(sp)
  803dc0:	100d883a 	mov	r6,r2
  803dc4:	180f883a 	mov	r7,r3
  803dc8:	a809883a 	mov	r4,r21
  803dcc:	080c9300 	call	80c930 <__gedf2>
  803dd0:	db001617 	ldw	r12,88(sp)
  803dd4:	00840e16 	blt	zero,r2,804e10 <_dtoa_r+0x15e8>
  803dd8:	00800044 	movi	r2,1
  803ddc:	13006b0e 	bge	r2,r12,803f8c <_dtoa_r+0x764>
  803de0:	d9000717 	ldw	r4,28(sp)
  803de4:	dd800f15 	stw	r22,60(sp)
  803de8:	dcc01015 	stw	r19,64(sp)
  803dec:	2319883a 	add	r12,r4,r12
  803df0:	dcc01217 	ldw	r19,72(sp)
  803df4:	602d883a 	mov	r22,r12
  803df8:	dc801215 	stw	r18,72(sp)
  803dfc:	b825883a 	mov	r18,r23
  803e00:	00000906 	br	803e28 <_dtoa_r+0x600>
  803e04:	080d36c0 	call	80d36c <__subdf3>
  803e08:	a80d883a 	mov	r6,r21
  803e0c:	980f883a 	mov	r7,r19
  803e10:	1009883a 	mov	r4,r2
  803e14:	180b883a 	mov	r5,r3
  803e18:	080ca0c0 	call	80ca0c <__ledf2>
  803e1c:	1003e816 	blt	r2,zero,804dc0 <_dtoa_r+0x1598>
  803e20:	b825883a 	mov	r18,r23
  803e24:	bd83e926 	beq	r23,r22,804dcc <_dtoa_r+0x15a4>
  803e28:	a809883a 	mov	r4,r21
  803e2c:	980b883a 	mov	r5,r19
  803e30:	000d883a 	mov	r6,zero
  803e34:	01d00934 	movhi	r7,16420
  803e38:	080cb000 	call	80cb00 <__muldf3>
  803e3c:	000d883a 	mov	r6,zero
  803e40:	01d00934 	movhi	r7,16420
  803e44:	8009883a 	mov	r4,r16
  803e48:	880b883a 	mov	r5,r17
  803e4c:	102b883a 	mov	r21,r2
  803e50:	1827883a 	mov	r19,r3
  803e54:	080cb000 	call	80cb00 <__muldf3>
  803e58:	180b883a 	mov	r5,r3
  803e5c:	1009883a 	mov	r4,r2
  803e60:	1821883a 	mov	r16,r3
  803e64:	1023883a 	mov	r17,r2
  803e68:	080dc680 	call	80dc68 <__fixdfsi>
  803e6c:	1009883a 	mov	r4,r2
  803e70:	1029883a 	mov	r20,r2
  803e74:	080dce80 	call	80dce8 <__floatsidf>
  803e78:	8809883a 	mov	r4,r17
  803e7c:	800b883a 	mov	r5,r16
  803e80:	100d883a 	mov	r6,r2
  803e84:	180f883a 	mov	r7,r3
  803e88:	080d36c0 	call	80d36c <__subdf3>
  803e8c:	a5000c04 	addi	r20,r20,48
  803e90:	a80d883a 	mov	r6,r21
  803e94:	980f883a 	mov	r7,r19
  803e98:	1009883a 	mov	r4,r2
  803e9c:	180b883a 	mov	r5,r3
  803ea0:	95000005 	stb	r20,0(r18)
  803ea4:	1021883a 	mov	r16,r2
  803ea8:	1823883a 	mov	r17,r3
  803eac:	080ca0c0 	call	80ca0c <__ledf2>
  803eb0:	bdc00044 	addi	r23,r23,1
  803eb4:	800d883a 	mov	r6,r16
  803eb8:	880f883a 	mov	r7,r17
  803ebc:	0009883a 	mov	r4,zero
  803ec0:	014ffc34 	movhi	r5,16368
  803ec4:	103fcf0e 	bge	r2,zero,803e04 <__alt_data_end+0xff803e04>
  803ec8:	d8c01317 	ldw	r3,76(sp)
  803ecc:	d8c00515 	stw	r3,20(sp)
  803ed0:	d9400917 	ldw	r5,36(sp)
  803ed4:	e009883a 	mov	r4,fp
  803ed8:	08069640 	call	806964 <_Bfree>
  803edc:	d9000517 	ldw	r4,20(sp)
  803ee0:	d9802317 	ldw	r6,140(sp)
  803ee4:	d9c02517 	ldw	r7,148(sp)
  803ee8:	b8000005 	stb	zero,0(r23)
  803eec:	20800044 	addi	r2,r4,1
  803ef0:	30800015 	stw	r2,0(r6)
  803ef4:	3802aa26 	beq	r7,zero,8049a0 <_dtoa_r+0x1178>
  803ef8:	3dc00015 	stw	r23,0(r7)
  803efc:	d8800717 	ldw	r2,28(sp)
  803f00:	003e7906 	br	8038e8 <__alt_data_end+0xff8038e8>
  803f04:	00800434 	movhi	r2,16
  803f08:	10bfffc4 	addi	r2,r2,-1
  803f0c:	88a2703a 	and	r17,r17,r2
  803f10:	883e851e 	bne	r17,zero,803928 <__alt_data_end+0xff803928>
  803f14:	00802074 	movhi	r2,129
  803f18:	10803104 	addi	r2,r2,196
  803f1c:	003e8406 	br	803930 <__alt_data_end+0xff803930>
  803f20:	10c00204 	addi	r3,r2,8
  803f24:	003e8706 	br	803944 <__alt_data_end+0xff803944>
  803f28:	01400434 	movhi	r5,16
  803f2c:	297fffc4 	addi	r5,r5,-1
  803f30:	994a703a 	and	r5,r19,r5
  803f34:	9009883a 	mov	r4,r18
  803f38:	843f0044 	addi	r16,r16,-1023
  803f3c:	294ffc34 	orhi	r5,r5,16368
  803f40:	dd800217 	ldw	r22,8(sp)
  803f44:	d8001115 	stw	zero,68(sp)
  803f48:	003ea506 	br	8039e0 <__alt_data_end+0xff8039e0>
  803f4c:	00802074 	movhi	r2,129
  803f50:	10802804 	addi	r2,r2,160
  803f54:	003e6406 	br	8038e8 <__alt_data_end+0xff8038e8>
  803f58:	e0001115 	stw	zero,68(fp)
  803f5c:	000b883a 	mov	r5,zero
  803f60:	e009883a 	mov	r4,fp
  803f64:	08068bc0 	call	8068bc <_Balloc>
  803f68:	01bfffc4 	movi	r6,-1
  803f6c:	01c00044 	movi	r7,1
  803f70:	d8800715 	stw	r2,28(sp)
  803f74:	d9800c15 	stw	r6,48(sp)
  803f78:	e0801015 	stw	r2,64(fp)
  803f7c:	d8000315 	stw	zero,12(sp)
  803f80:	d9c00b15 	stw	r7,44(sp)
  803f84:	d9800615 	stw	r6,24(sp)
  803f88:	d8002215 	stw	zero,136(sp)
  803f8c:	d8800117 	ldw	r2,4(sp)
  803f90:	10008916 	blt	r2,zero,8041b8 <_dtoa_r+0x990>
  803f94:	d9000517 	ldw	r4,20(sp)
  803f98:	00c00384 	movi	r3,14
  803f9c:	19008616 	blt	r3,r4,8041b8 <_dtoa_r+0x990>
  803fa0:	200490fa 	slli	r2,r4,3
  803fa4:	00c02074 	movhi	r3,129
  803fa8:	d9802217 	ldw	r6,136(sp)
  803fac:	18c05004 	addi	r3,r3,320
  803fb0:	1885883a 	add	r2,r3,r2
  803fb4:	14000017 	ldw	r16,0(r2)
  803fb8:	14400117 	ldw	r17,4(r2)
  803fbc:	30016316 	blt	r6,zero,80454c <_dtoa_r+0xd24>
  803fc0:	800d883a 	mov	r6,r16
  803fc4:	880f883a 	mov	r7,r17
  803fc8:	9009883a 	mov	r4,r18
  803fcc:	980b883a 	mov	r5,r19
  803fd0:	080bed80 	call	80bed8 <__divdf3>
  803fd4:	180b883a 	mov	r5,r3
  803fd8:	1009883a 	mov	r4,r2
  803fdc:	080dc680 	call	80dc68 <__fixdfsi>
  803fe0:	1009883a 	mov	r4,r2
  803fe4:	102b883a 	mov	r21,r2
  803fe8:	080dce80 	call	80dce8 <__floatsidf>
  803fec:	800d883a 	mov	r6,r16
  803ff0:	880f883a 	mov	r7,r17
  803ff4:	1009883a 	mov	r4,r2
  803ff8:	180b883a 	mov	r5,r3
  803ffc:	080cb000 	call	80cb00 <__muldf3>
  804000:	100d883a 	mov	r6,r2
  804004:	180f883a 	mov	r7,r3
  804008:	9009883a 	mov	r4,r18
  80400c:	980b883a 	mov	r5,r19
  804010:	080d36c0 	call	80d36c <__subdf3>
  804014:	d9c00717 	ldw	r7,28(sp)
  804018:	1009883a 	mov	r4,r2
  80401c:	a8800c04 	addi	r2,r21,48
  804020:	38800005 	stb	r2,0(r7)
  804024:	3dc00044 	addi	r23,r7,1
  804028:	d9c00617 	ldw	r7,24(sp)
  80402c:	01800044 	movi	r6,1
  804030:	180b883a 	mov	r5,r3
  804034:	2005883a 	mov	r2,r4
  804038:	39803826 	beq	r7,r6,80411c <_dtoa_r+0x8f4>
  80403c:	000d883a 	mov	r6,zero
  804040:	01d00934 	movhi	r7,16420
  804044:	080cb000 	call	80cb00 <__muldf3>
  804048:	000d883a 	mov	r6,zero
  80404c:	000f883a 	mov	r7,zero
  804050:	1009883a 	mov	r4,r2
  804054:	180b883a 	mov	r5,r3
  804058:	1025883a 	mov	r18,r2
  80405c:	1827883a 	mov	r19,r3
  804060:	080c8a80 	call	80c8a8 <__eqdf2>
  804064:	103f9a26 	beq	r2,zero,803ed0 <__alt_data_end+0xff803ed0>
  804068:	d9c00617 	ldw	r7,24(sp)
  80406c:	d8c00717 	ldw	r3,28(sp)
  804070:	b829883a 	mov	r20,r23
  804074:	38bfffc4 	addi	r2,r7,-1
  804078:	18ad883a 	add	r22,r3,r2
  80407c:	00000a06 	br	8040a8 <_dtoa_r+0x880>
  804080:	080cb000 	call	80cb00 <__muldf3>
  804084:	000d883a 	mov	r6,zero
  804088:	000f883a 	mov	r7,zero
  80408c:	1009883a 	mov	r4,r2
  804090:	180b883a 	mov	r5,r3
  804094:	1025883a 	mov	r18,r2
  804098:	1827883a 	mov	r19,r3
  80409c:	b829883a 	mov	r20,r23
  8040a0:	080c8a80 	call	80c8a8 <__eqdf2>
  8040a4:	103f8a26 	beq	r2,zero,803ed0 <__alt_data_end+0xff803ed0>
  8040a8:	800d883a 	mov	r6,r16
  8040ac:	880f883a 	mov	r7,r17
  8040b0:	9009883a 	mov	r4,r18
  8040b4:	980b883a 	mov	r5,r19
  8040b8:	080bed80 	call	80bed8 <__divdf3>
  8040bc:	180b883a 	mov	r5,r3
  8040c0:	1009883a 	mov	r4,r2
  8040c4:	080dc680 	call	80dc68 <__fixdfsi>
  8040c8:	1009883a 	mov	r4,r2
  8040cc:	102b883a 	mov	r21,r2
  8040d0:	080dce80 	call	80dce8 <__floatsidf>
  8040d4:	800d883a 	mov	r6,r16
  8040d8:	880f883a 	mov	r7,r17
  8040dc:	1009883a 	mov	r4,r2
  8040e0:	180b883a 	mov	r5,r3
  8040e4:	080cb000 	call	80cb00 <__muldf3>
  8040e8:	100d883a 	mov	r6,r2
  8040ec:	180f883a 	mov	r7,r3
  8040f0:	9009883a 	mov	r4,r18
  8040f4:	980b883a 	mov	r5,r19
  8040f8:	080d36c0 	call	80d36c <__subdf3>
  8040fc:	aa000c04 	addi	r8,r21,48
  804100:	a2000005 	stb	r8,0(r20)
  804104:	000d883a 	mov	r6,zero
  804108:	01d00934 	movhi	r7,16420
  80410c:	1009883a 	mov	r4,r2
  804110:	180b883a 	mov	r5,r3
  804114:	a5c00044 	addi	r23,r20,1
  804118:	b53fd91e 	bne	r22,r20,804080 <__alt_data_end+0xff804080>
  80411c:	100d883a 	mov	r6,r2
  804120:	180f883a 	mov	r7,r3
  804124:	1009883a 	mov	r4,r2
  804128:	180b883a 	mov	r5,r3
  80412c:	080b62c0 	call	80b62c <__adddf3>
  804130:	100d883a 	mov	r6,r2
  804134:	180f883a 	mov	r7,r3
  804138:	8009883a 	mov	r4,r16
  80413c:	880b883a 	mov	r5,r17
  804140:	1027883a 	mov	r19,r2
  804144:	1825883a 	mov	r18,r3
  804148:	080ca0c0 	call	80ca0c <__ledf2>
  80414c:	10000816 	blt	r2,zero,804170 <_dtoa_r+0x948>
  804150:	980d883a 	mov	r6,r19
  804154:	900f883a 	mov	r7,r18
  804158:	8009883a 	mov	r4,r16
  80415c:	880b883a 	mov	r5,r17
  804160:	080c8a80 	call	80c8a8 <__eqdf2>
  804164:	103f5a1e 	bne	r2,zero,803ed0 <__alt_data_end+0xff803ed0>
  804168:	ad40004c 	andi	r21,r21,1
  80416c:	a83f5826 	beq	r21,zero,803ed0 <__alt_data_end+0xff803ed0>
  804170:	bd3fffc3 	ldbu	r20,-1(r23)
  804174:	b8bfffc4 	addi	r2,r23,-1
  804178:	1007883a 	mov	r3,r2
  80417c:	01400e44 	movi	r5,57
  804180:	d9800717 	ldw	r6,28(sp)
  804184:	00000506 	br	80419c <_dtoa_r+0x974>
  804188:	18ffffc4 	addi	r3,r3,-1
  80418c:	11824726 	beq	r2,r6,804aac <_dtoa_r+0x1284>
  804190:	1d000003 	ldbu	r20,0(r3)
  804194:	102f883a 	mov	r23,r2
  804198:	10bfffc4 	addi	r2,r2,-1
  80419c:	a1003fcc 	andi	r4,r20,255
  8041a0:	2100201c 	xori	r4,r4,128
  8041a4:	213fe004 	addi	r4,r4,-128
  8041a8:	217ff726 	beq	r4,r5,804188 <__alt_data_end+0xff804188>
  8041ac:	a2000044 	addi	r8,r20,1
  8041b0:	12000005 	stb	r8,0(r2)
  8041b4:	003f4606 	br	803ed0 <__alt_data_end+0xff803ed0>
  8041b8:	d9000b17 	ldw	r4,44(sp)
  8041bc:	2000c826 	beq	r4,zero,8044e0 <_dtoa_r+0xcb8>
  8041c0:	d9800317 	ldw	r6,12(sp)
  8041c4:	00c00044 	movi	r3,1
  8041c8:	1980f90e 	bge	r3,r6,8045b0 <_dtoa_r+0xd88>
  8041cc:	d8800617 	ldw	r2,24(sp)
  8041d0:	d8c00a17 	ldw	r3,40(sp)
  8041d4:	157fffc4 	addi	r21,r2,-1
  8041d8:	1d41f316 	blt	r3,r21,8049a8 <_dtoa_r+0x1180>
  8041dc:	1d6bc83a 	sub	r21,r3,r21
  8041e0:	d9c00617 	ldw	r7,24(sp)
  8041e4:	3802aa16 	blt	r7,zero,804c90 <_dtoa_r+0x1468>
  8041e8:	dd000817 	ldw	r20,32(sp)
  8041ec:	d8800617 	ldw	r2,24(sp)
  8041f0:	d8c00817 	ldw	r3,32(sp)
  8041f4:	01400044 	movi	r5,1
  8041f8:	e009883a 	mov	r4,fp
  8041fc:	1887883a 	add	r3,r3,r2
  804200:	d8c00815 	stw	r3,32(sp)
  804204:	b0ad883a 	add	r22,r22,r2
  804208:	0806cf00 	call	806cf0 <__i2b>
  80420c:	1023883a 	mov	r17,r2
  804210:	a0000826 	beq	r20,zero,804234 <_dtoa_r+0xa0c>
  804214:	0580070e 	bge	zero,r22,804234 <_dtoa_r+0xa0c>
  804218:	a005883a 	mov	r2,r20
  80421c:	b500b916 	blt	r22,r20,804504 <_dtoa_r+0xcdc>
  804220:	d9000817 	ldw	r4,32(sp)
  804224:	a0a9c83a 	sub	r20,r20,r2
  804228:	b0adc83a 	sub	r22,r22,r2
  80422c:	2089c83a 	sub	r4,r4,r2
  804230:	d9000815 	stw	r4,32(sp)
  804234:	d9800a17 	ldw	r6,40(sp)
  804238:	0181810e 	bge	zero,r6,804840 <_dtoa_r+0x1018>
  80423c:	d9c00b17 	ldw	r7,44(sp)
  804240:	3800b326 	beq	r7,zero,804510 <_dtoa_r+0xce8>
  804244:	a800b226 	beq	r21,zero,804510 <_dtoa_r+0xce8>
  804248:	880b883a 	mov	r5,r17
  80424c:	a80d883a 	mov	r6,r21
  804250:	e009883a 	mov	r4,fp
  804254:	0806fb80 	call	806fb8 <__pow5mult>
  804258:	d9800917 	ldw	r6,36(sp)
  80425c:	100b883a 	mov	r5,r2
  804260:	e009883a 	mov	r4,fp
  804264:	1023883a 	mov	r17,r2
  804268:	0806d2c0 	call	806d2c <__multiply>
  80426c:	1021883a 	mov	r16,r2
  804270:	d8800a17 	ldw	r2,40(sp)
  804274:	d9400917 	ldw	r5,36(sp)
  804278:	e009883a 	mov	r4,fp
  80427c:	1545c83a 	sub	r2,r2,r21
  804280:	d8800a15 	stw	r2,40(sp)
  804284:	08069640 	call	806964 <_Bfree>
  804288:	d8c00a17 	ldw	r3,40(sp)
  80428c:	18009f1e 	bne	r3,zero,80450c <_dtoa_r+0xce4>
  804290:	05c00044 	movi	r23,1
  804294:	e009883a 	mov	r4,fp
  804298:	b80b883a 	mov	r5,r23
  80429c:	0806cf00 	call	806cf0 <__i2b>
  8042a0:	d9000d17 	ldw	r4,52(sp)
  8042a4:	102b883a 	mov	r21,r2
  8042a8:	2000ce26 	beq	r4,zero,8045e4 <_dtoa_r+0xdbc>
  8042ac:	200d883a 	mov	r6,r4
  8042b0:	100b883a 	mov	r5,r2
  8042b4:	e009883a 	mov	r4,fp
  8042b8:	0806fb80 	call	806fb8 <__pow5mult>
  8042bc:	d9800317 	ldw	r6,12(sp)
  8042c0:	102b883a 	mov	r21,r2
  8042c4:	b981810e 	bge	r23,r6,8048cc <_dtoa_r+0x10a4>
  8042c8:	0027883a 	mov	r19,zero
  8042cc:	a8800417 	ldw	r2,16(r21)
  8042d0:	05c00804 	movi	r23,32
  8042d4:	10800104 	addi	r2,r2,4
  8042d8:	1085883a 	add	r2,r2,r2
  8042dc:	1085883a 	add	r2,r2,r2
  8042e0:	a885883a 	add	r2,r21,r2
  8042e4:	11000017 	ldw	r4,0(r2)
  8042e8:	0806bd80 	call	806bd8 <__hi0bits>
  8042ec:	b885c83a 	sub	r2,r23,r2
  8042f0:	1585883a 	add	r2,r2,r22
  8042f4:	108007cc 	andi	r2,r2,31
  8042f8:	1000b326 	beq	r2,zero,8045c8 <_dtoa_r+0xda0>
  8042fc:	00c00804 	movi	r3,32
  804300:	1887c83a 	sub	r3,r3,r2
  804304:	01000104 	movi	r4,4
  804308:	20c2cd0e 	bge	r4,r3,804e40 <_dtoa_r+0x1618>
  80430c:	00c00704 	movi	r3,28
  804310:	1885c83a 	sub	r2,r3,r2
  804314:	d8c00817 	ldw	r3,32(sp)
  804318:	a0a9883a 	add	r20,r20,r2
  80431c:	b0ad883a 	add	r22,r22,r2
  804320:	1887883a 	add	r3,r3,r2
  804324:	d8c00815 	stw	r3,32(sp)
  804328:	d9800817 	ldw	r6,32(sp)
  80432c:	0180040e 	bge	zero,r6,804340 <_dtoa_r+0xb18>
  804330:	800b883a 	mov	r5,r16
  804334:	e009883a 	mov	r4,fp
  804338:	08070f80 	call	8070f8 <__lshift>
  80433c:	1021883a 	mov	r16,r2
  804340:	0580050e 	bge	zero,r22,804358 <_dtoa_r+0xb30>
  804344:	a80b883a 	mov	r5,r21
  804348:	b00d883a 	mov	r6,r22
  80434c:	e009883a 	mov	r4,fp
  804350:	08070f80 	call	8070f8 <__lshift>
  804354:	102b883a 	mov	r21,r2
  804358:	d9c00e17 	ldw	r7,56(sp)
  80435c:	3801211e 	bne	r7,zero,8047e4 <_dtoa_r+0xfbc>
  804360:	d9800617 	ldw	r6,24(sp)
  804364:	0181380e 	bge	zero,r6,804848 <_dtoa_r+0x1020>
  804368:	d8c00b17 	ldw	r3,44(sp)
  80436c:	1800ab1e 	bne	r3,zero,80461c <_dtoa_r+0xdf4>
  804370:	dc800717 	ldw	r18,28(sp)
  804374:	dcc00617 	ldw	r19,24(sp)
  804378:	9029883a 	mov	r20,r18
  80437c:	00000206 	br	804388 <_dtoa_r+0xb60>
  804380:	080698c0 	call	80698c <__multadd>
  804384:	1021883a 	mov	r16,r2
  804388:	a80b883a 	mov	r5,r21
  80438c:	8009883a 	mov	r4,r16
  804390:	08036000 	call	803600 <quorem>
  804394:	10800c04 	addi	r2,r2,48
  804398:	90800005 	stb	r2,0(r18)
  80439c:	94800044 	addi	r18,r18,1
  8043a0:	9507c83a 	sub	r3,r18,r20
  8043a4:	000f883a 	mov	r7,zero
  8043a8:	01800284 	movi	r6,10
  8043ac:	800b883a 	mov	r5,r16
  8043b0:	e009883a 	mov	r4,fp
  8043b4:	1cfff216 	blt	r3,r19,804380 <__alt_data_end+0xff804380>
  8043b8:	1011883a 	mov	r8,r2
  8043bc:	d8800617 	ldw	r2,24(sp)
  8043c0:	0082370e 	bge	zero,r2,804ca0 <_dtoa_r+0x1478>
  8043c4:	d9000717 	ldw	r4,28(sp)
  8043c8:	0025883a 	mov	r18,zero
  8043cc:	20af883a 	add	r23,r4,r2
  8043d0:	01800044 	movi	r6,1
  8043d4:	800b883a 	mov	r5,r16
  8043d8:	e009883a 	mov	r4,fp
  8043dc:	da001715 	stw	r8,92(sp)
  8043e0:	08070f80 	call	8070f8 <__lshift>
  8043e4:	a80b883a 	mov	r5,r21
  8043e8:	1009883a 	mov	r4,r2
  8043ec:	d8800915 	stw	r2,36(sp)
  8043f0:	08072400 	call	807240 <__mcmp>
  8043f4:	da001717 	ldw	r8,92(sp)
  8043f8:	0081800e 	bge	zero,r2,8049fc <_dtoa_r+0x11d4>
  8043fc:	b93fffc3 	ldbu	r4,-1(r23)
  804400:	b8bfffc4 	addi	r2,r23,-1
  804404:	1007883a 	mov	r3,r2
  804408:	01800e44 	movi	r6,57
  80440c:	d9c00717 	ldw	r7,28(sp)
  804410:	00000506 	br	804428 <_dtoa_r+0xc00>
  804414:	18ffffc4 	addi	r3,r3,-1
  804418:	11c12326 	beq	r2,r7,8048a8 <_dtoa_r+0x1080>
  80441c:	19000003 	ldbu	r4,0(r3)
  804420:	102f883a 	mov	r23,r2
  804424:	10bfffc4 	addi	r2,r2,-1
  804428:	21403fcc 	andi	r5,r4,255
  80442c:	2940201c 	xori	r5,r5,128
  804430:	297fe004 	addi	r5,r5,-128
  804434:	29bff726 	beq	r5,r6,804414 <__alt_data_end+0xff804414>
  804438:	21000044 	addi	r4,r4,1
  80443c:	11000005 	stb	r4,0(r2)
  804440:	a80b883a 	mov	r5,r21
  804444:	e009883a 	mov	r4,fp
  804448:	08069640 	call	806964 <_Bfree>
  80444c:	883ea026 	beq	r17,zero,803ed0 <__alt_data_end+0xff803ed0>
  804450:	90000426 	beq	r18,zero,804464 <_dtoa_r+0xc3c>
  804454:	94400326 	beq	r18,r17,804464 <_dtoa_r+0xc3c>
  804458:	900b883a 	mov	r5,r18
  80445c:	e009883a 	mov	r4,fp
  804460:	08069640 	call	806964 <_Bfree>
  804464:	880b883a 	mov	r5,r17
  804468:	e009883a 	mov	r4,fp
  80446c:	08069640 	call	806964 <_Bfree>
  804470:	003e9706 	br	803ed0 <__alt_data_end+0xff803ed0>
  804474:	01800044 	movi	r6,1
  804478:	d9800e15 	stw	r6,56(sp)
  80447c:	003d9606 	br	803ad8 <__alt_data_end+0xff803ad8>
  804480:	d8800817 	ldw	r2,32(sp)
  804484:	d8c00517 	ldw	r3,20(sp)
  804488:	d8000d15 	stw	zero,52(sp)
  80448c:	10c5c83a 	sub	r2,r2,r3
  804490:	00c9c83a 	sub	r4,zero,r3
  804494:	d8800815 	stw	r2,32(sp)
  804498:	d9000a15 	stw	r4,40(sp)
  80449c:	003d9706 	br	803afc <__alt_data_end+0xff803afc>
  8044a0:	05adc83a 	sub	r22,zero,r22
  8044a4:	dd800815 	stw	r22,32(sp)
  8044a8:	002d883a 	mov	r22,zero
  8044ac:	003d8e06 	br	803ae8 <__alt_data_end+0xff803ae8>
  8044b0:	d9000517 	ldw	r4,20(sp)
  8044b4:	080dce80 	call	80dce8 <__floatsidf>
  8044b8:	100d883a 	mov	r6,r2
  8044bc:	180f883a 	mov	r7,r3
  8044c0:	a009883a 	mov	r4,r20
  8044c4:	880b883a 	mov	r5,r17
  8044c8:	080c8a80 	call	80c8a8 <__eqdf2>
  8044cc:	103d7126 	beq	r2,zero,803a94 <__alt_data_end+0xff803a94>
  8044d0:	d9c00517 	ldw	r7,20(sp)
  8044d4:	39ffffc4 	addi	r7,r7,-1
  8044d8:	d9c00515 	stw	r7,20(sp)
  8044dc:	003d6d06 	br	803a94 <__alt_data_end+0xff803a94>
  8044e0:	dd400a17 	ldw	r21,40(sp)
  8044e4:	dd000817 	ldw	r20,32(sp)
  8044e8:	0023883a 	mov	r17,zero
  8044ec:	003f4806 	br	804210 <__alt_data_end+0xff804210>
  8044f0:	10e3c83a 	sub	r17,r2,r3
  8044f4:	9448983a 	sll	r4,r18,r17
  8044f8:	003d3206 	br	8039c4 <__alt_data_end+0xff8039c4>
  8044fc:	d8000e15 	stw	zero,56(sp)
  804500:	003d7506 	br	803ad8 <__alt_data_end+0xff803ad8>
  804504:	b005883a 	mov	r2,r22
  804508:	003f4506 	br	804220 <__alt_data_end+0xff804220>
  80450c:	dc000915 	stw	r16,36(sp)
  804510:	d9800a17 	ldw	r6,40(sp)
  804514:	d9400917 	ldw	r5,36(sp)
  804518:	e009883a 	mov	r4,fp
  80451c:	0806fb80 	call	806fb8 <__pow5mult>
  804520:	1021883a 	mov	r16,r2
  804524:	003f5a06 	br	804290 <__alt_data_end+0xff804290>
  804528:	01c00044 	movi	r7,1
  80452c:	d9c00b15 	stw	r7,44(sp)
  804530:	d8802217 	ldw	r2,136(sp)
  804534:	0081280e 	bge	zero,r2,8049d8 <_dtoa_r+0x11b0>
  804538:	100d883a 	mov	r6,r2
  80453c:	1021883a 	mov	r16,r2
  804540:	d8800c15 	stw	r2,48(sp)
  804544:	d8800615 	stw	r2,24(sp)
  804548:	003d8806 	br	803b6c <__alt_data_end+0xff803b6c>
  80454c:	d8800617 	ldw	r2,24(sp)
  804550:	00be9b16 	blt	zero,r2,803fc0 <__alt_data_end+0xff803fc0>
  804554:	10010f1e 	bne	r2,zero,804994 <_dtoa_r+0x116c>
  804558:	880b883a 	mov	r5,r17
  80455c:	000d883a 	mov	r6,zero
  804560:	01d00534 	movhi	r7,16404
  804564:	8009883a 	mov	r4,r16
  804568:	080cb000 	call	80cb00 <__muldf3>
  80456c:	900d883a 	mov	r6,r18
  804570:	980f883a 	mov	r7,r19
  804574:	1009883a 	mov	r4,r2
  804578:	180b883a 	mov	r5,r3
  80457c:	080c9300 	call	80c930 <__gedf2>
  804580:	002b883a 	mov	r21,zero
  804584:	0023883a 	mov	r17,zero
  804588:	1000bf16 	blt	r2,zero,804888 <_dtoa_r+0x1060>
  80458c:	d9802217 	ldw	r6,136(sp)
  804590:	ddc00717 	ldw	r23,28(sp)
  804594:	018c303a 	nor	r6,zero,r6
  804598:	d9800515 	stw	r6,20(sp)
  80459c:	a80b883a 	mov	r5,r21
  8045a0:	e009883a 	mov	r4,fp
  8045a4:	08069640 	call	806964 <_Bfree>
  8045a8:	883e4926 	beq	r17,zero,803ed0 <__alt_data_end+0xff803ed0>
  8045ac:	003fad06 	br	804464 <__alt_data_end+0xff804464>
  8045b0:	d9c01117 	ldw	r7,68(sp)
  8045b4:	3801bc26 	beq	r7,zero,804ca8 <_dtoa_r+0x1480>
  8045b8:	10810cc4 	addi	r2,r2,1075
  8045bc:	dd400a17 	ldw	r21,40(sp)
  8045c0:	dd000817 	ldw	r20,32(sp)
  8045c4:	003f0a06 	br	8041f0 <__alt_data_end+0xff8041f0>
  8045c8:	00800704 	movi	r2,28
  8045cc:	d9000817 	ldw	r4,32(sp)
  8045d0:	a0a9883a 	add	r20,r20,r2
  8045d4:	b0ad883a 	add	r22,r22,r2
  8045d8:	2089883a 	add	r4,r4,r2
  8045dc:	d9000815 	stw	r4,32(sp)
  8045e0:	003f5106 	br	804328 <__alt_data_end+0xff804328>
  8045e4:	d8c00317 	ldw	r3,12(sp)
  8045e8:	b8c1fc0e 	bge	r23,r3,804ddc <_dtoa_r+0x15b4>
  8045ec:	0027883a 	mov	r19,zero
  8045f0:	b805883a 	mov	r2,r23
  8045f4:	003f3e06 	br	8042f0 <__alt_data_end+0xff8042f0>
  8045f8:	880b883a 	mov	r5,r17
  8045fc:	e009883a 	mov	r4,fp
  804600:	000f883a 	mov	r7,zero
  804604:	01800284 	movi	r6,10
  804608:	080698c0 	call	80698c <__multadd>
  80460c:	d9000c17 	ldw	r4,48(sp)
  804610:	1023883a 	mov	r17,r2
  804614:	0102040e 	bge	zero,r4,804e28 <_dtoa_r+0x1600>
  804618:	d9000615 	stw	r4,24(sp)
  80461c:	0500050e 	bge	zero,r20,804634 <_dtoa_r+0xe0c>
  804620:	880b883a 	mov	r5,r17
  804624:	a00d883a 	mov	r6,r20
  804628:	e009883a 	mov	r4,fp
  80462c:	08070f80 	call	8070f8 <__lshift>
  804630:	1023883a 	mov	r17,r2
  804634:	9801241e 	bne	r19,zero,804ac8 <_dtoa_r+0x12a0>
  804638:	8829883a 	mov	r20,r17
  80463c:	d9000617 	ldw	r4,24(sp)
  804640:	dcc00717 	ldw	r19,28(sp)
  804644:	9480004c 	andi	r18,r18,1
  804648:	20bfffc4 	addi	r2,r4,-1
  80464c:	9885883a 	add	r2,r19,r2
  804650:	d8800415 	stw	r2,16(sp)
  804654:	dc800615 	stw	r18,24(sp)
  804658:	a80b883a 	mov	r5,r21
  80465c:	8009883a 	mov	r4,r16
  804660:	08036000 	call	803600 <quorem>
  804664:	880b883a 	mov	r5,r17
  804668:	8009883a 	mov	r4,r16
  80466c:	102f883a 	mov	r23,r2
  804670:	08072400 	call	807240 <__mcmp>
  804674:	a80b883a 	mov	r5,r21
  804678:	a00d883a 	mov	r6,r20
  80467c:	e009883a 	mov	r4,fp
  804680:	102d883a 	mov	r22,r2
  804684:	08072a00 	call	8072a0 <__mdiff>
  804688:	1007883a 	mov	r3,r2
  80468c:	10800317 	ldw	r2,12(r2)
  804690:	bc800c04 	addi	r18,r23,48
  804694:	180b883a 	mov	r5,r3
  804698:	10004e1e 	bne	r2,zero,8047d4 <_dtoa_r+0xfac>
  80469c:	8009883a 	mov	r4,r16
  8046a0:	d8c01615 	stw	r3,88(sp)
  8046a4:	08072400 	call	807240 <__mcmp>
  8046a8:	d8c01617 	ldw	r3,88(sp)
  8046ac:	e009883a 	mov	r4,fp
  8046b0:	d8801615 	stw	r2,88(sp)
  8046b4:	180b883a 	mov	r5,r3
  8046b8:	08069640 	call	806964 <_Bfree>
  8046bc:	d8801617 	ldw	r2,88(sp)
  8046c0:	1000041e 	bne	r2,zero,8046d4 <_dtoa_r+0xeac>
  8046c4:	d9800317 	ldw	r6,12(sp)
  8046c8:	3000021e 	bne	r6,zero,8046d4 <_dtoa_r+0xeac>
  8046cc:	d8c00617 	ldw	r3,24(sp)
  8046d0:	18003726 	beq	r3,zero,8047b0 <_dtoa_r+0xf88>
  8046d4:	b0002016 	blt	r22,zero,804758 <_dtoa_r+0xf30>
  8046d8:	b000041e 	bne	r22,zero,8046ec <_dtoa_r+0xec4>
  8046dc:	d9000317 	ldw	r4,12(sp)
  8046e0:	2000021e 	bne	r4,zero,8046ec <_dtoa_r+0xec4>
  8046e4:	d8c00617 	ldw	r3,24(sp)
  8046e8:	18001b26 	beq	r3,zero,804758 <_dtoa_r+0xf30>
  8046ec:	00810716 	blt	zero,r2,804b0c <_dtoa_r+0x12e4>
  8046f0:	d8c00417 	ldw	r3,16(sp)
  8046f4:	9d800044 	addi	r22,r19,1
  8046f8:	9c800005 	stb	r18,0(r19)
  8046fc:	b02f883a 	mov	r23,r22
  804700:	98c10626 	beq	r19,r3,804b1c <_dtoa_r+0x12f4>
  804704:	800b883a 	mov	r5,r16
  804708:	000f883a 	mov	r7,zero
  80470c:	01800284 	movi	r6,10
  804710:	e009883a 	mov	r4,fp
  804714:	080698c0 	call	80698c <__multadd>
  804718:	1021883a 	mov	r16,r2
  80471c:	000f883a 	mov	r7,zero
  804720:	01800284 	movi	r6,10
  804724:	880b883a 	mov	r5,r17
  804728:	e009883a 	mov	r4,fp
  80472c:	8d002526 	beq	r17,r20,8047c4 <_dtoa_r+0xf9c>
  804730:	080698c0 	call	80698c <__multadd>
  804734:	a00b883a 	mov	r5,r20
  804738:	000f883a 	mov	r7,zero
  80473c:	01800284 	movi	r6,10
  804740:	e009883a 	mov	r4,fp
  804744:	1023883a 	mov	r17,r2
  804748:	080698c0 	call	80698c <__multadd>
  80474c:	1029883a 	mov	r20,r2
  804750:	b027883a 	mov	r19,r22
  804754:	003fc006 	br	804658 <__alt_data_end+0xff804658>
  804758:	9011883a 	mov	r8,r18
  80475c:	00800e0e 	bge	zero,r2,804798 <_dtoa_r+0xf70>
  804760:	800b883a 	mov	r5,r16
  804764:	01800044 	movi	r6,1
  804768:	e009883a 	mov	r4,fp
  80476c:	da001715 	stw	r8,92(sp)
  804770:	08070f80 	call	8070f8 <__lshift>
  804774:	a80b883a 	mov	r5,r21
  804778:	1009883a 	mov	r4,r2
  80477c:	1021883a 	mov	r16,r2
  804780:	08072400 	call	807240 <__mcmp>
  804784:	da001717 	ldw	r8,92(sp)
  804788:	0081960e 	bge	zero,r2,804de4 <_dtoa_r+0x15bc>
  80478c:	00800e44 	movi	r2,57
  804790:	40817026 	beq	r8,r2,804d54 <_dtoa_r+0x152c>
  804794:	ba000c44 	addi	r8,r23,49
  804798:	8825883a 	mov	r18,r17
  80479c:	9dc00044 	addi	r23,r19,1
  8047a0:	9a000005 	stb	r8,0(r19)
  8047a4:	a023883a 	mov	r17,r20
  8047a8:	dc000915 	stw	r16,36(sp)
  8047ac:	003f2406 	br	804440 <__alt_data_end+0xff804440>
  8047b0:	00800e44 	movi	r2,57
  8047b4:	9011883a 	mov	r8,r18
  8047b8:	90816626 	beq	r18,r2,804d54 <_dtoa_r+0x152c>
  8047bc:	05bff516 	blt	zero,r22,804794 <__alt_data_end+0xff804794>
  8047c0:	003ff506 	br	804798 <__alt_data_end+0xff804798>
  8047c4:	080698c0 	call	80698c <__multadd>
  8047c8:	1023883a 	mov	r17,r2
  8047cc:	1029883a 	mov	r20,r2
  8047d0:	003fdf06 	br	804750 <__alt_data_end+0xff804750>
  8047d4:	e009883a 	mov	r4,fp
  8047d8:	08069640 	call	806964 <_Bfree>
  8047dc:	00800044 	movi	r2,1
  8047e0:	003fbc06 	br	8046d4 <__alt_data_end+0xff8046d4>
  8047e4:	a80b883a 	mov	r5,r21
  8047e8:	8009883a 	mov	r4,r16
  8047ec:	08072400 	call	807240 <__mcmp>
  8047f0:	103edb0e 	bge	r2,zero,804360 <__alt_data_end+0xff804360>
  8047f4:	800b883a 	mov	r5,r16
  8047f8:	000f883a 	mov	r7,zero
  8047fc:	01800284 	movi	r6,10
  804800:	e009883a 	mov	r4,fp
  804804:	080698c0 	call	80698c <__multadd>
  804808:	1021883a 	mov	r16,r2
  80480c:	d8800517 	ldw	r2,20(sp)
  804810:	d8c00b17 	ldw	r3,44(sp)
  804814:	10bfffc4 	addi	r2,r2,-1
  804818:	d8800515 	stw	r2,20(sp)
  80481c:	183f761e 	bne	r3,zero,8045f8 <__alt_data_end+0xff8045f8>
  804820:	d9000c17 	ldw	r4,48(sp)
  804824:	0101730e 	bge	zero,r4,804df4 <_dtoa_r+0x15cc>
  804828:	d9000615 	stw	r4,24(sp)
  80482c:	003ed006 	br	804370 <__alt_data_end+0xff804370>
  804830:	00800084 	movi	r2,2
  804834:	3081861e 	bne	r6,r2,804e50 <_dtoa_r+0x1628>
  804838:	d8000b15 	stw	zero,44(sp)
  80483c:	003f3c06 	br	804530 <__alt_data_end+0xff804530>
  804840:	dc000917 	ldw	r16,36(sp)
  804844:	003e9206 	br	804290 <__alt_data_end+0xff804290>
  804848:	d9c00317 	ldw	r7,12(sp)
  80484c:	00800084 	movi	r2,2
  804850:	11fec50e 	bge	r2,r7,804368 <__alt_data_end+0xff804368>
  804854:	d9000617 	ldw	r4,24(sp)
  804858:	20013c1e 	bne	r4,zero,804d4c <_dtoa_r+0x1524>
  80485c:	a80b883a 	mov	r5,r21
  804860:	000f883a 	mov	r7,zero
  804864:	01800144 	movi	r6,5
  804868:	e009883a 	mov	r4,fp
  80486c:	080698c0 	call	80698c <__multadd>
  804870:	100b883a 	mov	r5,r2
  804874:	8009883a 	mov	r4,r16
  804878:	102b883a 	mov	r21,r2
  80487c:	08072400 	call	807240 <__mcmp>
  804880:	dc000915 	stw	r16,36(sp)
  804884:	00bf410e 	bge	zero,r2,80458c <__alt_data_end+0xff80458c>
  804888:	d9c00717 	ldw	r7,28(sp)
  80488c:	00800c44 	movi	r2,49
  804890:	38800005 	stb	r2,0(r7)
  804894:	d8800517 	ldw	r2,20(sp)
  804898:	3dc00044 	addi	r23,r7,1
  80489c:	10800044 	addi	r2,r2,1
  8048a0:	d8800515 	stw	r2,20(sp)
  8048a4:	003f3d06 	br	80459c <__alt_data_end+0xff80459c>
  8048a8:	d9800517 	ldw	r6,20(sp)
  8048ac:	d9c00717 	ldw	r7,28(sp)
  8048b0:	00800c44 	movi	r2,49
  8048b4:	31800044 	addi	r6,r6,1
  8048b8:	d9800515 	stw	r6,20(sp)
  8048bc:	38800005 	stb	r2,0(r7)
  8048c0:	003edf06 	br	804440 <__alt_data_end+0xff804440>
  8048c4:	d8000b15 	stw	zero,44(sp)
  8048c8:	003c9f06 	br	803b48 <__alt_data_end+0xff803b48>
  8048cc:	903e7e1e 	bne	r18,zero,8042c8 <__alt_data_end+0xff8042c8>
  8048d0:	00800434 	movhi	r2,16
  8048d4:	10bfffc4 	addi	r2,r2,-1
  8048d8:	9884703a 	and	r2,r19,r2
  8048dc:	1000ea1e 	bne	r2,zero,804c88 <_dtoa_r+0x1460>
  8048e0:	9cdffc2c 	andhi	r19,r19,32752
  8048e4:	9800e826 	beq	r19,zero,804c88 <_dtoa_r+0x1460>
  8048e8:	d9c00817 	ldw	r7,32(sp)
  8048ec:	b5800044 	addi	r22,r22,1
  8048f0:	04c00044 	movi	r19,1
  8048f4:	39c00044 	addi	r7,r7,1
  8048f8:	d9c00815 	stw	r7,32(sp)
  8048fc:	d8800d17 	ldw	r2,52(sp)
  804900:	103e721e 	bne	r2,zero,8042cc <__alt_data_end+0xff8042cc>
  804904:	00800044 	movi	r2,1
  804908:	003e7906 	br	8042f0 <__alt_data_end+0xff8042f0>
  80490c:	8009883a 	mov	r4,r16
  804910:	080dce80 	call	80dce8 <__floatsidf>
  804914:	d9800f17 	ldw	r6,60(sp)
  804918:	d9c01017 	ldw	r7,64(sp)
  80491c:	1009883a 	mov	r4,r2
  804920:	180b883a 	mov	r5,r3
  804924:	080cb000 	call	80cb00 <__muldf3>
  804928:	000d883a 	mov	r6,zero
  80492c:	01d00734 	movhi	r7,16412
  804930:	1009883a 	mov	r4,r2
  804934:	180b883a 	mov	r5,r3
  804938:	080b62c0 	call	80b62c <__adddf3>
  80493c:	047f3034 	movhi	r17,64704
  804940:	1021883a 	mov	r16,r2
  804944:	1c63883a 	add	r17,r3,r17
  804948:	d9000f17 	ldw	r4,60(sp)
  80494c:	d9401017 	ldw	r5,64(sp)
  804950:	000d883a 	mov	r6,zero
  804954:	01d00534 	movhi	r7,16404
  804958:	080d36c0 	call	80d36c <__subdf3>
  80495c:	800d883a 	mov	r6,r16
  804960:	880f883a 	mov	r7,r17
  804964:	1009883a 	mov	r4,r2
  804968:	180b883a 	mov	r5,r3
  80496c:	102b883a 	mov	r21,r2
  804970:	1829883a 	mov	r20,r3
  804974:	080c9300 	call	80c930 <__gedf2>
  804978:	00806c16 	blt	zero,r2,804b2c <_dtoa_r+0x1304>
  80497c:	89e0003c 	xorhi	r7,r17,32768
  804980:	800d883a 	mov	r6,r16
  804984:	a809883a 	mov	r4,r21
  804988:	a00b883a 	mov	r5,r20
  80498c:	080ca0c0 	call	80ca0c <__ledf2>
  804990:	103d7e0e 	bge	r2,zero,803f8c <__alt_data_end+0xff803f8c>
  804994:	002b883a 	mov	r21,zero
  804998:	0023883a 	mov	r17,zero
  80499c:	003efb06 	br	80458c <__alt_data_end+0xff80458c>
  8049a0:	d8800717 	ldw	r2,28(sp)
  8049a4:	003bd006 	br	8038e8 <__alt_data_end+0xff8038e8>
  8049a8:	d9000a17 	ldw	r4,40(sp)
  8049ac:	d9800d17 	ldw	r6,52(sp)
  8049b0:	dd400a15 	stw	r21,40(sp)
  8049b4:	a905c83a 	sub	r2,r21,r4
  8049b8:	308d883a 	add	r6,r6,r2
  8049bc:	d9800d15 	stw	r6,52(sp)
  8049c0:	002b883a 	mov	r21,zero
  8049c4:	003e0606 	br	8041e0 <__alt_data_end+0xff8041e0>
  8049c8:	9023883a 	mov	r17,r18
  8049cc:	9829883a 	mov	r20,r19
  8049d0:	04000084 	movi	r16,2
  8049d4:	003c9206 	br	803c20 <__alt_data_end+0xff803c20>
  8049d8:	04000044 	movi	r16,1
  8049dc:	dc000c15 	stw	r16,48(sp)
  8049e0:	dc000615 	stw	r16,24(sp)
  8049e4:	dc002215 	stw	r16,136(sp)
  8049e8:	e0001115 	stw	zero,68(fp)
  8049ec:	000b883a 	mov	r5,zero
  8049f0:	003c6906 	br	803b98 <__alt_data_end+0xff803b98>
  8049f4:	3021883a 	mov	r16,r6
  8049f8:	003ffb06 	br	8049e8 <__alt_data_end+0xff8049e8>
  8049fc:	1000021e 	bne	r2,zero,804a08 <_dtoa_r+0x11e0>
  804a00:	4200004c 	andi	r8,r8,1
  804a04:	403e7d1e 	bne	r8,zero,8043fc <__alt_data_end+0xff8043fc>
  804a08:	01000c04 	movi	r4,48
  804a0c:	00000106 	br	804a14 <_dtoa_r+0x11ec>
  804a10:	102f883a 	mov	r23,r2
  804a14:	b8bfffc4 	addi	r2,r23,-1
  804a18:	10c00007 	ldb	r3,0(r2)
  804a1c:	193ffc26 	beq	r3,r4,804a10 <__alt_data_end+0xff804a10>
  804a20:	003e8706 	br	804440 <__alt_data_end+0xff804440>
  804a24:	d8800517 	ldw	r2,20(sp)
  804a28:	00a3c83a 	sub	r17,zero,r2
  804a2c:	8800a426 	beq	r17,zero,804cc0 <_dtoa_r+0x1498>
  804a30:	888003cc 	andi	r2,r17,15
  804a34:	100490fa 	slli	r2,r2,3
  804a38:	00c02074 	movhi	r3,129
  804a3c:	18c05004 	addi	r3,r3,320
  804a40:	1885883a 	add	r2,r3,r2
  804a44:	11800017 	ldw	r6,0(r2)
  804a48:	11c00117 	ldw	r7,4(r2)
  804a4c:	9009883a 	mov	r4,r18
  804a50:	980b883a 	mov	r5,r19
  804a54:	8823d13a 	srai	r17,r17,4
  804a58:	080cb000 	call	80cb00 <__muldf3>
  804a5c:	d8800f15 	stw	r2,60(sp)
  804a60:	d8c01015 	stw	r3,64(sp)
  804a64:	8800e826 	beq	r17,zero,804e08 <_dtoa_r+0x15e0>
  804a68:	05002074 	movhi	r20,129
  804a6c:	a5004604 	addi	r20,r20,280
  804a70:	04000084 	movi	r16,2
  804a74:	8980004c 	andi	r6,r17,1
  804a78:	1009883a 	mov	r4,r2
  804a7c:	8823d07a 	srai	r17,r17,1
  804a80:	180b883a 	mov	r5,r3
  804a84:	30000426 	beq	r6,zero,804a98 <_dtoa_r+0x1270>
  804a88:	a1800017 	ldw	r6,0(r20)
  804a8c:	a1c00117 	ldw	r7,4(r20)
  804a90:	84000044 	addi	r16,r16,1
  804a94:	080cb000 	call	80cb00 <__muldf3>
  804a98:	a5000204 	addi	r20,r20,8
  804a9c:	883ff51e 	bne	r17,zero,804a74 <__alt_data_end+0xff804a74>
  804aa0:	d8800f15 	stw	r2,60(sp)
  804aa4:	d8c01015 	stw	r3,64(sp)
  804aa8:	003c7606 	br	803c84 <__alt_data_end+0xff803c84>
  804aac:	00c00c04 	movi	r3,48
  804ab0:	10c00005 	stb	r3,0(r2)
  804ab4:	d8c00517 	ldw	r3,20(sp)
  804ab8:	bd3fffc3 	ldbu	r20,-1(r23)
  804abc:	18c00044 	addi	r3,r3,1
  804ac0:	d8c00515 	stw	r3,20(sp)
  804ac4:	003db906 	br	8041ac <__alt_data_end+0xff8041ac>
  804ac8:	89400117 	ldw	r5,4(r17)
  804acc:	e009883a 	mov	r4,fp
  804ad0:	08068bc0 	call	8068bc <_Balloc>
  804ad4:	89800417 	ldw	r6,16(r17)
  804ad8:	89400304 	addi	r5,r17,12
  804adc:	11000304 	addi	r4,r2,12
  804ae0:	31800084 	addi	r6,r6,2
  804ae4:	318d883a 	add	r6,r6,r6
  804ae8:	318d883a 	add	r6,r6,r6
  804aec:	1027883a 	mov	r19,r2
  804af0:	080664c0 	call	80664c <memcpy>
  804af4:	01800044 	movi	r6,1
  804af8:	980b883a 	mov	r5,r19
  804afc:	e009883a 	mov	r4,fp
  804b00:	08070f80 	call	8070f8 <__lshift>
  804b04:	1029883a 	mov	r20,r2
  804b08:	003ecc06 	br	80463c <__alt_data_end+0xff80463c>
  804b0c:	00800e44 	movi	r2,57
  804b10:	90809026 	beq	r18,r2,804d54 <_dtoa_r+0x152c>
  804b14:	92000044 	addi	r8,r18,1
  804b18:	003f1f06 	br	804798 <__alt_data_end+0xff804798>
  804b1c:	9011883a 	mov	r8,r18
  804b20:	8825883a 	mov	r18,r17
  804b24:	a023883a 	mov	r17,r20
  804b28:	003e2906 	br	8043d0 <__alt_data_end+0xff8043d0>
  804b2c:	002b883a 	mov	r21,zero
  804b30:	0023883a 	mov	r17,zero
  804b34:	003f5406 	br	804888 <__alt_data_end+0xff804888>
  804b38:	61bfffc4 	addi	r6,r12,-1
  804b3c:	300490fa 	slli	r2,r6,3
  804b40:	00c02074 	movhi	r3,129
  804b44:	18c05004 	addi	r3,r3,320
  804b48:	1885883a 	add	r2,r3,r2
  804b4c:	11000017 	ldw	r4,0(r2)
  804b50:	11400117 	ldw	r5,4(r2)
  804b54:	d8800717 	ldw	r2,28(sp)
  804b58:	880f883a 	mov	r7,r17
  804b5c:	d9801215 	stw	r6,72(sp)
  804b60:	800d883a 	mov	r6,r16
  804b64:	db001615 	stw	r12,88(sp)
  804b68:	15c00044 	addi	r23,r2,1
  804b6c:	080cb000 	call	80cb00 <__muldf3>
  804b70:	d9401017 	ldw	r5,64(sp)
  804b74:	d9000f17 	ldw	r4,60(sp)
  804b78:	d8c01515 	stw	r3,84(sp)
  804b7c:	d8801415 	stw	r2,80(sp)
  804b80:	080dc680 	call	80dc68 <__fixdfsi>
  804b84:	1009883a 	mov	r4,r2
  804b88:	1021883a 	mov	r16,r2
  804b8c:	080dce80 	call	80dce8 <__floatsidf>
  804b90:	d9000f17 	ldw	r4,60(sp)
  804b94:	d9401017 	ldw	r5,64(sp)
  804b98:	100d883a 	mov	r6,r2
  804b9c:	180f883a 	mov	r7,r3
  804ba0:	080d36c0 	call	80d36c <__subdf3>
  804ba4:	1829883a 	mov	r20,r3
  804ba8:	d8c00717 	ldw	r3,28(sp)
  804bac:	84000c04 	addi	r16,r16,48
  804bb0:	1023883a 	mov	r17,r2
  804bb4:	1c000005 	stb	r16,0(r3)
  804bb8:	db001617 	ldw	r12,88(sp)
  804bbc:	00800044 	movi	r2,1
  804bc0:	60802226 	beq	r12,r2,804c4c <_dtoa_r+0x1424>
  804bc4:	d9c00717 	ldw	r7,28(sp)
  804bc8:	8805883a 	mov	r2,r17
  804bcc:	b82b883a 	mov	r21,r23
  804bd0:	3b19883a 	add	r12,r7,r12
  804bd4:	6023883a 	mov	r17,r12
  804bd8:	a007883a 	mov	r3,r20
  804bdc:	dc800f15 	stw	r18,60(sp)
  804be0:	000d883a 	mov	r6,zero
  804be4:	01d00934 	movhi	r7,16420
  804be8:	1009883a 	mov	r4,r2
  804bec:	180b883a 	mov	r5,r3
  804bf0:	080cb000 	call	80cb00 <__muldf3>
  804bf4:	180b883a 	mov	r5,r3
  804bf8:	1009883a 	mov	r4,r2
  804bfc:	1829883a 	mov	r20,r3
  804c00:	1025883a 	mov	r18,r2
  804c04:	080dc680 	call	80dc68 <__fixdfsi>
  804c08:	1009883a 	mov	r4,r2
  804c0c:	1021883a 	mov	r16,r2
  804c10:	080dce80 	call	80dce8 <__floatsidf>
  804c14:	100d883a 	mov	r6,r2
  804c18:	180f883a 	mov	r7,r3
  804c1c:	9009883a 	mov	r4,r18
  804c20:	a00b883a 	mov	r5,r20
  804c24:	84000c04 	addi	r16,r16,48
  804c28:	080d36c0 	call	80d36c <__subdf3>
  804c2c:	ad400044 	addi	r21,r21,1
  804c30:	ac3fffc5 	stb	r16,-1(r21)
  804c34:	ac7fea1e 	bne	r21,r17,804be0 <__alt_data_end+0xff804be0>
  804c38:	1023883a 	mov	r17,r2
  804c3c:	d8801217 	ldw	r2,72(sp)
  804c40:	dc800f17 	ldw	r18,60(sp)
  804c44:	1829883a 	mov	r20,r3
  804c48:	b8af883a 	add	r23,r23,r2
  804c4c:	d9001417 	ldw	r4,80(sp)
  804c50:	d9401517 	ldw	r5,84(sp)
  804c54:	000d883a 	mov	r6,zero
  804c58:	01cff834 	movhi	r7,16352
  804c5c:	080b62c0 	call	80b62c <__adddf3>
  804c60:	880d883a 	mov	r6,r17
  804c64:	a00f883a 	mov	r7,r20
  804c68:	1009883a 	mov	r4,r2
  804c6c:	180b883a 	mov	r5,r3
  804c70:	080ca0c0 	call	80ca0c <__ledf2>
  804c74:	10003e0e 	bge	r2,zero,804d70 <_dtoa_r+0x1548>
  804c78:	d9001317 	ldw	r4,76(sp)
  804c7c:	bd3fffc3 	ldbu	r20,-1(r23)
  804c80:	d9000515 	stw	r4,20(sp)
  804c84:	003d3b06 	br	804174 <__alt_data_end+0xff804174>
  804c88:	0027883a 	mov	r19,zero
  804c8c:	003f1b06 	br	8048fc <__alt_data_end+0xff8048fc>
  804c90:	d8800817 	ldw	r2,32(sp)
  804c94:	11e9c83a 	sub	r20,r2,r7
  804c98:	0005883a 	mov	r2,zero
  804c9c:	003d5406 	br	8041f0 <__alt_data_end+0xff8041f0>
  804ca0:	00800044 	movi	r2,1
  804ca4:	003dc706 	br	8043c4 <__alt_data_end+0xff8043c4>
  804ca8:	d8c00217 	ldw	r3,8(sp)
  804cac:	00800d84 	movi	r2,54
  804cb0:	dd400a17 	ldw	r21,40(sp)
  804cb4:	10c5c83a 	sub	r2,r2,r3
  804cb8:	dd000817 	ldw	r20,32(sp)
  804cbc:	003d4c06 	br	8041f0 <__alt_data_end+0xff8041f0>
  804cc0:	dc800f15 	stw	r18,60(sp)
  804cc4:	dcc01015 	stw	r19,64(sp)
  804cc8:	04000084 	movi	r16,2
  804ccc:	003bed06 	br	803c84 <__alt_data_end+0xff803c84>
  804cd0:	d9000617 	ldw	r4,24(sp)
  804cd4:	203f0d26 	beq	r4,zero,80490c <__alt_data_end+0xff80490c>
  804cd8:	d9800c17 	ldw	r6,48(sp)
  804cdc:	01bcab0e 	bge	zero,r6,803f8c <__alt_data_end+0xff803f8c>
  804ce0:	d9401017 	ldw	r5,64(sp)
  804ce4:	d9000f17 	ldw	r4,60(sp)
  804ce8:	000d883a 	mov	r6,zero
  804cec:	01d00934 	movhi	r7,16420
  804cf0:	080cb000 	call	80cb00 <__muldf3>
  804cf4:	81000044 	addi	r4,r16,1
  804cf8:	d8800f15 	stw	r2,60(sp)
  804cfc:	d8c01015 	stw	r3,64(sp)
  804d00:	080dce80 	call	80dce8 <__floatsidf>
  804d04:	d9800f17 	ldw	r6,60(sp)
  804d08:	d9c01017 	ldw	r7,64(sp)
  804d0c:	1009883a 	mov	r4,r2
  804d10:	180b883a 	mov	r5,r3
  804d14:	080cb000 	call	80cb00 <__muldf3>
  804d18:	01d00734 	movhi	r7,16412
  804d1c:	000d883a 	mov	r6,zero
  804d20:	1009883a 	mov	r4,r2
  804d24:	180b883a 	mov	r5,r3
  804d28:	080b62c0 	call	80b62c <__adddf3>
  804d2c:	d9c00517 	ldw	r7,20(sp)
  804d30:	047f3034 	movhi	r17,64704
  804d34:	1021883a 	mov	r16,r2
  804d38:	39ffffc4 	addi	r7,r7,-1
  804d3c:	d9c01315 	stw	r7,76(sp)
  804d40:	1c63883a 	add	r17,r3,r17
  804d44:	db000c17 	ldw	r12,48(sp)
  804d48:	003bea06 	br	803cf4 <__alt_data_end+0xff803cf4>
  804d4c:	dc000915 	stw	r16,36(sp)
  804d50:	003e0e06 	br	80458c <__alt_data_end+0xff80458c>
  804d54:	01000e44 	movi	r4,57
  804d58:	8825883a 	mov	r18,r17
  804d5c:	9dc00044 	addi	r23,r19,1
  804d60:	99000005 	stb	r4,0(r19)
  804d64:	a023883a 	mov	r17,r20
  804d68:	dc000915 	stw	r16,36(sp)
  804d6c:	003da406 	br	804400 <__alt_data_end+0xff804400>
  804d70:	d9801417 	ldw	r6,80(sp)
  804d74:	d9c01517 	ldw	r7,84(sp)
  804d78:	0009883a 	mov	r4,zero
  804d7c:	014ff834 	movhi	r5,16352
  804d80:	080d36c0 	call	80d36c <__subdf3>
  804d84:	880d883a 	mov	r6,r17
  804d88:	a00f883a 	mov	r7,r20
  804d8c:	1009883a 	mov	r4,r2
  804d90:	180b883a 	mov	r5,r3
  804d94:	080c9300 	call	80c930 <__gedf2>
  804d98:	00bc7c0e 	bge	zero,r2,803f8c <__alt_data_end+0xff803f8c>
  804d9c:	01000c04 	movi	r4,48
  804da0:	00000106 	br	804da8 <_dtoa_r+0x1580>
  804da4:	102f883a 	mov	r23,r2
  804da8:	b8bfffc4 	addi	r2,r23,-1
  804dac:	10c00007 	ldb	r3,0(r2)
  804db0:	193ffc26 	beq	r3,r4,804da4 <__alt_data_end+0xff804da4>
  804db4:	d9801317 	ldw	r6,76(sp)
  804db8:	d9800515 	stw	r6,20(sp)
  804dbc:	003c4406 	br	803ed0 <__alt_data_end+0xff803ed0>
  804dc0:	d9801317 	ldw	r6,76(sp)
  804dc4:	d9800515 	stw	r6,20(sp)
  804dc8:	003cea06 	br	804174 <__alt_data_end+0xff804174>
  804dcc:	dd800f17 	ldw	r22,60(sp)
  804dd0:	dcc01017 	ldw	r19,64(sp)
  804dd4:	dc801217 	ldw	r18,72(sp)
  804dd8:	003c6c06 	br	803f8c <__alt_data_end+0xff803f8c>
  804ddc:	903e031e 	bne	r18,zero,8045ec <__alt_data_end+0xff8045ec>
  804de0:	003ebb06 	br	8048d0 <__alt_data_end+0xff8048d0>
  804de4:	103e6c1e 	bne	r2,zero,804798 <__alt_data_end+0xff804798>
  804de8:	4080004c 	andi	r2,r8,1
  804dec:	103e6a26 	beq	r2,zero,804798 <__alt_data_end+0xff804798>
  804df0:	003e6606 	br	80478c <__alt_data_end+0xff80478c>
  804df4:	d8c00317 	ldw	r3,12(sp)
  804df8:	00800084 	movi	r2,2
  804dfc:	10c02916 	blt	r2,r3,804ea4 <_dtoa_r+0x167c>
  804e00:	d9000c17 	ldw	r4,48(sp)
  804e04:	003e8806 	br	804828 <__alt_data_end+0xff804828>
  804e08:	04000084 	movi	r16,2
  804e0c:	003b9d06 	br	803c84 <__alt_data_end+0xff803c84>
  804e10:	d9001317 	ldw	r4,76(sp)
  804e14:	d9000515 	stw	r4,20(sp)
  804e18:	003cd606 	br	804174 <__alt_data_end+0xff804174>
  804e1c:	d8801317 	ldw	r2,76(sp)
  804e20:	d8800515 	stw	r2,20(sp)
  804e24:	003c2a06 	br	803ed0 <__alt_data_end+0xff803ed0>
  804e28:	d9800317 	ldw	r6,12(sp)
  804e2c:	00800084 	movi	r2,2
  804e30:	11801516 	blt	r2,r6,804e88 <_dtoa_r+0x1660>
  804e34:	d9c00c17 	ldw	r7,48(sp)
  804e38:	d9c00615 	stw	r7,24(sp)
  804e3c:	003df706 	br	80461c <__alt_data_end+0xff80461c>
  804e40:	193d3926 	beq	r3,r4,804328 <__alt_data_end+0xff804328>
  804e44:	00c00f04 	movi	r3,60
  804e48:	1885c83a 	sub	r2,r3,r2
  804e4c:	003ddf06 	br	8045cc <__alt_data_end+0xff8045cc>
  804e50:	e009883a 	mov	r4,fp
  804e54:	e0001115 	stw	zero,68(fp)
  804e58:	000b883a 	mov	r5,zero
  804e5c:	08068bc0 	call	8068bc <_Balloc>
  804e60:	d8800715 	stw	r2,28(sp)
  804e64:	d8c00717 	ldw	r3,28(sp)
  804e68:	00bfffc4 	movi	r2,-1
  804e6c:	01000044 	movi	r4,1
  804e70:	d8800c15 	stw	r2,48(sp)
  804e74:	e0c01015 	stw	r3,64(fp)
  804e78:	d9000b15 	stw	r4,44(sp)
  804e7c:	d8800615 	stw	r2,24(sp)
  804e80:	d8002215 	stw	zero,136(sp)
  804e84:	003c4106 	br	803f8c <__alt_data_end+0xff803f8c>
  804e88:	d8c00c17 	ldw	r3,48(sp)
  804e8c:	d8c00615 	stw	r3,24(sp)
  804e90:	003e7006 	br	804854 <__alt_data_end+0xff804854>
  804e94:	04400044 	movi	r17,1
  804e98:	003b2006 	br	803b1c <__alt_data_end+0xff803b1c>
  804e9c:	000b883a 	mov	r5,zero
  804ea0:	003b3d06 	br	803b98 <__alt_data_end+0xff803b98>
  804ea4:	d8800c17 	ldw	r2,48(sp)
  804ea8:	d8800615 	stw	r2,24(sp)
  804eac:	003e6906 	br	804854 <__alt_data_end+0xff804854>

00804eb0 <__sflush_r>:
  804eb0:	2880030b 	ldhu	r2,12(r5)
  804eb4:	defffb04 	addi	sp,sp,-20
  804eb8:	dcc00315 	stw	r19,12(sp)
  804ebc:	dc400115 	stw	r17,4(sp)
  804ec0:	dfc00415 	stw	ra,16(sp)
  804ec4:	dc800215 	stw	r18,8(sp)
  804ec8:	dc000015 	stw	r16,0(sp)
  804ecc:	10c0020c 	andi	r3,r2,8
  804ed0:	2823883a 	mov	r17,r5
  804ed4:	2027883a 	mov	r19,r4
  804ed8:	1800311e 	bne	r3,zero,804fa0 <__sflush_r+0xf0>
  804edc:	28c00117 	ldw	r3,4(r5)
  804ee0:	10820014 	ori	r2,r2,2048
  804ee4:	2880030d 	sth	r2,12(r5)
  804ee8:	00c04b0e 	bge	zero,r3,805018 <__sflush_r+0x168>
  804eec:	8a000a17 	ldw	r8,40(r17)
  804ef0:	40002326 	beq	r8,zero,804f80 <__sflush_r+0xd0>
  804ef4:	9c000017 	ldw	r16,0(r19)
  804ef8:	10c4000c 	andi	r3,r2,4096
  804efc:	98000015 	stw	zero,0(r19)
  804f00:	18004826 	beq	r3,zero,805024 <__sflush_r+0x174>
  804f04:	89801417 	ldw	r6,80(r17)
  804f08:	10c0010c 	andi	r3,r2,4
  804f0c:	18000626 	beq	r3,zero,804f28 <__sflush_r+0x78>
  804f10:	88c00117 	ldw	r3,4(r17)
  804f14:	88800c17 	ldw	r2,48(r17)
  804f18:	30cdc83a 	sub	r6,r6,r3
  804f1c:	10000226 	beq	r2,zero,804f28 <__sflush_r+0x78>
  804f20:	88800f17 	ldw	r2,60(r17)
  804f24:	308dc83a 	sub	r6,r6,r2
  804f28:	89400717 	ldw	r5,28(r17)
  804f2c:	000f883a 	mov	r7,zero
  804f30:	9809883a 	mov	r4,r19
  804f34:	403ee83a 	callr	r8
  804f38:	00ffffc4 	movi	r3,-1
  804f3c:	10c04426 	beq	r2,r3,805050 <__sflush_r+0x1a0>
  804f40:	88c0030b 	ldhu	r3,12(r17)
  804f44:	89000417 	ldw	r4,16(r17)
  804f48:	88000115 	stw	zero,4(r17)
  804f4c:	197dffcc 	andi	r5,r3,63487
  804f50:	8940030d 	sth	r5,12(r17)
  804f54:	89000015 	stw	r4,0(r17)
  804f58:	18c4000c 	andi	r3,r3,4096
  804f5c:	18002c1e 	bne	r3,zero,805010 <__sflush_r+0x160>
  804f60:	89400c17 	ldw	r5,48(r17)
  804f64:	9c000015 	stw	r16,0(r19)
  804f68:	28000526 	beq	r5,zero,804f80 <__sflush_r+0xd0>
  804f6c:	88801004 	addi	r2,r17,64
  804f70:	28800226 	beq	r5,r2,804f7c <__sflush_r+0xcc>
  804f74:	9809883a 	mov	r4,r19
  804f78:	080562c0 	call	80562c <_free_r>
  804f7c:	88000c15 	stw	zero,48(r17)
  804f80:	0005883a 	mov	r2,zero
  804f84:	dfc00417 	ldw	ra,16(sp)
  804f88:	dcc00317 	ldw	r19,12(sp)
  804f8c:	dc800217 	ldw	r18,8(sp)
  804f90:	dc400117 	ldw	r17,4(sp)
  804f94:	dc000017 	ldw	r16,0(sp)
  804f98:	dec00504 	addi	sp,sp,20
  804f9c:	f800283a 	ret
  804fa0:	2c800417 	ldw	r18,16(r5)
  804fa4:	903ff626 	beq	r18,zero,804f80 <__alt_data_end+0xff804f80>
  804fa8:	2c000017 	ldw	r16,0(r5)
  804fac:	108000cc 	andi	r2,r2,3
  804fb0:	2c800015 	stw	r18,0(r5)
  804fb4:	84a1c83a 	sub	r16,r16,r18
  804fb8:	1000131e 	bne	r2,zero,805008 <__sflush_r+0x158>
  804fbc:	28800517 	ldw	r2,20(r5)
  804fc0:	88800215 	stw	r2,8(r17)
  804fc4:	04000316 	blt	zero,r16,804fd4 <__sflush_r+0x124>
  804fc8:	003fed06 	br	804f80 <__alt_data_end+0xff804f80>
  804fcc:	90a5883a 	add	r18,r18,r2
  804fd0:	043feb0e 	bge	zero,r16,804f80 <__alt_data_end+0xff804f80>
  804fd4:	88800917 	ldw	r2,36(r17)
  804fd8:	89400717 	ldw	r5,28(r17)
  804fdc:	800f883a 	mov	r7,r16
  804fe0:	900d883a 	mov	r6,r18
  804fe4:	9809883a 	mov	r4,r19
  804fe8:	103ee83a 	callr	r2
  804fec:	80a1c83a 	sub	r16,r16,r2
  804ff0:	00bff616 	blt	zero,r2,804fcc <__alt_data_end+0xff804fcc>
  804ff4:	88c0030b 	ldhu	r3,12(r17)
  804ff8:	00bfffc4 	movi	r2,-1
  804ffc:	18c01014 	ori	r3,r3,64
  805000:	88c0030d 	sth	r3,12(r17)
  805004:	003fdf06 	br	804f84 <__alt_data_end+0xff804f84>
  805008:	0005883a 	mov	r2,zero
  80500c:	003fec06 	br	804fc0 <__alt_data_end+0xff804fc0>
  805010:	88801415 	stw	r2,80(r17)
  805014:	003fd206 	br	804f60 <__alt_data_end+0xff804f60>
  805018:	28c00f17 	ldw	r3,60(r5)
  80501c:	00ffb316 	blt	zero,r3,804eec <__alt_data_end+0xff804eec>
  805020:	003fd706 	br	804f80 <__alt_data_end+0xff804f80>
  805024:	89400717 	ldw	r5,28(r17)
  805028:	000d883a 	mov	r6,zero
  80502c:	01c00044 	movi	r7,1
  805030:	9809883a 	mov	r4,r19
  805034:	403ee83a 	callr	r8
  805038:	100d883a 	mov	r6,r2
  80503c:	00bfffc4 	movi	r2,-1
  805040:	30801426 	beq	r6,r2,805094 <__sflush_r+0x1e4>
  805044:	8880030b 	ldhu	r2,12(r17)
  805048:	8a000a17 	ldw	r8,40(r17)
  80504c:	003fae06 	br	804f08 <__alt_data_end+0xff804f08>
  805050:	98c00017 	ldw	r3,0(r19)
  805054:	183fba26 	beq	r3,zero,804f40 <__alt_data_end+0xff804f40>
  805058:	01000744 	movi	r4,29
  80505c:	19000626 	beq	r3,r4,805078 <__sflush_r+0x1c8>
  805060:	01000584 	movi	r4,22
  805064:	19000426 	beq	r3,r4,805078 <__sflush_r+0x1c8>
  805068:	88c0030b 	ldhu	r3,12(r17)
  80506c:	18c01014 	ori	r3,r3,64
  805070:	88c0030d 	sth	r3,12(r17)
  805074:	003fc306 	br	804f84 <__alt_data_end+0xff804f84>
  805078:	8880030b 	ldhu	r2,12(r17)
  80507c:	88c00417 	ldw	r3,16(r17)
  805080:	88000115 	stw	zero,4(r17)
  805084:	10bdffcc 	andi	r2,r2,63487
  805088:	8880030d 	sth	r2,12(r17)
  80508c:	88c00015 	stw	r3,0(r17)
  805090:	003fb306 	br	804f60 <__alt_data_end+0xff804f60>
  805094:	98800017 	ldw	r2,0(r19)
  805098:	103fea26 	beq	r2,zero,805044 <__alt_data_end+0xff805044>
  80509c:	00c00744 	movi	r3,29
  8050a0:	10c00226 	beq	r2,r3,8050ac <__sflush_r+0x1fc>
  8050a4:	00c00584 	movi	r3,22
  8050a8:	10c0031e 	bne	r2,r3,8050b8 <__sflush_r+0x208>
  8050ac:	9c000015 	stw	r16,0(r19)
  8050b0:	0005883a 	mov	r2,zero
  8050b4:	003fb306 	br	804f84 <__alt_data_end+0xff804f84>
  8050b8:	88c0030b 	ldhu	r3,12(r17)
  8050bc:	3005883a 	mov	r2,r6
  8050c0:	18c01014 	ori	r3,r3,64
  8050c4:	88c0030d 	sth	r3,12(r17)
  8050c8:	003fae06 	br	804f84 <__alt_data_end+0xff804f84>

008050cc <_fflush_r>:
  8050cc:	defffd04 	addi	sp,sp,-12
  8050d0:	dc000115 	stw	r16,4(sp)
  8050d4:	dfc00215 	stw	ra,8(sp)
  8050d8:	2021883a 	mov	r16,r4
  8050dc:	20000226 	beq	r4,zero,8050e8 <_fflush_r+0x1c>
  8050e0:	20800e17 	ldw	r2,56(r4)
  8050e4:	10000c26 	beq	r2,zero,805118 <_fflush_r+0x4c>
  8050e8:	2880030f 	ldh	r2,12(r5)
  8050ec:	1000051e 	bne	r2,zero,805104 <_fflush_r+0x38>
  8050f0:	0005883a 	mov	r2,zero
  8050f4:	dfc00217 	ldw	ra,8(sp)
  8050f8:	dc000117 	ldw	r16,4(sp)
  8050fc:	dec00304 	addi	sp,sp,12
  805100:	f800283a 	ret
  805104:	8009883a 	mov	r4,r16
  805108:	dfc00217 	ldw	ra,8(sp)
  80510c:	dc000117 	ldw	r16,4(sp)
  805110:	dec00304 	addi	sp,sp,12
  805114:	0804eb01 	jmpi	804eb0 <__sflush_r>
  805118:	d9400015 	stw	r5,0(sp)
  80511c:	08054b80 	call	8054b8 <__sinit>
  805120:	d9400017 	ldw	r5,0(sp)
  805124:	003ff006 	br	8050e8 <__alt_data_end+0xff8050e8>

00805128 <fflush>:
  805128:	20000526 	beq	r4,zero,805140 <fflush+0x18>
  80512c:	00802074 	movhi	r2,129
  805130:	10833404 	addi	r2,r2,3280
  805134:	200b883a 	mov	r5,r4
  805138:	11000017 	ldw	r4,0(r2)
  80513c:	08050cc1 	jmpi	8050cc <_fflush_r>
  805140:	00802074 	movhi	r2,129
  805144:	10833304 	addi	r2,r2,3276
  805148:	11000017 	ldw	r4,0(r2)
  80514c:	01402034 	movhi	r5,128
  805150:	29543304 	addi	r5,r5,20684
  805154:	0805a001 	jmpi	805a00 <_fwalk_reent>

00805158 <__fp_unlock>:
  805158:	0005883a 	mov	r2,zero
  80515c:	f800283a 	ret

00805160 <_cleanup_r>:
  805160:	01402074 	movhi	r5,129
  805164:	29655d04 	addi	r5,r5,-27276
  805168:	0805a001 	jmpi	805a00 <_fwalk_reent>

0080516c <__sinit.part.1>:
  80516c:	defff704 	addi	sp,sp,-36
  805170:	00c02034 	movhi	r3,128
  805174:	dfc00815 	stw	ra,32(sp)
  805178:	ddc00715 	stw	r23,28(sp)
  80517c:	dd800615 	stw	r22,24(sp)
  805180:	dd400515 	stw	r21,20(sp)
  805184:	dd000415 	stw	r20,16(sp)
  805188:	dcc00315 	stw	r19,12(sp)
  80518c:	dc800215 	stw	r18,8(sp)
  805190:	dc400115 	stw	r17,4(sp)
  805194:	dc000015 	stw	r16,0(sp)
  805198:	18d45804 	addi	r3,r3,20832
  80519c:	24000117 	ldw	r16,4(r4)
  8051a0:	20c00f15 	stw	r3,60(r4)
  8051a4:	2080bb04 	addi	r2,r4,748
  8051a8:	00c000c4 	movi	r3,3
  8051ac:	20c0b915 	stw	r3,740(r4)
  8051b0:	2080ba15 	stw	r2,744(r4)
  8051b4:	2000b815 	stw	zero,736(r4)
  8051b8:	05c00204 	movi	r23,8
  8051bc:	00800104 	movi	r2,4
  8051c0:	2025883a 	mov	r18,r4
  8051c4:	b80d883a 	mov	r6,r23
  8051c8:	81001704 	addi	r4,r16,92
  8051cc:	000b883a 	mov	r5,zero
  8051d0:	80000015 	stw	zero,0(r16)
  8051d4:	80000115 	stw	zero,4(r16)
  8051d8:	80000215 	stw	zero,8(r16)
  8051dc:	8080030d 	sth	r2,12(r16)
  8051e0:	80001915 	stw	zero,100(r16)
  8051e4:	8000038d 	sth	zero,14(r16)
  8051e8:	80000415 	stw	zero,16(r16)
  8051ec:	80000515 	stw	zero,20(r16)
  8051f0:	80000615 	stw	zero,24(r16)
  8051f4:	08067940 	call	806794 <memset>
  8051f8:	05802034 	movhi	r22,128
  8051fc:	94400217 	ldw	r17,8(r18)
  805200:	05402034 	movhi	r21,128
  805204:	05002034 	movhi	r20,128
  805208:	04c02034 	movhi	r19,128
  80520c:	b59e8f04 	addi	r22,r22,31292
  805210:	ad5ea604 	addi	r21,r21,31384
  805214:	a51ec504 	addi	r20,r20,31508
  805218:	9cdedc04 	addi	r19,r19,31600
  80521c:	85800815 	stw	r22,32(r16)
  805220:	85400915 	stw	r21,36(r16)
  805224:	85000a15 	stw	r20,40(r16)
  805228:	84c00b15 	stw	r19,44(r16)
  80522c:	84000715 	stw	r16,28(r16)
  805230:	00800284 	movi	r2,10
  805234:	8880030d 	sth	r2,12(r17)
  805238:	00800044 	movi	r2,1
  80523c:	b80d883a 	mov	r6,r23
  805240:	89001704 	addi	r4,r17,92
  805244:	000b883a 	mov	r5,zero
  805248:	88000015 	stw	zero,0(r17)
  80524c:	88000115 	stw	zero,4(r17)
  805250:	88000215 	stw	zero,8(r17)
  805254:	88001915 	stw	zero,100(r17)
  805258:	8880038d 	sth	r2,14(r17)
  80525c:	88000415 	stw	zero,16(r17)
  805260:	88000515 	stw	zero,20(r17)
  805264:	88000615 	stw	zero,24(r17)
  805268:	08067940 	call	806794 <memset>
  80526c:	94000317 	ldw	r16,12(r18)
  805270:	00800484 	movi	r2,18
  805274:	8c400715 	stw	r17,28(r17)
  805278:	8d800815 	stw	r22,32(r17)
  80527c:	8d400915 	stw	r21,36(r17)
  805280:	8d000a15 	stw	r20,40(r17)
  805284:	8cc00b15 	stw	r19,44(r17)
  805288:	8080030d 	sth	r2,12(r16)
  80528c:	00800084 	movi	r2,2
  805290:	80000015 	stw	zero,0(r16)
  805294:	80000115 	stw	zero,4(r16)
  805298:	80000215 	stw	zero,8(r16)
  80529c:	80001915 	stw	zero,100(r16)
  8052a0:	8080038d 	sth	r2,14(r16)
  8052a4:	80000415 	stw	zero,16(r16)
  8052a8:	80000515 	stw	zero,20(r16)
  8052ac:	80000615 	stw	zero,24(r16)
  8052b0:	b80d883a 	mov	r6,r23
  8052b4:	000b883a 	mov	r5,zero
  8052b8:	81001704 	addi	r4,r16,92
  8052bc:	08067940 	call	806794 <memset>
  8052c0:	00800044 	movi	r2,1
  8052c4:	84000715 	stw	r16,28(r16)
  8052c8:	85800815 	stw	r22,32(r16)
  8052cc:	85400915 	stw	r21,36(r16)
  8052d0:	85000a15 	stw	r20,40(r16)
  8052d4:	84c00b15 	stw	r19,44(r16)
  8052d8:	90800e15 	stw	r2,56(r18)
  8052dc:	dfc00817 	ldw	ra,32(sp)
  8052e0:	ddc00717 	ldw	r23,28(sp)
  8052e4:	dd800617 	ldw	r22,24(sp)
  8052e8:	dd400517 	ldw	r21,20(sp)
  8052ec:	dd000417 	ldw	r20,16(sp)
  8052f0:	dcc00317 	ldw	r19,12(sp)
  8052f4:	dc800217 	ldw	r18,8(sp)
  8052f8:	dc400117 	ldw	r17,4(sp)
  8052fc:	dc000017 	ldw	r16,0(sp)
  805300:	dec00904 	addi	sp,sp,36
  805304:	f800283a 	ret

00805308 <__fp_lock>:
  805308:	0005883a 	mov	r2,zero
  80530c:	f800283a 	ret

00805310 <__sfmoreglue>:
  805310:	defffc04 	addi	sp,sp,-16
  805314:	dc800215 	stw	r18,8(sp)
  805318:	2825883a 	mov	r18,r5
  80531c:	dc000015 	stw	r16,0(sp)
  805320:	01401a04 	movi	r5,104
  805324:	2021883a 	mov	r16,r4
  805328:	913fffc4 	addi	r4,r18,-1
  80532c:	dfc00315 	stw	ra,12(sp)
  805330:	dc400115 	stw	r17,4(sp)
  805334:	08005640 	call	800564 <__mulsi3>
  805338:	8009883a 	mov	r4,r16
  80533c:	11401d04 	addi	r5,r2,116
  805340:	1023883a 	mov	r17,r2
  805344:	0805d5c0 	call	805d5c <_malloc_r>
  805348:	1021883a 	mov	r16,r2
  80534c:	10000726 	beq	r2,zero,80536c <__sfmoreglue+0x5c>
  805350:	11000304 	addi	r4,r2,12
  805354:	10000015 	stw	zero,0(r2)
  805358:	14800115 	stw	r18,4(r2)
  80535c:	11000215 	stw	r4,8(r2)
  805360:	89801a04 	addi	r6,r17,104
  805364:	000b883a 	mov	r5,zero
  805368:	08067940 	call	806794 <memset>
  80536c:	8005883a 	mov	r2,r16
  805370:	dfc00317 	ldw	ra,12(sp)
  805374:	dc800217 	ldw	r18,8(sp)
  805378:	dc400117 	ldw	r17,4(sp)
  80537c:	dc000017 	ldw	r16,0(sp)
  805380:	dec00404 	addi	sp,sp,16
  805384:	f800283a 	ret

00805388 <__sfp>:
  805388:	defffb04 	addi	sp,sp,-20
  80538c:	dc000015 	stw	r16,0(sp)
  805390:	04002074 	movhi	r16,129
  805394:	84033304 	addi	r16,r16,3276
  805398:	dcc00315 	stw	r19,12(sp)
  80539c:	2027883a 	mov	r19,r4
  8053a0:	81000017 	ldw	r4,0(r16)
  8053a4:	dfc00415 	stw	ra,16(sp)
  8053a8:	dc800215 	stw	r18,8(sp)
  8053ac:	20800e17 	ldw	r2,56(r4)
  8053b0:	dc400115 	stw	r17,4(sp)
  8053b4:	1000021e 	bne	r2,zero,8053c0 <__sfp+0x38>
  8053b8:	080516c0 	call	80516c <__sinit.part.1>
  8053bc:	81000017 	ldw	r4,0(r16)
  8053c0:	2480b804 	addi	r18,r4,736
  8053c4:	047fffc4 	movi	r17,-1
  8053c8:	91000117 	ldw	r4,4(r18)
  8053cc:	94000217 	ldw	r16,8(r18)
  8053d0:	213fffc4 	addi	r4,r4,-1
  8053d4:	20000a16 	blt	r4,zero,805400 <__sfp+0x78>
  8053d8:	8080030f 	ldh	r2,12(r16)
  8053dc:	10000c26 	beq	r2,zero,805410 <__sfp+0x88>
  8053e0:	80c01d04 	addi	r3,r16,116
  8053e4:	00000206 	br	8053f0 <__sfp+0x68>
  8053e8:	18bfe60f 	ldh	r2,-104(r3)
  8053ec:	10000826 	beq	r2,zero,805410 <__sfp+0x88>
  8053f0:	213fffc4 	addi	r4,r4,-1
  8053f4:	1c3ffd04 	addi	r16,r3,-12
  8053f8:	18c01a04 	addi	r3,r3,104
  8053fc:	247ffa1e 	bne	r4,r17,8053e8 <__alt_data_end+0xff8053e8>
  805400:	90800017 	ldw	r2,0(r18)
  805404:	10001d26 	beq	r2,zero,80547c <__sfp+0xf4>
  805408:	1025883a 	mov	r18,r2
  80540c:	003fee06 	br	8053c8 <__alt_data_end+0xff8053c8>
  805410:	00bfffc4 	movi	r2,-1
  805414:	8080038d 	sth	r2,14(r16)
  805418:	00800044 	movi	r2,1
  80541c:	8080030d 	sth	r2,12(r16)
  805420:	80001915 	stw	zero,100(r16)
  805424:	80000015 	stw	zero,0(r16)
  805428:	80000215 	stw	zero,8(r16)
  80542c:	80000115 	stw	zero,4(r16)
  805430:	80000415 	stw	zero,16(r16)
  805434:	80000515 	stw	zero,20(r16)
  805438:	80000615 	stw	zero,24(r16)
  80543c:	01800204 	movi	r6,8
  805440:	000b883a 	mov	r5,zero
  805444:	81001704 	addi	r4,r16,92
  805448:	08067940 	call	806794 <memset>
  80544c:	8005883a 	mov	r2,r16
  805450:	80000c15 	stw	zero,48(r16)
  805454:	80000d15 	stw	zero,52(r16)
  805458:	80001115 	stw	zero,68(r16)
  80545c:	80001215 	stw	zero,72(r16)
  805460:	dfc00417 	ldw	ra,16(sp)
  805464:	dcc00317 	ldw	r19,12(sp)
  805468:	dc800217 	ldw	r18,8(sp)
  80546c:	dc400117 	ldw	r17,4(sp)
  805470:	dc000017 	ldw	r16,0(sp)
  805474:	dec00504 	addi	sp,sp,20
  805478:	f800283a 	ret
  80547c:	01400104 	movi	r5,4
  805480:	9809883a 	mov	r4,r19
  805484:	08053100 	call	805310 <__sfmoreglue>
  805488:	90800015 	stw	r2,0(r18)
  80548c:	103fde1e 	bne	r2,zero,805408 <__alt_data_end+0xff805408>
  805490:	00800304 	movi	r2,12
  805494:	98800015 	stw	r2,0(r19)
  805498:	0005883a 	mov	r2,zero
  80549c:	003ff006 	br	805460 <__alt_data_end+0xff805460>

008054a0 <_cleanup>:
  8054a0:	00802074 	movhi	r2,129
  8054a4:	10833304 	addi	r2,r2,3276
  8054a8:	11000017 	ldw	r4,0(r2)
  8054ac:	01402074 	movhi	r5,129
  8054b0:	29655d04 	addi	r5,r5,-27276
  8054b4:	0805a001 	jmpi	805a00 <_fwalk_reent>

008054b8 <__sinit>:
  8054b8:	20800e17 	ldw	r2,56(r4)
  8054bc:	10000126 	beq	r2,zero,8054c4 <__sinit+0xc>
  8054c0:	f800283a 	ret
  8054c4:	080516c1 	jmpi	80516c <__sinit.part.1>

008054c8 <__sfp_lock_acquire>:
  8054c8:	f800283a 	ret

008054cc <__sfp_lock_release>:
  8054cc:	f800283a 	ret

008054d0 <__sinit_lock_acquire>:
  8054d0:	f800283a 	ret

008054d4 <__sinit_lock_release>:
  8054d4:	f800283a 	ret

008054d8 <__fp_lock_all>:
  8054d8:	00802074 	movhi	r2,129
  8054dc:	10833404 	addi	r2,r2,3280
  8054e0:	11000017 	ldw	r4,0(r2)
  8054e4:	01402034 	movhi	r5,128
  8054e8:	2954c204 	addi	r5,r5,21256
  8054ec:	080593c1 	jmpi	80593c <_fwalk>

008054f0 <__fp_unlock_all>:
  8054f0:	00802074 	movhi	r2,129
  8054f4:	10833404 	addi	r2,r2,3280
  8054f8:	11000017 	ldw	r4,0(r2)
  8054fc:	01402034 	movhi	r5,128
  805500:	29545604 	addi	r5,r5,20824
  805504:	080593c1 	jmpi	80593c <_fwalk>

00805508 <_malloc_trim_r>:
  805508:	defffb04 	addi	sp,sp,-20
  80550c:	dcc00315 	stw	r19,12(sp)
  805510:	04c02074 	movhi	r19,129
  805514:	dc800215 	stw	r18,8(sp)
  805518:	dc400115 	stw	r17,4(sp)
  80551c:	dc000015 	stw	r16,0(sp)
  805520:	dfc00415 	stw	ra,16(sp)
  805524:	2821883a 	mov	r16,r5
  805528:	9cc1bc04 	addi	r19,r19,1776
  80552c:	2025883a 	mov	r18,r4
  805530:	080e4080 	call	80e408 <__malloc_lock>
  805534:	98800217 	ldw	r2,8(r19)
  805538:	14400117 	ldw	r17,4(r2)
  80553c:	00bfff04 	movi	r2,-4
  805540:	88a2703a 	and	r17,r17,r2
  805544:	8c21c83a 	sub	r16,r17,r16
  805548:	8403fbc4 	addi	r16,r16,4079
  80554c:	8020d33a 	srli	r16,r16,12
  805550:	0083ffc4 	movi	r2,4095
  805554:	843fffc4 	addi	r16,r16,-1
  805558:	8020933a 	slli	r16,r16,12
  80555c:	1400060e 	bge	r2,r16,805578 <_malloc_trim_r+0x70>
  805560:	000b883a 	mov	r5,zero
  805564:	9009883a 	mov	r4,r18
  805568:	08079e80 	call	8079e8 <_sbrk_r>
  80556c:	98c00217 	ldw	r3,8(r19)
  805570:	1c47883a 	add	r3,r3,r17
  805574:	10c00a26 	beq	r2,r3,8055a0 <_malloc_trim_r+0x98>
  805578:	9009883a 	mov	r4,r18
  80557c:	080e42c0 	call	80e42c <__malloc_unlock>
  805580:	0005883a 	mov	r2,zero
  805584:	dfc00417 	ldw	ra,16(sp)
  805588:	dcc00317 	ldw	r19,12(sp)
  80558c:	dc800217 	ldw	r18,8(sp)
  805590:	dc400117 	ldw	r17,4(sp)
  805594:	dc000017 	ldw	r16,0(sp)
  805598:	dec00504 	addi	sp,sp,20
  80559c:	f800283a 	ret
  8055a0:	040bc83a 	sub	r5,zero,r16
  8055a4:	9009883a 	mov	r4,r18
  8055a8:	08079e80 	call	8079e8 <_sbrk_r>
  8055ac:	00ffffc4 	movi	r3,-1
  8055b0:	10c00d26 	beq	r2,r3,8055e8 <_malloc_trim_r+0xe0>
  8055b4:	00c02074 	movhi	r3,129
  8055b8:	18c5ff04 	addi	r3,r3,6140
  8055bc:	18800017 	ldw	r2,0(r3)
  8055c0:	99000217 	ldw	r4,8(r19)
  8055c4:	8c23c83a 	sub	r17,r17,r16
  8055c8:	8c400054 	ori	r17,r17,1
  8055cc:	1421c83a 	sub	r16,r2,r16
  8055d0:	24400115 	stw	r17,4(r4)
  8055d4:	9009883a 	mov	r4,r18
  8055d8:	1c000015 	stw	r16,0(r3)
  8055dc:	080e42c0 	call	80e42c <__malloc_unlock>
  8055e0:	00800044 	movi	r2,1
  8055e4:	003fe706 	br	805584 <__alt_data_end+0xff805584>
  8055e8:	000b883a 	mov	r5,zero
  8055ec:	9009883a 	mov	r4,r18
  8055f0:	08079e80 	call	8079e8 <_sbrk_r>
  8055f4:	99000217 	ldw	r4,8(r19)
  8055f8:	014003c4 	movi	r5,15
  8055fc:	1107c83a 	sub	r3,r2,r4
  805600:	28ffdd0e 	bge	r5,r3,805578 <__alt_data_end+0xff805578>
  805604:	01402074 	movhi	r5,129
  805608:	29433604 	addi	r5,r5,3288
  80560c:	29400017 	ldw	r5,0(r5)
  805610:	18c00054 	ori	r3,r3,1
  805614:	20c00115 	stw	r3,4(r4)
  805618:	00c02074 	movhi	r3,129
  80561c:	1145c83a 	sub	r2,r2,r5
  805620:	18c5ff04 	addi	r3,r3,6140
  805624:	18800015 	stw	r2,0(r3)
  805628:	003fd306 	br	805578 <__alt_data_end+0xff805578>

0080562c <_free_r>:
  80562c:	28004126 	beq	r5,zero,805734 <_free_r+0x108>
  805630:	defffd04 	addi	sp,sp,-12
  805634:	dc400115 	stw	r17,4(sp)
  805638:	dc000015 	stw	r16,0(sp)
  80563c:	2023883a 	mov	r17,r4
  805640:	2821883a 	mov	r16,r5
  805644:	dfc00215 	stw	ra,8(sp)
  805648:	080e4080 	call	80e408 <__malloc_lock>
  80564c:	81ffff17 	ldw	r7,-4(r16)
  805650:	00bfff84 	movi	r2,-2
  805654:	01002074 	movhi	r4,129
  805658:	81bffe04 	addi	r6,r16,-8
  80565c:	3884703a 	and	r2,r7,r2
  805660:	2101bc04 	addi	r4,r4,1776
  805664:	308b883a 	add	r5,r6,r2
  805668:	2a400117 	ldw	r9,4(r5)
  80566c:	22000217 	ldw	r8,8(r4)
  805670:	00ffff04 	movi	r3,-4
  805674:	48c6703a 	and	r3,r9,r3
  805678:	2a005726 	beq	r5,r8,8057d8 <_free_r+0x1ac>
  80567c:	28c00115 	stw	r3,4(r5)
  805680:	39c0004c 	andi	r7,r7,1
  805684:	3800091e 	bne	r7,zero,8056ac <_free_r+0x80>
  805688:	823ffe17 	ldw	r8,-8(r16)
  80568c:	22400204 	addi	r9,r4,8
  805690:	320dc83a 	sub	r6,r6,r8
  805694:	31c00217 	ldw	r7,8(r6)
  805698:	1205883a 	add	r2,r2,r8
  80569c:	3a406526 	beq	r7,r9,805834 <_free_r+0x208>
  8056a0:	32000317 	ldw	r8,12(r6)
  8056a4:	3a000315 	stw	r8,12(r7)
  8056a8:	41c00215 	stw	r7,8(r8)
  8056ac:	28cf883a 	add	r7,r5,r3
  8056b0:	39c00117 	ldw	r7,4(r7)
  8056b4:	39c0004c 	andi	r7,r7,1
  8056b8:	38003a26 	beq	r7,zero,8057a4 <_free_r+0x178>
  8056bc:	10c00054 	ori	r3,r2,1
  8056c0:	30c00115 	stw	r3,4(r6)
  8056c4:	3087883a 	add	r3,r6,r2
  8056c8:	18800015 	stw	r2,0(r3)
  8056cc:	00c07fc4 	movi	r3,511
  8056d0:	18801936 	bltu	r3,r2,805738 <_free_r+0x10c>
  8056d4:	1004d0fa 	srli	r2,r2,3
  8056d8:	01c00044 	movi	r7,1
  8056dc:	21400117 	ldw	r5,4(r4)
  8056e0:	10c00044 	addi	r3,r2,1
  8056e4:	18c7883a 	add	r3,r3,r3
  8056e8:	1005d0ba 	srai	r2,r2,2
  8056ec:	18c7883a 	add	r3,r3,r3
  8056f0:	18c7883a 	add	r3,r3,r3
  8056f4:	1907883a 	add	r3,r3,r4
  8056f8:	3884983a 	sll	r2,r7,r2
  8056fc:	19c00017 	ldw	r7,0(r3)
  805700:	1a3ffe04 	addi	r8,r3,-8
  805704:	1144b03a 	or	r2,r2,r5
  805708:	32000315 	stw	r8,12(r6)
  80570c:	31c00215 	stw	r7,8(r6)
  805710:	20800115 	stw	r2,4(r4)
  805714:	19800015 	stw	r6,0(r3)
  805718:	39800315 	stw	r6,12(r7)
  80571c:	8809883a 	mov	r4,r17
  805720:	dfc00217 	ldw	ra,8(sp)
  805724:	dc400117 	ldw	r17,4(sp)
  805728:	dc000017 	ldw	r16,0(sp)
  80572c:	dec00304 	addi	sp,sp,12
  805730:	080e42c1 	jmpi	80e42c <__malloc_unlock>
  805734:	f800283a 	ret
  805738:	100ad27a 	srli	r5,r2,9
  80573c:	00c00104 	movi	r3,4
  805740:	19404a36 	bltu	r3,r5,80586c <_free_r+0x240>
  805744:	100ad1ba 	srli	r5,r2,6
  805748:	28c00e44 	addi	r3,r5,57
  80574c:	18c7883a 	add	r3,r3,r3
  805750:	29400e04 	addi	r5,r5,56
  805754:	18c7883a 	add	r3,r3,r3
  805758:	18c7883a 	add	r3,r3,r3
  80575c:	1909883a 	add	r4,r3,r4
  805760:	20c00017 	ldw	r3,0(r4)
  805764:	01c02074 	movhi	r7,129
  805768:	213ffe04 	addi	r4,r4,-8
  80576c:	39c1bc04 	addi	r7,r7,1776
  805770:	20c04426 	beq	r4,r3,805884 <_free_r+0x258>
  805774:	01ffff04 	movi	r7,-4
  805778:	19400117 	ldw	r5,4(r3)
  80577c:	29ca703a 	and	r5,r5,r7
  805780:	1140022e 	bgeu	r2,r5,80578c <_free_r+0x160>
  805784:	18c00217 	ldw	r3,8(r3)
  805788:	20fffb1e 	bne	r4,r3,805778 <__alt_data_end+0xff805778>
  80578c:	19000317 	ldw	r4,12(r3)
  805790:	31000315 	stw	r4,12(r6)
  805794:	30c00215 	stw	r3,8(r6)
  805798:	21800215 	stw	r6,8(r4)
  80579c:	19800315 	stw	r6,12(r3)
  8057a0:	003fde06 	br	80571c <__alt_data_end+0xff80571c>
  8057a4:	29c00217 	ldw	r7,8(r5)
  8057a8:	10c5883a 	add	r2,r2,r3
  8057ac:	00c02074 	movhi	r3,129
  8057b0:	18c1be04 	addi	r3,r3,1784
  8057b4:	38c03b26 	beq	r7,r3,8058a4 <_free_r+0x278>
  8057b8:	2a000317 	ldw	r8,12(r5)
  8057bc:	11400054 	ori	r5,r2,1
  8057c0:	3087883a 	add	r3,r6,r2
  8057c4:	3a000315 	stw	r8,12(r7)
  8057c8:	41c00215 	stw	r7,8(r8)
  8057cc:	31400115 	stw	r5,4(r6)
  8057d0:	18800015 	stw	r2,0(r3)
  8057d4:	003fbd06 	br	8056cc <__alt_data_end+0xff8056cc>
  8057d8:	39c0004c 	andi	r7,r7,1
  8057dc:	10c5883a 	add	r2,r2,r3
  8057e0:	3800071e 	bne	r7,zero,805800 <_free_r+0x1d4>
  8057e4:	81fffe17 	ldw	r7,-8(r16)
  8057e8:	31cdc83a 	sub	r6,r6,r7
  8057ec:	30c00317 	ldw	r3,12(r6)
  8057f0:	31400217 	ldw	r5,8(r6)
  8057f4:	11c5883a 	add	r2,r2,r7
  8057f8:	28c00315 	stw	r3,12(r5)
  8057fc:	19400215 	stw	r5,8(r3)
  805800:	10c00054 	ori	r3,r2,1
  805804:	30c00115 	stw	r3,4(r6)
  805808:	00c02074 	movhi	r3,129
  80580c:	18c33704 	addi	r3,r3,3292
  805810:	18c00017 	ldw	r3,0(r3)
  805814:	21800215 	stw	r6,8(r4)
  805818:	10ffc036 	bltu	r2,r3,80571c <__alt_data_end+0xff80571c>
  80581c:	00802074 	movhi	r2,129
  805820:	1085f604 	addi	r2,r2,6104
  805824:	11400017 	ldw	r5,0(r2)
  805828:	8809883a 	mov	r4,r17
  80582c:	08055080 	call	805508 <_malloc_trim_r>
  805830:	003fba06 	br	80571c <__alt_data_end+0xff80571c>
  805834:	28c9883a 	add	r4,r5,r3
  805838:	21000117 	ldw	r4,4(r4)
  80583c:	2100004c 	andi	r4,r4,1
  805840:	2000391e 	bne	r4,zero,805928 <_free_r+0x2fc>
  805844:	29c00217 	ldw	r7,8(r5)
  805848:	29000317 	ldw	r4,12(r5)
  80584c:	1885883a 	add	r2,r3,r2
  805850:	10c00054 	ori	r3,r2,1
  805854:	39000315 	stw	r4,12(r7)
  805858:	21c00215 	stw	r7,8(r4)
  80585c:	30c00115 	stw	r3,4(r6)
  805860:	308d883a 	add	r6,r6,r2
  805864:	30800015 	stw	r2,0(r6)
  805868:	003fac06 	br	80571c <__alt_data_end+0xff80571c>
  80586c:	00c00504 	movi	r3,20
  805870:	19401536 	bltu	r3,r5,8058c8 <_free_r+0x29c>
  805874:	28c01704 	addi	r3,r5,92
  805878:	18c7883a 	add	r3,r3,r3
  80587c:	294016c4 	addi	r5,r5,91
  805880:	003fb406 	br	805754 <__alt_data_end+0xff805754>
  805884:	280bd0ba 	srai	r5,r5,2
  805888:	00c00044 	movi	r3,1
  80588c:	38800117 	ldw	r2,4(r7)
  805890:	194a983a 	sll	r5,r3,r5
  805894:	2007883a 	mov	r3,r4
  805898:	2884b03a 	or	r2,r5,r2
  80589c:	38800115 	stw	r2,4(r7)
  8058a0:	003fbb06 	br	805790 <__alt_data_end+0xff805790>
  8058a4:	21800515 	stw	r6,20(r4)
  8058a8:	21800415 	stw	r6,16(r4)
  8058ac:	10c00054 	ori	r3,r2,1
  8058b0:	31c00315 	stw	r7,12(r6)
  8058b4:	31c00215 	stw	r7,8(r6)
  8058b8:	30c00115 	stw	r3,4(r6)
  8058bc:	308d883a 	add	r6,r6,r2
  8058c0:	30800015 	stw	r2,0(r6)
  8058c4:	003f9506 	br	80571c <__alt_data_end+0xff80571c>
  8058c8:	00c01504 	movi	r3,84
  8058cc:	19400536 	bltu	r3,r5,8058e4 <_free_r+0x2b8>
  8058d0:	100ad33a 	srli	r5,r2,12
  8058d4:	28c01bc4 	addi	r3,r5,111
  8058d8:	18c7883a 	add	r3,r3,r3
  8058dc:	29401b84 	addi	r5,r5,110
  8058e0:	003f9c06 	br	805754 <__alt_data_end+0xff805754>
  8058e4:	00c05504 	movi	r3,340
  8058e8:	19400536 	bltu	r3,r5,805900 <_free_r+0x2d4>
  8058ec:	100ad3fa 	srli	r5,r2,15
  8058f0:	28c01e04 	addi	r3,r5,120
  8058f4:	18c7883a 	add	r3,r3,r3
  8058f8:	29401dc4 	addi	r5,r5,119
  8058fc:	003f9506 	br	805754 <__alt_data_end+0xff805754>
  805900:	00c15504 	movi	r3,1364
  805904:	19400536 	bltu	r3,r5,80591c <_free_r+0x2f0>
  805908:	100ad4ba 	srli	r5,r2,18
  80590c:	28c01f44 	addi	r3,r5,125
  805910:	18c7883a 	add	r3,r3,r3
  805914:	29401f04 	addi	r5,r5,124
  805918:	003f8e06 	br	805754 <__alt_data_end+0xff805754>
  80591c:	00c03f84 	movi	r3,254
  805920:	01401f84 	movi	r5,126
  805924:	003f8b06 	br	805754 <__alt_data_end+0xff805754>
  805928:	10c00054 	ori	r3,r2,1
  80592c:	30c00115 	stw	r3,4(r6)
  805930:	308d883a 	add	r6,r6,r2
  805934:	30800015 	stw	r2,0(r6)
  805938:	003f7806 	br	80571c <__alt_data_end+0xff80571c>

0080593c <_fwalk>:
  80593c:	defff704 	addi	sp,sp,-36
  805940:	dd000415 	stw	r20,16(sp)
  805944:	dfc00815 	stw	ra,32(sp)
  805948:	ddc00715 	stw	r23,28(sp)
  80594c:	dd800615 	stw	r22,24(sp)
  805950:	dd400515 	stw	r21,20(sp)
  805954:	dcc00315 	stw	r19,12(sp)
  805958:	dc800215 	stw	r18,8(sp)
  80595c:	dc400115 	stw	r17,4(sp)
  805960:	dc000015 	stw	r16,0(sp)
  805964:	2500b804 	addi	r20,r4,736
  805968:	a0002326 	beq	r20,zero,8059f8 <_fwalk+0xbc>
  80596c:	282b883a 	mov	r21,r5
  805970:	002f883a 	mov	r23,zero
  805974:	05800044 	movi	r22,1
  805978:	04ffffc4 	movi	r19,-1
  80597c:	a4400117 	ldw	r17,4(r20)
  805980:	a4800217 	ldw	r18,8(r20)
  805984:	8c7fffc4 	addi	r17,r17,-1
  805988:	88000d16 	blt	r17,zero,8059c0 <_fwalk+0x84>
  80598c:	94000304 	addi	r16,r18,12
  805990:	94800384 	addi	r18,r18,14
  805994:	8080000b 	ldhu	r2,0(r16)
  805998:	8c7fffc4 	addi	r17,r17,-1
  80599c:	813ffd04 	addi	r4,r16,-12
  8059a0:	b080042e 	bgeu	r22,r2,8059b4 <_fwalk+0x78>
  8059a4:	9080000f 	ldh	r2,0(r18)
  8059a8:	14c00226 	beq	r2,r19,8059b4 <_fwalk+0x78>
  8059ac:	a83ee83a 	callr	r21
  8059b0:	b8aeb03a 	or	r23,r23,r2
  8059b4:	84001a04 	addi	r16,r16,104
  8059b8:	94801a04 	addi	r18,r18,104
  8059bc:	8cfff51e 	bne	r17,r19,805994 <__alt_data_end+0xff805994>
  8059c0:	a5000017 	ldw	r20,0(r20)
  8059c4:	a03fed1e 	bne	r20,zero,80597c <__alt_data_end+0xff80597c>
  8059c8:	b805883a 	mov	r2,r23
  8059cc:	dfc00817 	ldw	ra,32(sp)
  8059d0:	ddc00717 	ldw	r23,28(sp)
  8059d4:	dd800617 	ldw	r22,24(sp)
  8059d8:	dd400517 	ldw	r21,20(sp)
  8059dc:	dd000417 	ldw	r20,16(sp)
  8059e0:	dcc00317 	ldw	r19,12(sp)
  8059e4:	dc800217 	ldw	r18,8(sp)
  8059e8:	dc400117 	ldw	r17,4(sp)
  8059ec:	dc000017 	ldw	r16,0(sp)
  8059f0:	dec00904 	addi	sp,sp,36
  8059f4:	f800283a 	ret
  8059f8:	002f883a 	mov	r23,zero
  8059fc:	003ff206 	br	8059c8 <__alt_data_end+0xff8059c8>

00805a00 <_fwalk_reent>:
  805a00:	defff704 	addi	sp,sp,-36
  805a04:	dd000415 	stw	r20,16(sp)
  805a08:	dfc00815 	stw	ra,32(sp)
  805a0c:	ddc00715 	stw	r23,28(sp)
  805a10:	dd800615 	stw	r22,24(sp)
  805a14:	dd400515 	stw	r21,20(sp)
  805a18:	dcc00315 	stw	r19,12(sp)
  805a1c:	dc800215 	stw	r18,8(sp)
  805a20:	dc400115 	stw	r17,4(sp)
  805a24:	dc000015 	stw	r16,0(sp)
  805a28:	2500b804 	addi	r20,r4,736
  805a2c:	a0002326 	beq	r20,zero,805abc <_fwalk_reent+0xbc>
  805a30:	282b883a 	mov	r21,r5
  805a34:	2027883a 	mov	r19,r4
  805a38:	002f883a 	mov	r23,zero
  805a3c:	05800044 	movi	r22,1
  805a40:	04bfffc4 	movi	r18,-1
  805a44:	a4400117 	ldw	r17,4(r20)
  805a48:	a4000217 	ldw	r16,8(r20)
  805a4c:	8c7fffc4 	addi	r17,r17,-1
  805a50:	88000c16 	blt	r17,zero,805a84 <_fwalk_reent+0x84>
  805a54:	84000304 	addi	r16,r16,12
  805a58:	8080000b 	ldhu	r2,0(r16)
  805a5c:	8c7fffc4 	addi	r17,r17,-1
  805a60:	817ffd04 	addi	r5,r16,-12
  805a64:	b080052e 	bgeu	r22,r2,805a7c <_fwalk_reent+0x7c>
  805a68:	8080008f 	ldh	r2,2(r16)
  805a6c:	9809883a 	mov	r4,r19
  805a70:	14800226 	beq	r2,r18,805a7c <_fwalk_reent+0x7c>
  805a74:	a83ee83a 	callr	r21
  805a78:	b8aeb03a 	or	r23,r23,r2
  805a7c:	84001a04 	addi	r16,r16,104
  805a80:	8cbff51e 	bne	r17,r18,805a58 <__alt_data_end+0xff805a58>
  805a84:	a5000017 	ldw	r20,0(r20)
  805a88:	a03fee1e 	bne	r20,zero,805a44 <__alt_data_end+0xff805a44>
  805a8c:	b805883a 	mov	r2,r23
  805a90:	dfc00817 	ldw	ra,32(sp)
  805a94:	ddc00717 	ldw	r23,28(sp)
  805a98:	dd800617 	ldw	r22,24(sp)
  805a9c:	dd400517 	ldw	r21,20(sp)
  805aa0:	dd000417 	ldw	r20,16(sp)
  805aa4:	dcc00317 	ldw	r19,12(sp)
  805aa8:	dc800217 	ldw	r18,8(sp)
  805aac:	dc400117 	ldw	r17,4(sp)
  805ab0:	dc000017 	ldw	r16,0(sp)
  805ab4:	dec00904 	addi	sp,sp,36
  805ab8:	f800283a 	ret
  805abc:	002f883a 	mov	r23,zero
  805ac0:	003ff206 	br	805a8c <__alt_data_end+0xff805a8c>

00805ac4 <_setlocale_r>:
  805ac4:	30001b26 	beq	r6,zero,805b34 <_setlocale_r+0x70>
  805ac8:	01402074 	movhi	r5,129
  805acc:	defffe04 	addi	sp,sp,-8
  805ad0:	29403604 	addi	r5,r5,216
  805ad4:	3009883a 	mov	r4,r6
  805ad8:	dc000015 	stw	r16,0(sp)
  805adc:	dfc00115 	stw	ra,4(sp)
  805ae0:	3021883a 	mov	r16,r6
  805ae4:	0807b780 	call	807b78 <strcmp>
  805ae8:	1000061e 	bne	r2,zero,805b04 <_setlocale_r+0x40>
  805aec:	00802074 	movhi	r2,129
  805af0:	10803504 	addi	r2,r2,212
  805af4:	dfc00117 	ldw	ra,4(sp)
  805af8:	dc000017 	ldw	r16,0(sp)
  805afc:	dec00204 	addi	sp,sp,8
  805b00:	f800283a 	ret
  805b04:	01402074 	movhi	r5,129
  805b08:	29403504 	addi	r5,r5,212
  805b0c:	8009883a 	mov	r4,r16
  805b10:	0807b780 	call	807b78 <strcmp>
  805b14:	103ff526 	beq	r2,zero,805aec <__alt_data_end+0xff805aec>
  805b18:	01402074 	movhi	r5,129
  805b1c:	29402004 	addi	r5,r5,128
  805b20:	8009883a 	mov	r4,r16
  805b24:	0807b780 	call	807b78 <strcmp>
  805b28:	103ff026 	beq	r2,zero,805aec <__alt_data_end+0xff805aec>
  805b2c:	0005883a 	mov	r2,zero
  805b30:	003ff006 	br	805af4 <__alt_data_end+0xff805af4>
  805b34:	00802074 	movhi	r2,129
  805b38:	10803504 	addi	r2,r2,212
  805b3c:	f800283a 	ret

00805b40 <__locale_charset>:
  805b40:	00802074 	movhi	r2,129
  805b44:	1081a604 	addi	r2,r2,1688
  805b48:	f800283a 	ret

00805b4c <__locale_mb_cur_max>:
  805b4c:	00802074 	movhi	r2,129
  805b50:	10833504 	addi	r2,r2,3284
  805b54:	10800017 	ldw	r2,0(r2)
  805b58:	f800283a 	ret

00805b5c <__locale_msgcharset>:
  805b5c:	00802074 	movhi	r2,129
  805b60:	10819e04 	addi	r2,r2,1656
  805b64:	f800283a 	ret

00805b68 <__locale_cjk_lang>:
  805b68:	0005883a 	mov	r2,zero
  805b6c:	f800283a 	ret

00805b70 <_localeconv_r>:
  805b70:	00802074 	movhi	r2,129
  805b74:	1081ae04 	addi	r2,r2,1720
  805b78:	f800283a 	ret

00805b7c <setlocale>:
  805b7c:	00802074 	movhi	r2,129
  805b80:	10833404 	addi	r2,r2,3280
  805b84:	280d883a 	mov	r6,r5
  805b88:	200b883a 	mov	r5,r4
  805b8c:	11000017 	ldw	r4,0(r2)
  805b90:	0805ac41 	jmpi	805ac4 <_setlocale_r>

00805b94 <localeconv>:
  805b94:	00802074 	movhi	r2,129
  805b98:	1081ae04 	addi	r2,r2,1720
  805b9c:	f800283a 	ret

00805ba0 <__smakebuf_r>:
  805ba0:	2880030b 	ldhu	r2,12(r5)
  805ba4:	10c0008c 	andi	r3,r2,2
  805ba8:	1800411e 	bne	r3,zero,805cb0 <__smakebuf_r+0x110>
  805bac:	deffec04 	addi	sp,sp,-80
  805bb0:	dc000f15 	stw	r16,60(sp)
  805bb4:	2821883a 	mov	r16,r5
  805bb8:	2940038f 	ldh	r5,14(r5)
  805bbc:	dc401015 	stw	r17,64(sp)
  805bc0:	dfc01315 	stw	ra,76(sp)
  805bc4:	dcc01215 	stw	r19,72(sp)
  805bc8:	dc801115 	stw	r18,68(sp)
  805bcc:	2023883a 	mov	r17,r4
  805bd0:	28001c16 	blt	r5,zero,805c44 <__smakebuf_r+0xa4>
  805bd4:	d80d883a 	mov	r6,sp
  805bd8:	08098800 	call	809880 <_fstat_r>
  805bdc:	10001816 	blt	r2,zero,805c40 <__smakebuf_r+0xa0>
  805be0:	d8800117 	ldw	r2,4(sp)
  805be4:	00e00014 	movui	r3,32768
  805be8:	10bc000c 	andi	r2,r2,61440
  805bec:	14c80020 	cmpeqi	r19,r2,8192
  805bf0:	10c03726 	beq	r2,r3,805cd0 <__smakebuf_r+0x130>
  805bf4:	80c0030b 	ldhu	r3,12(r16)
  805bf8:	18c20014 	ori	r3,r3,2048
  805bfc:	80c0030d 	sth	r3,12(r16)
  805c00:	00c80004 	movi	r3,8192
  805c04:	10c0521e 	bne	r2,r3,805d50 <__smakebuf_r+0x1b0>
  805c08:	8140038f 	ldh	r5,14(r16)
  805c0c:	8809883a 	mov	r4,r17
  805c10:	0809da40 	call	809da4 <_isatty_r>
  805c14:	10004c26 	beq	r2,zero,805d48 <__smakebuf_r+0x1a8>
  805c18:	8080030b 	ldhu	r2,12(r16)
  805c1c:	80c010c4 	addi	r3,r16,67
  805c20:	80c00015 	stw	r3,0(r16)
  805c24:	10800054 	ori	r2,r2,1
  805c28:	8080030d 	sth	r2,12(r16)
  805c2c:	00800044 	movi	r2,1
  805c30:	80c00415 	stw	r3,16(r16)
  805c34:	80800515 	stw	r2,20(r16)
  805c38:	04810004 	movi	r18,1024
  805c3c:	00000706 	br	805c5c <__smakebuf_r+0xbc>
  805c40:	8080030b 	ldhu	r2,12(r16)
  805c44:	10c0200c 	andi	r3,r2,128
  805c48:	18001f1e 	bne	r3,zero,805cc8 <__smakebuf_r+0x128>
  805c4c:	04810004 	movi	r18,1024
  805c50:	10820014 	ori	r2,r2,2048
  805c54:	8080030d 	sth	r2,12(r16)
  805c58:	0027883a 	mov	r19,zero
  805c5c:	900b883a 	mov	r5,r18
  805c60:	8809883a 	mov	r4,r17
  805c64:	0805d5c0 	call	805d5c <_malloc_r>
  805c68:	10002c26 	beq	r2,zero,805d1c <__smakebuf_r+0x17c>
  805c6c:	80c0030b 	ldhu	r3,12(r16)
  805c70:	01002034 	movhi	r4,128
  805c74:	21145804 	addi	r4,r4,20832
  805c78:	89000f15 	stw	r4,60(r17)
  805c7c:	18c02014 	ori	r3,r3,128
  805c80:	80c0030d 	sth	r3,12(r16)
  805c84:	80800015 	stw	r2,0(r16)
  805c88:	80800415 	stw	r2,16(r16)
  805c8c:	84800515 	stw	r18,20(r16)
  805c90:	98001a1e 	bne	r19,zero,805cfc <__smakebuf_r+0x15c>
  805c94:	dfc01317 	ldw	ra,76(sp)
  805c98:	dcc01217 	ldw	r19,72(sp)
  805c9c:	dc801117 	ldw	r18,68(sp)
  805ca0:	dc401017 	ldw	r17,64(sp)
  805ca4:	dc000f17 	ldw	r16,60(sp)
  805ca8:	dec01404 	addi	sp,sp,80
  805cac:	f800283a 	ret
  805cb0:	288010c4 	addi	r2,r5,67
  805cb4:	28800015 	stw	r2,0(r5)
  805cb8:	28800415 	stw	r2,16(r5)
  805cbc:	00800044 	movi	r2,1
  805cc0:	28800515 	stw	r2,20(r5)
  805cc4:	f800283a 	ret
  805cc8:	04801004 	movi	r18,64
  805ccc:	003fe006 	br	805c50 <__alt_data_end+0xff805c50>
  805cd0:	81000a17 	ldw	r4,40(r16)
  805cd4:	00c02034 	movhi	r3,128
  805cd8:	18dec504 	addi	r3,r3,31508
  805cdc:	20ffc51e 	bne	r4,r3,805bf4 <__alt_data_end+0xff805bf4>
  805ce0:	8080030b 	ldhu	r2,12(r16)
  805ce4:	04810004 	movi	r18,1024
  805ce8:	84801315 	stw	r18,76(r16)
  805cec:	1484b03a 	or	r2,r2,r18
  805cf0:	8080030d 	sth	r2,12(r16)
  805cf4:	0027883a 	mov	r19,zero
  805cf8:	003fd806 	br	805c5c <__alt_data_end+0xff805c5c>
  805cfc:	8140038f 	ldh	r5,14(r16)
  805d00:	8809883a 	mov	r4,r17
  805d04:	0809da40 	call	809da4 <_isatty_r>
  805d08:	103fe226 	beq	r2,zero,805c94 <__alt_data_end+0xff805c94>
  805d0c:	8080030b 	ldhu	r2,12(r16)
  805d10:	10800054 	ori	r2,r2,1
  805d14:	8080030d 	sth	r2,12(r16)
  805d18:	003fde06 	br	805c94 <__alt_data_end+0xff805c94>
  805d1c:	8080030b 	ldhu	r2,12(r16)
  805d20:	10c0800c 	andi	r3,r2,512
  805d24:	183fdb1e 	bne	r3,zero,805c94 <__alt_data_end+0xff805c94>
  805d28:	10800094 	ori	r2,r2,2
  805d2c:	80c010c4 	addi	r3,r16,67
  805d30:	8080030d 	sth	r2,12(r16)
  805d34:	00800044 	movi	r2,1
  805d38:	80c00015 	stw	r3,0(r16)
  805d3c:	80c00415 	stw	r3,16(r16)
  805d40:	80800515 	stw	r2,20(r16)
  805d44:	003fd306 	br	805c94 <__alt_data_end+0xff805c94>
  805d48:	04810004 	movi	r18,1024
  805d4c:	003fc306 	br	805c5c <__alt_data_end+0xff805c5c>
  805d50:	0027883a 	mov	r19,zero
  805d54:	04810004 	movi	r18,1024
  805d58:	003fc006 	br	805c5c <__alt_data_end+0xff805c5c>

00805d5c <_malloc_r>:
  805d5c:	defff504 	addi	sp,sp,-44
  805d60:	dc800315 	stw	r18,12(sp)
  805d64:	dfc00a15 	stw	ra,40(sp)
  805d68:	df000915 	stw	fp,36(sp)
  805d6c:	ddc00815 	stw	r23,32(sp)
  805d70:	dd800715 	stw	r22,28(sp)
  805d74:	dd400615 	stw	r21,24(sp)
  805d78:	dd000515 	stw	r20,20(sp)
  805d7c:	dcc00415 	stw	r19,16(sp)
  805d80:	dc400215 	stw	r17,8(sp)
  805d84:	dc000115 	stw	r16,4(sp)
  805d88:	288002c4 	addi	r2,r5,11
  805d8c:	00c00584 	movi	r3,22
  805d90:	2025883a 	mov	r18,r4
  805d94:	18807f2e 	bgeu	r3,r2,805f94 <_malloc_r+0x238>
  805d98:	047ffe04 	movi	r17,-8
  805d9c:	1462703a 	and	r17,r2,r17
  805da0:	8800a316 	blt	r17,zero,806030 <_malloc_r+0x2d4>
  805da4:	8940a236 	bltu	r17,r5,806030 <_malloc_r+0x2d4>
  805da8:	080e4080 	call	80e408 <__malloc_lock>
  805dac:	00807dc4 	movi	r2,503
  805db0:	1441e92e 	bgeu	r2,r17,806558 <_malloc_r+0x7fc>
  805db4:	8804d27a 	srli	r2,r17,9
  805db8:	1000a126 	beq	r2,zero,806040 <_malloc_r+0x2e4>
  805dbc:	00c00104 	movi	r3,4
  805dc0:	18811e36 	bltu	r3,r2,80623c <_malloc_r+0x4e0>
  805dc4:	8804d1ba 	srli	r2,r17,6
  805dc8:	12000e44 	addi	r8,r2,57
  805dcc:	11c00e04 	addi	r7,r2,56
  805dd0:	4209883a 	add	r4,r8,r8
  805dd4:	04c02074 	movhi	r19,129
  805dd8:	2109883a 	add	r4,r4,r4
  805ddc:	9cc1bc04 	addi	r19,r19,1776
  805de0:	2109883a 	add	r4,r4,r4
  805de4:	9909883a 	add	r4,r19,r4
  805de8:	24000117 	ldw	r16,4(r4)
  805dec:	213ffe04 	addi	r4,r4,-8
  805df0:	24009726 	beq	r4,r16,806050 <_malloc_r+0x2f4>
  805df4:	80800117 	ldw	r2,4(r16)
  805df8:	01bfff04 	movi	r6,-4
  805dfc:	014003c4 	movi	r5,15
  805e00:	1184703a 	and	r2,r2,r6
  805e04:	1447c83a 	sub	r3,r2,r17
  805e08:	28c00716 	blt	r5,r3,805e28 <_malloc_r+0xcc>
  805e0c:	1800920e 	bge	r3,zero,806058 <_malloc_r+0x2fc>
  805e10:	84000317 	ldw	r16,12(r16)
  805e14:	24008e26 	beq	r4,r16,806050 <_malloc_r+0x2f4>
  805e18:	80800117 	ldw	r2,4(r16)
  805e1c:	1184703a 	and	r2,r2,r6
  805e20:	1447c83a 	sub	r3,r2,r17
  805e24:	28fff90e 	bge	r5,r3,805e0c <__alt_data_end+0xff805e0c>
  805e28:	3809883a 	mov	r4,r7
  805e2c:	01802074 	movhi	r6,129
  805e30:	9c000417 	ldw	r16,16(r19)
  805e34:	3181bc04 	addi	r6,r6,1776
  805e38:	32000204 	addi	r8,r6,8
  805e3c:	82013426 	beq	r16,r8,806310 <_malloc_r+0x5b4>
  805e40:	80c00117 	ldw	r3,4(r16)
  805e44:	00bfff04 	movi	r2,-4
  805e48:	188e703a 	and	r7,r3,r2
  805e4c:	3c45c83a 	sub	r2,r7,r17
  805e50:	00c003c4 	movi	r3,15
  805e54:	18811f16 	blt	r3,r2,8062d4 <_malloc_r+0x578>
  805e58:	32000515 	stw	r8,20(r6)
  805e5c:	32000415 	stw	r8,16(r6)
  805e60:	10007f0e 	bge	r2,zero,806060 <_malloc_r+0x304>
  805e64:	00807fc4 	movi	r2,511
  805e68:	11c0fd36 	bltu	r2,r7,806260 <_malloc_r+0x504>
  805e6c:	3806d0fa 	srli	r3,r7,3
  805e70:	01c00044 	movi	r7,1
  805e74:	30800117 	ldw	r2,4(r6)
  805e78:	19400044 	addi	r5,r3,1
  805e7c:	294b883a 	add	r5,r5,r5
  805e80:	1807d0ba 	srai	r3,r3,2
  805e84:	294b883a 	add	r5,r5,r5
  805e88:	294b883a 	add	r5,r5,r5
  805e8c:	298b883a 	add	r5,r5,r6
  805e90:	38c6983a 	sll	r3,r7,r3
  805e94:	29c00017 	ldw	r7,0(r5)
  805e98:	2a7ffe04 	addi	r9,r5,-8
  805e9c:	1886b03a 	or	r3,r3,r2
  805ea0:	82400315 	stw	r9,12(r16)
  805ea4:	81c00215 	stw	r7,8(r16)
  805ea8:	30c00115 	stw	r3,4(r6)
  805eac:	2c000015 	stw	r16,0(r5)
  805eb0:	3c000315 	stw	r16,12(r7)
  805eb4:	2005d0ba 	srai	r2,r4,2
  805eb8:	01400044 	movi	r5,1
  805ebc:	288a983a 	sll	r5,r5,r2
  805ec0:	19406f36 	bltu	r3,r5,806080 <_malloc_r+0x324>
  805ec4:	28c4703a 	and	r2,r5,r3
  805ec8:	10000a1e 	bne	r2,zero,805ef4 <_malloc_r+0x198>
  805ecc:	00bfff04 	movi	r2,-4
  805ed0:	294b883a 	add	r5,r5,r5
  805ed4:	2088703a 	and	r4,r4,r2
  805ed8:	28c4703a 	and	r2,r5,r3
  805edc:	21000104 	addi	r4,r4,4
  805ee0:	1000041e 	bne	r2,zero,805ef4 <_malloc_r+0x198>
  805ee4:	294b883a 	add	r5,r5,r5
  805ee8:	28c4703a 	and	r2,r5,r3
  805eec:	21000104 	addi	r4,r4,4
  805ef0:	103ffc26 	beq	r2,zero,805ee4 <__alt_data_end+0xff805ee4>
  805ef4:	02bfff04 	movi	r10,-4
  805ef8:	024003c4 	movi	r9,15
  805efc:	21800044 	addi	r6,r4,1
  805f00:	318d883a 	add	r6,r6,r6
  805f04:	318d883a 	add	r6,r6,r6
  805f08:	318d883a 	add	r6,r6,r6
  805f0c:	998d883a 	add	r6,r19,r6
  805f10:	333ffe04 	addi	r12,r6,-8
  805f14:	2017883a 	mov	r11,r4
  805f18:	31800104 	addi	r6,r6,4
  805f1c:	34000017 	ldw	r16,0(r6)
  805f20:	31fffd04 	addi	r7,r6,-12
  805f24:	81c0041e 	bne	r16,r7,805f38 <_malloc_r+0x1dc>
  805f28:	0000fb06 	br	806318 <_malloc_r+0x5bc>
  805f2c:	1801030e 	bge	r3,zero,80633c <_malloc_r+0x5e0>
  805f30:	84000317 	ldw	r16,12(r16)
  805f34:	81c0f826 	beq	r16,r7,806318 <_malloc_r+0x5bc>
  805f38:	80800117 	ldw	r2,4(r16)
  805f3c:	1284703a 	and	r2,r2,r10
  805f40:	1447c83a 	sub	r3,r2,r17
  805f44:	48fff90e 	bge	r9,r3,805f2c <__alt_data_end+0xff805f2c>
  805f48:	80800317 	ldw	r2,12(r16)
  805f4c:	81000217 	ldw	r4,8(r16)
  805f50:	89400054 	ori	r5,r17,1
  805f54:	81400115 	stw	r5,4(r16)
  805f58:	20800315 	stw	r2,12(r4)
  805f5c:	11000215 	stw	r4,8(r2)
  805f60:	8463883a 	add	r17,r16,r17
  805f64:	9c400515 	stw	r17,20(r19)
  805f68:	9c400415 	stw	r17,16(r19)
  805f6c:	18800054 	ori	r2,r3,1
  805f70:	88800115 	stw	r2,4(r17)
  805f74:	8a000315 	stw	r8,12(r17)
  805f78:	8a000215 	stw	r8,8(r17)
  805f7c:	88e3883a 	add	r17,r17,r3
  805f80:	88c00015 	stw	r3,0(r17)
  805f84:	9009883a 	mov	r4,r18
  805f88:	080e42c0 	call	80e42c <__malloc_unlock>
  805f8c:	80800204 	addi	r2,r16,8
  805f90:	00001b06 	br	806000 <_malloc_r+0x2a4>
  805f94:	04400404 	movi	r17,16
  805f98:	89402536 	bltu	r17,r5,806030 <_malloc_r+0x2d4>
  805f9c:	080e4080 	call	80e408 <__malloc_lock>
  805fa0:	00800184 	movi	r2,6
  805fa4:	01000084 	movi	r4,2
  805fa8:	04c02074 	movhi	r19,129
  805fac:	1085883a 	add	r2,r2,r2
  805fb0:	9cc1bc04 	addi	r19,r19,1776
  805fb4:	1085883a 	add	r2,r2,r2
  805fb8:	9885883a 	add	r2,r19,r2
  805fbc:	14000117 	ldw	r16,4(r2)
  805fc0:	10fffe04 	addi	r3,r2,-8
  805fc4:	80c0d926 	beq	r16,r3,80632c <_malloc_r+0x5d0>
  805fc8:	80c00117 	ldw	r3,4(r16)
  805fcc:	81000317 	ldw	r4,12(r16)
  805fd0:	00bfff04 	movi	r2,-4
  805fd4:	1884703a 	and	r2,r3,r2
  805fd8:	81400217 	ldw	r5,8(r16)
  805fdc:	8085883a 	add	r2,r16,r2
  805fe0:	10c00117 	ldw	r3,4(r2)
  805fe4:	29000315 	stw	r4,12(r5)
  805fe8:	21400215 	stw	r5,8(r4)
  805fec:	18c00054 	ori	r3,r3,1
  805ff0:	10c00115 	stw	r3,4(r2)
  805ff4:	9009883a 	mov	r4,r18
  805ff8:	080e42c0 	call	80e42c <__malloc_unlock>
  805ffc:	80800204 	addi	r2,r16,8
  806000:	dfc00a17 	ldw	ra,40(sp)
  806004:	df000917 	ldw	fp,36(sp)
  806008:	ddc00817 	ldw	r23,32(sp)
  80600c:	dd800717 	ldw	r22,28(sp)
  806010:	dd400617 	ldw	r21,24(sp)
  806014:	dd000517 	ldw	r20,20(sp)
  806018:	dcc00417 	ldw	r19,16(sp)
  80601c:	dc800317 	ldw	r18,12(sp)
  806020:	dc400217 	ldw	r17,8(sp)
  806024:	dc000117 	ldw	r16,4(sp)
  806028:	dec00b04 	addi	sp,sp,44
  80602c:	f800283a 	ret
  806030:	00800304 	movi	r2,12
  806034:	90800015 	stw	r2,0(r18)
  806038:	0005883a 	mov	r2,zero
  80603c:	003ff006 	br	806000 <__alt_data_end+0xff806000>
  806040:	01002004 	movi	r4,128
  806044:	02001004 	movi	r8,64
  806048:	01c00fc4 	movi	r7,63
  80604c:	003f6106 	br	805dd4 <__alt_data_end+0xff805dd4>
  806050:	4009883a 	mov	r4,r8
  806054:	003f7506 	br	805e2c <__alt_data_end+0xff805e2c>
  806058:	81000317 	ldw	r4,12(r16)
  80605c:	003fde06 	br	805fd8 <__alt_data_end+0xff805fd8>
  806060:	81c5883a 	add	r2,r16,r7
  806064:	11400117 	ldw	r5,4(r2)
  806068:	9009883a 	mov	r4,r18
  80606c:	29400054 	ori	r5,r5,1
  806070:	11400115 	stw	r5,4(r2)
  806074:	080e42c0 	call	80e42c <__malloc_unlock>
  806078:	80800204 	addi	r2,r16,8
  80607c:	003fe006 	br	806000 <__alt_data_end+0xff806000>
  806080:	9c000217 	ldw	r16,8(r19)
  806084:	00bfff04 	movi	r2,-4
  806088:	85800117 	ldw	r22,4(r16)
  80608c:	b0ac703a 	and	r22,r22,r2
  806090:	b4400336 	bltu	r22,r17,8060a0 <_malloc_r+0x344>
  806094:	b445c83a 	sub	r2,r22,r17
  806098:	00c003c4 	movi	r3,15
  80609c:	18805d16 	blt	r3,r2,806214 <_malloc_r+0x4b8>
  8060a0:	05c02074 	movhi	r23,129
  8060a4:	00802074 	movhi	r2,129
  8060a8:	1085f604 	addi	r2,r2,6104
  8060ac:	bdc33604 	addi	r23,r23,3288
  8060b0:	15400017 	ldw	r21,0(r2)
  8060b4:	b8c00017 	ldw	r3,0(r23)
  8060b8:	00bfffc4 	movi	r2,-1
  8060bc:	858d883a 	add	r6,r16,r22
  8060c0:	8d6b883a 	add	r21,r17,r21
  8060c4:	1880ea26 	beq	r3,r2,806470 <_malloc_r+0x714>
  8060c8:	ad4403c4 	addi	r21,r21,4111
  8060cc:	00bc0004 	movi	r2,-4096
  8060d0:	a8aa703a 	and	r21,r21,r2
  8060d4:	a80b883a 	mov	r5,r21
  8060d8:	9009883a 	mov	r4,r18
  8060dc:	d9800015 	stw	r6,0(sp)
  8060e0:	08079e80 	call	8079e8 <_sbrk_r>
  8060e4:	1029883a 	mov	r20,r2
  8060e8:	00bfffc4 	movi	r2,-1
  8060ec:	d9800017 	ldw	r6,0(sp)
  8060f0:	a080e826 	beq	r20,r2,806494 <_malloc_r+0x738>
  8060f4:	a180a636 	bltu	r20,r6,806390 <_malloc_r+0x634>
  8060f8:	07002074 	movhi	fp,129
  8060fc:	e705ff04 	addi	fp,fp,6140
  806100:	e0800017 	ldw	r2,0(fp)
  806104:	a887883a 	add	r3,r21,r2
  806108:	e0c00015 	stw	r3,0(fp)
  80610c:	3500e626 	beq	r6,r20,8064a8 <_malloc_r+0x74c>
  806110:	b9000017 	ldw	r4,0(r23)
  806114:	00bfffc4 	movi	r2,-1
  806118:	2080ee26 	beq	r4,r2,8064d4 <_malloc_r+0x778>
  80611c:	a185c83a 	sub	r2,r20,r6
  806120:	10c5883a 	add	r2,r2,r3
  806124:	e0800015 	stw	r2,0(fp)
  806128:	a0c001cc 	andi	r3,r20,7
  80612c:	1800bc26 	beq	r3,zero,806420 <_malloc_r+0x6c4>
  806130:	a0e9c83a 	sub	r20,r20,r3
  806134:	00840204 	movi	r2,4104
  806138:	a5000204 	addi	r20,r20,8
  80613c:	10c7c83a 	sub	r3,r2,r3
  806140:	a545883a 	add	r2,r20,r21
  806144:	1083ffcc 	andi	r2,r2,4095
  806148:	18abc83a 	sub	r21,r3,r2
  80614c:	a80b883a 	mov	r5,r21
  806150:	9009883a 	mov	r4,r18
  806154:	08079e80 	call	8079e8 <_sbrk_r>
  806158:	00ffffc4 	movi	r3,-1
  80615c:	10c0e126 	beq	r2,r3,8064e4 <_malloc_r+0x788>
  806160:	1505c83a 	sub	r2,r2,r20
  806164:	1545883a 	add	r2,r2,r21
  806168:	10800054 	ori	r2,r2,1
  80616c:	e0c00017 	ldw	r3,0(fp)
  806170:	9d000215 	stw	r20,8(r19)
  806174:	a0800115 	stw	r2,4(r20)
  806178:	a8c7883a 	add	r3,r21,r3
  80617c:	e0c00015 	stw	r3,0(fp)
  806180:	84c00e26 	beq	r16,r19,8061bc <_malloc_r+0x460>
  806184:	018003c4 	movi	r6,15
  806188:	3580a72e 	bgeu	r6,r22,806428 <_malloc_r+0x6cc>
  80618c:	81400117 	ldw	r5,4(r16)
  806190:	013ffe04 	movi	r4,-8
  806194:	b0bffd04 	addi	r2,r22,-12
  806198:	1104703a 	and	r2,r2,r4
  80619c:	2900004c 	andi	r4,r5,1
  8061a0:	2088b03a 	or	r4,r4,r2
  8061a4:	81000115 	stw	r4,4(r16)
  8061a8:	01400144 	movi	r5,5
  8061ac:	8089883a 	add	r4,r16,r2
  8061b0:	21400115 	stw	r5,4(r4)
  8061b4:	21400215 	stw	r5,8(r4)
  8061b8:	3080cd36 	bltu	r6,r2,8064f0 <_malloc_r+0x794>
  8061bc:	00802074 	movhi	r2,129
  8061c0:	1085f504 	addi	r2,r2,6100
  8061c4:	11000017 	ldw	r4,0(r2)
  8061c8:	20c0012e 	bgeu	r4,r3,8061d0 <_malloc_r+0x474>
  8061cc:	10c00015 	stw	r3,0(r2)
  8061d0:	00802074 	movhi	r2,129
  8061d4:	1085f404 	addi	r2,r2,6096
  8061d8:	11000017 	ldw	r4,0(r2)
  8061dc:	9c000217 	ldw	r16,8(r19)
  8061e0:	20c0012e 	bgeu	r4,r3,8061e8 <_malloc_r+0x48c>
  8061e4:	10c00015 	stw	r3,0(r2)
  8061e8:	80c00117 	ldw	r3,4(r16)
  8061ec:	00bfff04 	movi	r2,-4
  8061f0:	1886703a 	and	r3,r3,r2
  8061f4:	1c45c83a 	sub	r2,r3,r17
  8061f8:	1c400236 	bltu	r3,r17,806204 <_malloc_r+0x4a8>
  8061fc:	00c003c4 	movi	r3,15
  806200:	18800416 	blt	r3,r2,806214 <_malloc_r+0x4b8>
  806204:	9009883a 	mov	r4,r18
  806208:	080e42c0 	call	80e42c <__malloc_unlock>
  80620c:	0005883a 	mov	r2,zero
  806210:	003f7b06 	br	806000 <__alt_data_end+0xff806000>
  806214:	88c00054 	ori	r3,r17,1
  806218:	80c00115 	stw	r3,4(r16)
  80621c:	8463883a 	add	r17,r16,r17
  806220:	10800054 	ori	r2,r2,1
  806224:	9c400215 	stw	r17,8(r19)
  806228:	88800115 	stw	r2,4(r17)
  80622c:	9009883a 	mov	r4,r18
  806230:	080e42c0 	call	80e42c <__malloc_unlock>
  806234:	80800204 	addi	r2,r16,8
  806238:	003f7106 	br	806000 <__alt_data_end+0xff806000>
  80623c:	00c00504 	movi	r3,20
  806240:	18804a2e 	bgeu	r3,r2,80636c <_malloc_r+0x610>
  806244:	00c01504 	movi	r3,84
  806248:	18806e36 	bltu	r3,r2,806404 <_malloc_r+0x6a8>
  80624c:	8804d33a 	srli	r2,r17,12
  806250:	12001bc4 	addi	r8,r2,111
  806254:	11c01b84 	addi	r7,r2,110
  806258:	4209883a 	add	r4,r8,r8
  80625c:	003edd06 	br	805dd4 <__alt_data_end+0xff805dd4>
  806260:	3804d27a 	srli	r2,r7,9
  806264:	00c00104 	movi	r3,4
  806268:	1880442e 	bgeu	r3,r2,80637c <_malloc_r+0x620>
  80626c:	00c00504 	movi	r3,20
  806270:	18808136 	bltu	r3,r2,806478 <_malloc_r+0x71c>
  806274:	11401704 	addi	r5,r2,92
  806278:	10c016c4 	addi	r3,r2,91
  80627c:	294b883a 	add	r5,r5,r5
  806280:	294b883a 	add	r5,r5,r5
  806284:	294b883a 	add	r5,r5,r5
  806288:	994b883a 	add	r5,r19,r5
  80628c:	28800017 	ldw	r2,0(r5)
  806290:	01802074 	movhi	r6,129
  806294:	297ffe04 	addi	r5,r5,-8
  806298:	3181bc04 	addi	r6,r6,1776
  80629c:	28806526 	beq	r5,r2,806434 <_malloc_r+0x6d8>
  8062a0:	01bfff04 	movi	r6,-4
  8062a4:	10c00117 	ldw	r3,4(r2)
  8062a8:	1986703a 	and	r3,r3,r6
  8062ac:	38c0022e 	bgeu	r7,r3,8062b8 <_malloc_r+0x55c>
  8062b0:	10800217 	ldw	r2,8(r2)
  8062b4:	28bffb1e 	bne	r5,r2,8062a4 <__alt_data_end+0xff8062a4>
  8062b8:	11400317 	ldw	r5,12(r2)
  8062bc:	98c00117 	ldw	r3,4(r19)
  8062c0:	81400315 	stw	r5,12(r16)
  8062c4:	80800215 	stw	r2,8(r16)
  8062c8:	2c000215 	stw	r16,8(r5)
  8062cc:	14000315 	stw	r16,12(r2)
  8062d0:	003ef806 	br	805eb4 <__alt_data_end+0xff805eb4>
  8062d4:	88c00054 	ori	r3,r17,1
  8062d8:	80c00115 	stw	r3,4(r16)
  8062dc:	8463883a 	add	r17,r16,r17
  8062e0:	34400515 	stw	r17,20(r6)
  8062e4:	34400415 	stw	r17,16(r6)
  8062e8:	10c00054 	ori	r3,r2,1
  8062ec:	8a000315 	stw	r8,12(r17)
  8062f0:	8a000215 	stw	r8,8(r17)
  8062f4:	88c00115 	stw	r3,4(r17)
  8062f8:	88a3883a 	add	r17,r17,r2
  8062fc:	88800015 	stw	r2,0(r17)
  806300:	9009883a 	mov	r4,r18
  806304:	080e42c0 	call	80e42c <__malloc_unlock>
  806308:	80800204 	addi	r2,r16,8
  80630c:	003f3c06 	br	806000 <__alt_data_end+0xff806000>
  806310:	30c00117 	ldw	r3,4(r6)
  806314:	003ee706 	br	805eb4 <__alt_data_end+0xff805eb4>
  806318:	5ac00044 	addi	r11,r11,1
  80631c:	588000cc 	andi	r2,r11,3
  806320:	31800204 	addi	r6,r6,8
  806324:	103efd1e 	bne	r2,zero,805f1c <__alt_data_end+0xff805f1c>
  806328:	00002406 	br	8063bc <_malloc_r+0x660>
  80632c:	14000317 	ldw	r16,12(r2)
  806330:	143f251e 	bne	r2,r16,805fc8 <__alt_data_end+0xff805fc8>
  806334:	21000084 	addi	r4,r4,2
  806338:	003ebc06 	br	805e2c <__alt_data_end+0xff805e2c>
  80633c:	8085883a 	add	r2,r16,r2
  806340:	10c00117 	ldw	r3,4(r2)
  806344:	81000317 	ldw	r4,12(r16)
  806348:	81400217 	ldw	r5,8(r16)
  80634c:	18c00054 	ori	r3,r3,1
  806350:	10c00115 	stw	r3,4(r2)
  806354:	29000315 	stw	r4,12(r5)
  806358:	21400215 	stw	r5,8(r4)
  80635c:	9009883a 	mov	r4,r18
  806360:	080e42c0 	call	80e42c <__malloc_unlock>
  806364:	80800204 	addi	r2,r16,8
  806368:	003f2506 	br	806000 <__alt_data_end+0xff806000>
  80636c:	12001704 	addi	r8,r2,92
  806370:	11c016c4 	addi	r7,r2,91
  806374:	4209883a 	add	r4,r8,r8
  806378:	003e9606 	br	805dd4 <__alt_data_end+0xff805dd4>
  80637c:	3804d1ba 	srli	r2,r7,6
  806380:	11400e44 	addi	r5,r2,57
  806384:	10c00e04 	addi	r3,r2,56
  806388:	294b883a 	add	r5,r5,r5
  80638c:	003fbc06 	br	806280 <__alt_data_end+0xff806280>
  806390:	84ff5926 	beq	r16,r19,8060f8 <__alt_data_end+0xff8060f8>
  806394:	00802074 	movhi	r2,129
  806398:	1081bc04 	addi	r2,r2,1776
  80639c:	14000217 	ldw	r16,8(r2)
  8063a0:	00bfff04 	movi	r2,-4
  8063a4:	80c00117 	ldw	r3,4(r16)
  8063a8:	1886703a 	and	r3,r3,r2
  8063ac:	003f9106 	br	8061f4 <__alt_data_end+0xff8061f4>
  8063b0:	60800217 	ldw	r2,8(r12)
  8063b4:	213fffc4 	addi	r4,r4,-1
  8063b8:	1300651e 	bne	r2,r12,806550 <_malloc_r+0x7f4>
  8063bc:	208000cc 	andi	r2,r4,3
  8063c0:	633ffe04 	addi	r12,r12,-8
  8063c4:	103ffa1e 	bne	r2,zero,8063b0 <__alt_data_end+0xff8063b0>
  8063c8:	98800117 	ldw	r2,4(r19)
  8063cc:	0146303a 	nor	r3,zero,r5
  8063d0:	1884703a 	and	r2,r3,r2
  8063d4:	98800115 	stw	r2,4(r19)
  8063d8:	294b883a 	add	r5,r5,r5
  8063dc:	117f2836 	bltu	r2,r5,806080 <__alt_data_end+0xff806080>
  8063e0:	283f2726 	beq	r5,zero,806080 <__alt_data_end+0xff806080>
  8063e4:	2886703a 	and	r3,r5,r2
  8063e8:	5809883a 	mov	r4,r11
  8063ec:	183ec31e 	bne	r3,zero,805efc <__alt_data_end+0xff805efc>
  8063f0:	294b883a 	add	r5,r5,r5
  8063f4:	2886703a 	and	r3,r5,r2
  8063f8:	21000104 	addi	r4,r4,4
  8063fc:	183ffc26 	beq	r3,zero,8063f0 <__alt_data_end+0xff8063f0>
  806400:	003ebe06 	br	805efc <__alt_data_end+0xff805efc>
  806404:	00c05504 	movi	r3,340
  806408:	18801236 	bltu	r3,r2,806454 <_malloc_r+0x6f8>
  80640c:	8804d3fa 	srli	r2,r17,15
  806410:	12001e04 	addi	r8,r2,120
  806414:	11c01dc4 	addi	r7,r2,119
  806418:	4209883a 	add	r4,r8,r8
  80641c:	003e6d06 	br	805dd4 <__alt_data_end+0xff805dd4>
  806420:	00c40004 	movi	r3,4096
  806424:	003f4606 	br	806140 <__alt_data_end+0xff806140>
  806428:	00800044 	movi	r2,1
  80642c:	a0800115 	stw	r2,4(r20)
  806430:	003f7406 	br	806204 <__alt_data_end+0xff806204>
  806434:	1805d0ba 	srai	r2,r3,2
  806438:	01c00044 	movi	r7,1
  80643c:	30c00117 	ldw	r3,4(r6)
  806440:	388e983a 	sll	r7,r7,r2
  806444:	2805883a 	mov	r2,r5
  806448:	38c6b03a 	or	r3,r7,r3
  80644c:	30c00115 	stw	r3,4(r6)
  806450:	003f9b06 	br	8062c0 <__alt_data_end+0xff8062c0>
  806454:	00c15504 	movi	r3,1364
  806458:	18801a36 	bltu	r3,r2,8064c4 <_malloc_r+0x768>
  80645c:	8804d4ba 	srli	r2,r17,18
  806460:	12001f44 	addi	r8,r2,125
  806464:	11c01f04 	addi	r7,r2,124
  806468:	4209883a 	add	r4,r8,r8
  80646c:	003e5906 	br	805dd4 <__alt_data_end+0xff805dd4>
  806470:	ad400404 	addi	r21,r21,16
  806474:	003f1706 	br	8060d4 <__alt_data_end+0xff8060d4>
  806478:	00c01504 	movi	r3,84
  80647c:	18802336 	bltu	r3,r2,80650c <_malloc_r+0x7b0>
  806480:	3804d33a 	srli	r2,r7,12
  806484:	11401bc4 	addi	r5,r2,111
  806488:	10c01b84 	addi	r3,r2,110
  80648c:	294b883a 	add	r5,r5,r5
  806490:	003f7b06 	br	806280 <__alt_data_end+0xff806280>
  806494:	9c000217 	ldw	r16,8(r19)
  806498:	00bfff04 	movi	r2,-4
  80649c:	80c00117 	ldw	r3,4(r16)
  8064a0:	1886703a 	and	r3,r3,r2
  8064a4:	003f5306 	br	8061f4 <__alt_data_end+0xff8061f4>
  8064a8:	3083ffcc 	andi	r2,r6,4095
  8064ac:	103f181e 	bne	r2,zero,806110 <__alt_data_end+0xff806110>
  8064b0:	99000217 	ldw	r4,8(r19)
  8064b4:	b545883a 	add	r2,r22,r21
  8064b8:	10800054 	ori	r2,r2,1
  8064bc:	20800115 	stw	r2,4(r4)
  8064c0:	003f3e06 	br	8061bc <__alt_data_end+0xff8061bc>
  8064c4:	01003f84 	movi	r4,254
  8064c8:	02001fc4 	movi	r8,127
  8064cc:	01c01f84 	movi	r7,126
  8064d0:	003e4006 	br	805dd4 <__alt_data_end+0xff805dd4>
  8064d4:	00802074 	movhi	r2,129
  8064d8:	10833604 	addi	r2,r2,3288
  8064dc:	15000015 	stw	r20,0(r2)
  8064e0:	003f1106 	br	806128 <__alt_data_end+0xff806128>
  8064e4:	00800044 	movi	r2,1
  8064e8:	002b883a 	mov	r21,zero
  8064ec:	003f1f06 	br	80616c <__alt_data_end+0xff80616c>
  8064f0:	81400204 	addi	r5,r16,8
  8064f4:	9009883a 	mov	r4,r18
  8064f8:	080562c0 	call	80562c <_free_r>
  8064fc:	00802074 	movhi	r2,129
  806500:	1085ff04 	addi	r2,r2,6140
  806504:	10c00017 	ldw	r3,0(r2)
  806508:	003f2c06 	br	8061bc <__alt_data_end+0xff8061bc>
  80650c:	00c05504 	movi	r3,340
  806510:	18800536 	bltu	r3,r2,806528 <_malloc_r+0x7cc>
  806514:	3804d3fa 	srli	r2,r7,15
  806518:	11401e04 	addi	r5,r2,120
  80651c:	10c01dc4 	addi	r3,r2,119
  806520:	294b883a 	add	r5,r5,r5
  806524:	003f5606 	br	806280 <__alt_data_end+0xff806280>
  806528:	00c15504 	movi	r3,1364
  80652c:	18800536 	bltu	r3,r2,806544 <_malloc_r+0x7e8>
  806530:	3804d4ba 	srli	r2,r7,18
  806534:	11401f44 	addi	r5,r2,125
  806538:	10c01f04 	addi	r3,r2,124
  80653c:	294b883a 	add	r5,r5,r5
  806540:	003f4f06 	br	806280 <__alt_data_end+0xff806280>
  806544:	01403f84 	movi	r5,254
  806548:	00c01f84 	movi	r3,126
  80654c:	003f4c06 	br	806280 <__alt_data_end+0xff806280>
  806550:	98800117 	ldw	r2,4(r19)
  806554:	003fa006 	br	8063d8 <__alt_data_end+0xff8063d8>
  806558:	8808d0fa 	srli	r4,r17,3
  80655c:	20800044 	addi	r2,r4,1
  806560:	1085883a 	add	r2,r2,r2
  806564:	003e9006 	br	805fa8 <__alt_data_end+0xff805fa8>

00806568 <memchr>:
  806568:	208000cc 	andi	r2,r4,3
  80656c:	280f883a 	mov	r7,r5
  806570:	10003426 	beq	r2,zero,806644 <memchr+0xdc>
  806574:	30bfffc4 	addi	r2,r6,-1
  806578:	30001a26 	beq	r6,zero,8065e4 <memchr+0x7c>
  80657c:	20c00003 	ldbu	r3,0(r4)
  806580:	29803fcc 	andi	r6,r5,255
  806584:	30c0051e 	bne	r6,r3,80659c <memchr+0x34>
  806588:	00001806 	br	8065ec <memchr+0x84>
  80658c:	10001526 	beq	r2,zero,8065e4 <memchr+0x7c>
  806590:	20c00003 	ldbu	r3,0(r4)
  806594:	10bfffc4 	addi	r2,r2,-1
  806598:	30c01426 	beq	r6,r3,8065ec <memchr+0x84>
  80659c:	21000044 	addi	r4,r4,1
  8065a0:	20c000cc 	andi	r3,r4,3
  8065a4:	183ff91e 	bne	r3,zero,80658c <__alt_data_end+0xff80658c>
  8065a8:	020000c4 	movi	r8,3
  8065ac:	40801136 	bltu	r8,r2,8065f4 <memchr+0x8c>
  8065b0:	10000c26 	beq	r2,zero,8065e4 <memchr+0x7c>
  8065b4:	20c00003 	ldbu	r3,0(r4)
  8065b8:	29403fcc 	andi	r5,r5,255
  8065bc:	28c00b26 	beq	r5,r3,8065ec <memchr+0x84>
  8065c0:	20c00044 	addi	r3,r4,1
  8065c4:	39803fcc 	andi	r6,r7,255
  8065c8:	2089883a 	add	r4,r4,r2
  8065cc:	00000306 	br	8065dc <memchr+0x74>
  8065d0:	18c00044 	addi	r3,r3,1
  8065d4:	197fffc3 	ldbu	r5,-1(r3)
  8065d8:	31400526 	beq	r6,r5,8065f0 <memchr+0x88>
  8065dc:	1805883a 	mov	r2,r3
  8065e0:	20fffb1e 	bne	r4,r3,8065d0 <__alt_data_end+0xff8065d0>
  8065e4:	0005883a 	mov	r2,zero
  8065e8:	f800283a 	ret
  8065ec:	2005883a 	mov	r2,r4
  8065f0:	f800283a 	ret
  8065f4:	28c03fcc 	andi	r3,r5,255
  8065f8:	1812923a 	slli	r9,r3,8
  8065fc:	02ffbff4 	movhi	r11,65279
  806600:	02a02074 	movhi	r10,32897
  806604:	48d2b03a 	or	r9,r9,r3
  806608:	4806943a 	slli	r3,r9,16
  80660c:	5affbfc4 	addi	r11,r11,-257
  806610:	52a02004 	addi	r10,r10,-32640
  806614:	48d2b03a 	or	r9,r9,r3
  806618:	20c00017 	ldw	r3,0(r4)
  80661c:	48c6f03a 	xor	r3,r9,r3
  806620:	1acd883a 	add	r6,r3,r11
  806624:	00c6303a 	nor	r3,zero,r3
  806628:	30c6703a 	and	r3,r6,r3
  80662c:	1a86703a 	and	r3,r3,r10
  806630:	183fe01e 	bne	r3,zero,8065b4 <__alt_data_end+0xff8065b4>
  806634:	10bfff04 	addi	r2,r2,-4
  806638:	21000104 	addi	r4,r4,4
  80663c:	40bff636 	bltu	r8,r2,806618 <__alt_data_end+0xff806618>
  806640:	003fdb06 	br	8065b0 <__alt_data_end+0xff8065b0>
  806644:	3005883a 	mov	r2,r6
  806648:	003fd706 	br	8065a8 <__alt_data_end+0xff8065a8>

0080664c <memcpy>:
  80664c:	defffd04 	addi	sp,sp,-12
  806650:	dfc00215 	stw	ra,8(sp)
  806654:	dc400115 	stw	r17,4(sp)
  806658:	dc000015 	stw	r16,0(sp)
  80665c:	00c003c4 	movi	r3,15
  806660:	2005883a 	mov	r2,r4
  806664:	1980452e 	bgeu	r3,r6,80677c <memcpy+0x130>
  806668:	2906b03a 	or	r3,r5,r4
  80666c:	18c000cc 	andi	r3,r3,3
  806670:	1800441e 	bne	r3,zero,806784 <memcpy+0x138>
  806674:	347ffc04 	addi	r17,r6,-16
  806678:	8822d13a 	srli	r17,r17,4
  80667c:	28c00104 	addi	r3,r5,4
  806680:	23400104 	addi	r13,r4,4
  806684:	8820913a 	slli	r16,r17,4
  806688:	2b000204 	addi	r12,r5,8
  80668c:	22c00204 	addi	r11,r4,8
  806690:	84000504 	addi	r16,r16,20
  806694:	2a800304 	addi	r10,r5,12
  806698:	22400304 	addi	r9,r4,12
  80669c:	2c21883a 	add	r16,r5,r16
  8066a0:	2811883a 	mov	r8,r5
  8066a4:	200f883a 	mov	r7,r4
  8066a8:	41000017 	ldw	r4,0(r8)
  8066ac:	1fc00017 	ldw	ra,0(r3)
  8066b0:	63c00017 	ldw	r15,0(r12)
  8066b4:	39000015 	stw	r4,0(r7)
  8066b8:	53800017 	ldw	r14,0(r10)
  8066bc:	6fc00015 	stw	ra,0(r13)
  8066c0:	5bc00015 	stw	r15,0(r11)
  8066c4:	4b800015 	stw	r14,0(r9)
  8066c8:	18c00404 	addi	r3,r3,16
  8066cc:	39c00404 	addi	r7,r7,16
  8066d0:	42000404 	addi	r8,r8,16
  8066d4:	6b400404 	addi	r13,r13,16
  8066d8:	63000404 	addi	r12,r12,16
  8066dc:	5ac00404 	addi	r11,r11,16
  8066e0:	52800404 	addi	r10,r10,16
  8066e4:	4a400404 	addi	r9,r9,16
  8066e8:	1c3fef1e 	bne	r3,r16,8066a8 <__alt_data_end+0xff8066a8>
  8066ec:	89c00044 	addi	r7,r17,1
  8066f0:	380e913a 	slli	r7,r7,4
  8066f4:	310003cc 	andi	r4,r6,15
  8066f8:	02c000c4 	movi	r11,3
  8066fc:	11c7883a 	add	r3,r2,r7
  806700:	29cb883a 	add	r5,r5,r7
  806704:	5900212e 	bgeu	r11,r4,80678c <memcpy+0x140>
  806708:	1813883a 	mov	r9,r3
  80670c:	2811883a 	mov	r8,r5
  806710:	200f883a 	mov	r7,r4
  806714:	42800017 	ldw	r10,0(r8)
  806718:	4a400104 	addi	r9,r9,4
  80671c:	39ffff04 	addi	r7,r7,-4
  806720:	4abfff15 	stw	r10,-4(r9)
  806724:	42000104 	addi	r8,r8,4
  806728:	59fffa36 	bltu	r11,r7,806714 <__alt_data_end+0xff806714>
  80672c:	213fff04 	addi	r4,r4,-4
  806730:	2008d0ba 	srli	r4,r4,2
  806734:	318000cc 	andi	r6,r6,3
  806738:	21000044 	addi	r4,r4,1
  80673c:	2109883a 	add	r4,r4,r4
  806740:	2109883a 	add	r4,r4,r4
  806744:	1907883a 	add	r3,r3,r4
  806748:	290b883a 	add	r5,r5,r4
  80674c:	30000626 	beq	r6,zero,806768 <memcpy+0x11c>
  806750:	198d883a 	add	r6,r3,r6
  806754:	29c00003 	ldbu	r7,0(r5)
  806758:	18c00044 	addi	r3,r3,1
  80675c:	29400044 	addi	r5,r5,1
  806760:	19ffffc5 	stb	r7,-1(r3)
  806764:	19bffb1e 	bne	r3,r6,806754 <__alt_data_end+0xff806754>
  806768:	dfc00217 	ldw	ra,8(sp)
  80676c:	dc400117 	ldw	r17,4(sp)
  806770:	dc000017 	ldw	r16,0(sp)
  806774:	dec00304 	addi	sp,sp,12
  806778:	f800283a 	ret
  80677c:	2007883a 	mov	r3,r4
  806780:	003ff206 	br	80674c <__alt_data_end+0xff80674c>
  806784:	2007883a 	mov	r3,r4
  806788:	003ff106 	br	806750 <__alt_data_end+0xff806750>
  80678c:	200d883a 	mov	r6,r4
  806790:	003fee06 	br	80674c <__alt_data_end+0xff80674c>

00806794 <memset>:
  806794:	20c000cc 	andi	r3,r4,3
  806798:	2005883a 	mov	r2,r4
  80679c:	18004426 	beq	r3,zero,8068b0 <memset+0x11c>
  8067a0:	31ffffc4 	addi	r7,r6,-1
  8067a4:	30004026 	beq	r6,zero,8068a8 <memset+0x114>
  8067a8:	2813883a 	mov	r9,r5
  8067ac:	200d883a 	mov	r6,r4
  8067b0:	2007883a 	mov	r3,r4
  8067b4:	00000406 	br	8067c8 <memset+0x34>
  8067b8:	3a3fffc4 	addi	r8,r7,-1
  8067bc:	31800044 	addi	r6,r6,1
  8067c0:	38003926 	beq	r7,zero,8068a8 <memset+0x114>
  8067c4:	400f883a 	mov	r7,r8
  8067c8:	18c00044 	addi	r3,r3,1
  8067cc:	32400005 	stb	r9,0(r6)
  8067d0:	1a0000cc 	andi	r8,r3,3
  8067d4:	403ff81e 	bne	r8,zero,8067b8 <__alt_data_end+0xff8067b8>
  8067d8:	010000c4 	movi	r4,3
  8067dc:	21c02d2e 	bgeu	r4,r7,806894 <memset+0x100>
  8067e0:	29003fcc 	andi	r4,r5,255
  8067e4:	200c923a 	slli	r6,r4,8
  8067e8:	3108b03a 	or	r4,r6,r4
  8067ec:	200c943a 	slli	r6,r4,16
  8067f0:	218cb03a 	or	r6,r4,r6
  8067f4:	010003c4 	movi	r4,15
  8067f8:	21c0182e 	bgeu	r4,r7,80685c <memset+0xc8>
  8067fc:	3b3ffc04 	addi	r12,r7,-16
  806800:	6018d13a 	srli	r12,r12,4
  806804:	1a000104 	addi	r8,r3,4
  806808:	1ac00204 	addi	r11,r3,8
  80680c:	6008913a 	slli	r4,r12,4
  806810:	1a800304 	addi	r10,r3,12
  806814:	1813883a 	mov	r9,r3
  806818:	21000504 	addi	r4,r4,20
  80681c:	1909883a 	add	r4,r3,r4
  806820:	49800015 	stw	r6,0(r9)
  806824:	41800015 	stw	r6,0(r8)
  806828:	59800015 	stw	r6,0(r11)
  80682c:	51800015 	stw	r6,0(r10)
  806830:	42000404 	addi	r8,r8,16
  806834:	4a400404 	addi	r9,r9,16
  806838:	5ac00404 	addi	r11,r11,16
  80683c:	52800404 	addi	r10,r10,16
  806840:	413ff71e 	bne	r8,r4,806820 <__alt_data_end+0xff806820>
  806844:	63000044 	addi	r12,r12,1
  806848:	6018913a 	slli	r12,r12,4
  80684c:	39c003cc 	andi	r7,r7,15
  806850:	010000c4 	movi	r4,3
  806854:	1b07883a 	add	r3,r3,r12
  806858:	21c00e2e 	bgeu	r4,r7,806894 <memset+0x100>
  80685c:	1813883a 	mov	r9,r3
  806860:	3811883a 	mov	r8,r7
  806864:	010000c4 	movi	r4,3
  806868:	49800015 	stw	r6,0(r9)
  80686c:	423fff04 	addi	r8,r8,-4
  806870:	4a400104 	addi	r9,r9,4
  806874:	223ffc36 	bltu	r4,r8,806868 <__alt_data_end+0xff806868>
  806878:	393fff04 	addi	r4,r7,-4
  80687c:	2008d0ba 	srli	r4,r4,2
  806880:	39c000cc 	andi	r7,r7,3
  806884:	21000044 	addi	r4,r4,1
  806888:	2109883a 	add	r4,r4,r4
  80688c:	2109883a 	add	r4,r4,r4
  806890:	1907883a 	add	r3,r3,r4
  806894:	38000526 	beq	r7,zero,8068ac <memset+0x118>
  806898:	19cf883a 	add	r7,r3,r7
  80689c:	19400005 	stb	r5,0(r3)
  8068a0:	18c00044 	addi	r3,r3,1
  8068a4:	38fffd1e 	bne	r7,r3,80689c <__alt_data_end+0xff80689c>
  8068a8:	f800283a 	ret
  8068ac:	f800283a 	ret
  8068b0:	2007883a 	mov	r3,r4
  8068b4:	300f883a 	mov	r7,r6
  8068b8:	003fc706 	br	8067d8 <__alt_data_end+0xff8067d8>

008068bc <_Balloc>:
  8068bc:	20801317 	ldw	r2,76(r4)
  8068c0:	defffc04 	addi	sp,sp,-16
  8068c4:	dc400115 	stw	r17,4(sp)
  8068c8:	dc000015 	stw	r16,0(sp)
  8068cc:	dfc00315 	stw	ra,12(sp)
  8068d0:	dc800215 	stw	r18,8(sp)
  8068d4:	2023883a 	mov	r17,r4
  8068d8:	2821883a 	mov	r16,r5
  8068dc:	10000f26 	beq	r2,zero,80691c <_Balloc+0x60>
  8068e0:	8407883a 	add	r3,r16,r16
  8068e4:	18c7883a 	add	r3,r3,r3
  8068e8:	10c7883a 	add	r3,r2,r3
  8068ec:	18800017 	ldw	r2,0(r3)
  8068f0:	10001126 	beq	r2,zero,806938 <_Balloc+0x7c>
  8068f4:	11000017 	ldw	r4,0(r2)
  8068f8:	19000015 	stw	r4,0(r3)
  8068fc:	10000415 	stw	zero,16(r2)
  806900:	10000315 	stw	zero,12(r2)
  806904:	dfc00317 	ldw	ra,12(sp)
  806908:	dc800217 	ldw	r18,8(sp)
  80690c:	dc400117 	ldw	r17,4(sp)
  806910:	dc000017 	ldw	r16,0(sp)
  806914:	dec00404 	addi	sp,sp,16
  806918:	f800283a 	ret
  80691c:	01800844 	movi	r6,33
  806920:	01400104 	movi	r5,4
  806924:	08094980 	call	809498 <_calloc_r>
  806928:	88801315 	stw	r2,76(r17)
  80692c:	103fec1e 	bne	r2,zero,8068e0 <__alt_data_end+0xff8068e0>
  806930:	0005883a 	mov	r2,zero
  806934:	003ff306 	br	806904 <__alt_data_end+0xff806904>
  806938:	01400044 	movi	r5,1
  80693c:	2c24983a 	sll	r18,r5,r16
  806940:	8809883a 	mov	r4,r17
  806944:	91800144 	addi	r6,r18,5
  806948:	318d883a 	add	r6,r6,r6
  80694c:	318d883a 	add	r6,r6,r6
  806950:	08094980 	call	809498 <_calloc_r>
  806954:	103ff626 	beq	r2,zero,806930 <__alt_data_end+0xff806930>
  806958:	14000115 	stw	r16,4(r2)
  80695c:	14800215 	stw	r18,8(r2)
  806960:	003fe606 	br	8068fc <__alt_data_end+0xff8068fc>

00806964 <_Bfree>:
  806964:	28000826 	beq	r5,zero,806988 <_Bfree+0x24>
  806968:	28c00117 	ldw	r3,4(r5)
  80696c:	20801317 	ldw	r2,76(r4)
  806970:	18c7883a 	add	r3,r3,r3
  806974:	18c7883a 	add	r3,r3,r3
  806978:	10c5883a 	add	r2,r2,r3
  80697c:	10c00017 	ldw	r3,0(r2)
  806980:	28c00015 	stw	r3,0(r5)
  806984:	11400015 	stw	r5,0(r2)
  806988:	f800283a 	ret

0080698c <__multadd>:
  80698c:	defff704 	addi	sp,sp,-36
  806990:	dc800215 	stw	r18,8(sp)
  806994:	2c800417 	ldw	r18,16(r5)
  806998:	dd800615 	stw	r22,24(sp)
  80699c:	dd400515 	stw	r21,20(sp)
  8069a0:	dd000415 	stw	r20,16(sp)
  8069a4:	dcc00315 	stw	r19,12(sp)
  8069a8:	dc400115 	stw	r17,4(sp)
  8069ac:	dc000015 	stw	r16,0(sp)
  8069b0:	dfc00815 	stw	ra,32(sp)
  8069b4:	ddc00715 	stw	r23,28(sp)
  8069b8:	2827883a 	mov	r19,r5
  8069bc:	2029883a 	mov	r20,r4
  8069c0:	3023883a 	mov	r17,r6
  8069c4:	3821883a 	mov	r16,r7
  8069c8:	2d400504 	addi	r21,r5,20
  8069cc:	002d883a 	mov	r22,zero
  8069d0:	adc00017 	ldw	r23,0(r21)
  8069d4:	880b883a 	mov	r5,r17
  8069d8:	ad400104 	addi	r21,r21,4
  8069dc:	b93fffcc 	andi	r4,r23,65535
  8069e0:	08005640 	call	800564 <__mulsi3>
  8069e4:	b808d43a 	srli	r4,r23,16
  8069e8:	880b883a 	mov	r5,r17
  8069ec:	1421883a 	add	r16,r2,r16
  8069f0:	08005640 	call	800564 <__mulsi3>
  8069f4:	800ed43a 	srli	r7,r16,16
  8069f8:	80ffffcc 	andi	r3,r16,65535
  8069fc:	b5800044 	addi	r22,r22,1
  806a00:	11c5883a 	add	r2,r2,r7
  806a04:	100e943a 	slli	r7,r2,16
  806a08:	1020d43a 	srli	r16,r2,16
  806a0c:	38c7883a 	add	r3,r7,r3
  806a10:	a8ffff15 	stw	r3,-4(r21)
  806a14:	b4bfee16 	blt	r22,r18,8069d0 <__alt_data_end+0xff8069d0>
  806a18:	80000926 	beq	r16,zero,806a40 <__multadd+0xb4>
  806a1c:	98800217 	ldw	r2,8(r19)
  806a20:	9080130e 	bge	r18,r2,806a70 <__multadd+0xe4>
  806a24:	90800144 	addi	r2,r18,5
  806a28:	1085883a 	add	r2,r2,r2
  806a2c:	1085883a 	add	r2,r2,r2
  806a30:	9885883a 	add	r2,r19,r2
  806a34:	14000015 	stw	r16,0(r2)
  806a38:	94800044 	addi	r18,r18,1
  806a3c:	9c800415 	stw	r18,16(r19)
  806a40:	9805883a 	mov	r2,r19
  806a44:	dfc00817 	ldw	ra,32(sp)
  806a48:	ddc00717 	ldw	r23,28(sp)
  806a4c:	dd800617 	ldw	r22,24(sp)
  806a50:	dd400517 	ldw	r21,20(sp)
  806a54:	dd000417 	ldw	r20,16(sp)
  806a58:	dcc00317 	ldw	r19,12(sp)
  806a5c:	dc800217 	ldw	r18,8(sp)
  806a60:	dc400117 	ldw	r17,4(sp)
  806a64:	dc000017 	ldw	r16,0(sp)
  806a68:	dec00904 	addi	sp,sp,36
  806a6c:	f800283a 	ret
  806a70:	99400117 	ldw	r5,4(r19)
  806a74:	a009883a 	mov	r4,r20
  806a78:	29400044 	addi	r5,r5,1
  806a7c:	08068bc0 	call	8068bc <_Balloc>
  806a80:	99800417 	ldw	r6,16(r19)
  806a84:	99400304 	addi	r5,r19,12
  806a88:	11000304 	addi	r4,r2,12
  806a8c:	31800084 	addi	r6,r6,2
  806a90:	318d883a 	add	r6,r6,r6
  806a94:	318d883a 	add	r6,r6,r6
  806a98:	1023883a 	mov	r17,r2
  806a9c:	080664c0 	call	80664c <memcpy>
  806aa0:	98000a26 	beq	r19,zero,806acc <__multadd+0x140>
  806aa4:	98c00117 	ldw	r3,4(r19)
  806aa8:	a0801317 	ldw	r2,76(r20)
  806aac:	18c7883a 	add	r3,r3,r3
  806ab0:	18c7883a 	add	r3,r3,r3
  806ab4:	10c5883a 	add	r2,r2,r3
  806ab8:	10c00017 	ldw	r3,0(r2)
  806abc:	98c00015 	stw	r3,0(r19)
  806ac0:	14c00015 	stw	r19,0(r2)
  806ac4:	8827883a 	mov	r19,r17
  806ac8:	003fd606 	br	806a24 <__alt_data_end+0xff806a24>
  806acc:	8827883a 	mov	r19,r17
  806ad0:	003fd406 	br	806a24 <__alt_data_end+0xff806a24>

00806ad4 <__s2b>:
  806ad4:	defff904 	addi	sp,sp,-28
  806ad8:	dc400115 	stw	r17,4(sp)
  806adc:	dc000015 	stw	r16,0(sp)
  806ae0:	2023883a 	mov	r17,r4
  806ae4:	2821883a 	mov	r16,r5
  806ae8:	39000204 	addi	r4,r7,8
  806aec:	01400244 	movi	r5,9
  806af0:	dcc00315 	stw	r19,12(sp)
  806af4:	dc800215 	stw	r18,8(sp)
  806af8:	dfc00615 	stw	ra,24(sp)
  806afc:	dd400515 	stw	r21,20(sp)
  806b00:	dd000415 	stw	r20,16(sp)
  806b04:	3825883a 	mov	r18,r7
  806b08:	3027883a 	mov	r19,r6
  806b0c:	080b4780 	call	80b478 <__divsi3>
  806b10:	00c00044 	movi	r3,1
  806b14:	000b883a 	mov	r5,zero
  806b18:	1880030e 	bge	r3,r2,806b28 <__s2b+0x54>
  806b1c:	18c7883a 	add	r3,r3,r3
  806b20:	29400044 	addi	r5,r5,1
  806b24:	18bffd16 	blt	r3,r2,806b1c <__alt_data_end+0xff806b1c>
  806b28:	8809883a 	mov	r4,r17
  806b2c:	08068bc0 	call	8068bc <_Balloc>
  806b30:	d8c00717 	ldw	r3,28(sp)
  806b34:	10c00515 	stw	r3,20(r2)
  806b38:	00c00044 	movi	r3,1
  806b3c:	10c00415 	stw	r3,16(r2)
  806b40:	00c00244 	movi	r3,9
  806b44:	1cc0210e 	bge	r3,r19,806bcc <__s2b+0xf8>
  806b48:	80eb883a 	add	r21,r16,r3
  806b4c:	a829883a 	mov	r20,r21
  806b50:	84e1883a 	add	r16,r16,r19
  806b54:	a1c00007 	ldb	r7,0(r20)
  806b58:	01800284 	movi	r6,10
  806b5c:	a5000044 	addi	r20,r20,1
  806b60:	100b883a 	mov	r5,r2
  806b64:	39fff404 	addi	r7,r7,-48
  806b68:	8809883a 	mov	r4,r17
  806b6c:	080698c0 	call	80698c <__multadd>
  806b70:	a43ff81e 	bne	r20,r16,806b54 <__alt_data_end+0xff806b54>
  806b74:	ace1883a 	add	r16,r21,r19
  806b78:	843ffe04 	addi	r16,r16,-8
  806b7c:	9c800a0e 	bge	r19,r18,806ba8 <__s2b+0xd4>
  806b80:	94e5c83a 	sub	r18,r18,r19
  806b84:	84a5883a 	add	r18,r16,r18
  806b88:	81c00007 	ldb	r7,0(r16)
  806b8c:	01800284 	movi	r6,10
  806b90:	84000044 	addi	r16,r16,1
  806b94:	100b883a 	mov	r5,r2
  806b98:	39fff404 	addi	r7,r7,-48
  806b9c:	8809883a 	mov	r4,r17
  806ba0:	080698c0 	call	80698c <__multadd>
  806ba4:	84bff81e 	bne	r16,r18,806b88 <__alt_data_end+0xff806b88>
  806ba8:	dfc00617 	ldw	ra,24(sp)
  806bac:	dd400517 	ldw	r21,20(sp)
  806bb0:	dd000417 	ldw	r20,16(sp)
  806bb4:	dcc00317 	ldw	r19,12(sp)
  806bb8:	dc800217 	ldw	r18,8(sp)
  806bbc:	dc400117 	ldw	r17,4(sp)
  806bc0:	dc000017 	ldw	r16,0(sp)
  806bc4:	dec00704 	addi	sp,sp,28
  806bc8:	f800283a 	ret
  806bcc:	84000284 	addi	r16,r16,10
  806bd0:	1827883a 	mov	r19,r3
  806bd4:	003fe906 	br	806b7c <__alt_data_end+0xff806b7c>

00806bd8 <__hi0bits>:
  806bd8:	20bfffec 	andhi	r2,r4,65535
  806bdc:	1000141e 	bne	r2,zero,806c30 <__hi0bits+0x58>
  806be0:	2008943a 	slli	r4,r4,16
  806be4:	00800404 	movi	r2,16
  806be8:	20ffc02c 	andhi	r3,r4,65280
  806bec:	1800021e 	bne	r3,zero,806bf8 <__hi0bits+0x20>
  806bf0:	2008923a 	slli	r4,r4,8
  806bf4:	10800204 	addi	r2,r2,8
  806bf8:	20fc002c 	andhi	r3,r4,61440
  806bfc:	1800021e 	bne	r3,zero,806c08 <__hi0bits+0x30>
  806c00:	2008913a 	slli	r4,r4,4
  806c04:	10800104 	addi	r2,r2,4
  806c08:	20f0002c 	andhi	r3,r4,49152
  806c0c:	1800031e 	bne	r3,zero,806c1c <__hi0bits+0x44>
  806c10:	2109883a 	add	r4,r4,r4
  806c14:	10800084 	addi	r2,r2,2
  806c18:	2109883a 	add	r4,r4,r4
  806c1c:	20000316 	blt	r4,zero,806c2c <__hi0bits+0x54>
  806c20:	2110002c 	andhi	r4,r4,16384
  806c24:	2000041e 	bne	r4,zero,806c38 <__hi0bits+0x60>
  806c28:	00800804 	movi	r2,32
  806c2c:	f800283a 	ret
  806c30:	0005883a 	mov	r2,zero
  806c34:	003fec06 	br	806be8 <__alt_data_end+0xff806be8>
  806c38:	10800044 	addi	r2,r2,1
  806c3c:	f800283a 	ret

00806c40 <__lo0bits>:
  806c40:	20c00017 	ldw	r3,0(r4)
  806c44:	188001cc 	andi	r2,r3,7
  806c48:	10000826 	beq	r2,zero,806c6c <__lo0bits+0x2c>
  806c4c:	1880004c 	andi	r2,r3,1
  806c50:	1000211e 	bne	r2,zero,806cd8 <__lo0bits+0x98>
  806c54:	1880008c 	andi	r2,r3,2
  806c58:	1000211e 	bne	r2,zero,806ce0 <__lo0bits+0xa0>
  806c5c:	1806d0ba 	srli	r3,r3,2
  806c60:	00800084 	movi	r2,2
  806c64:	20c00015 	stw	r3,0(r4)
  806c68:	f800283a 	ret
  806c6c:	18bfffcc 	andi	r2,r3,65535
  806c70:	10001326 	beq	r2,zero,806cc0 <__lo0bits+0x80>
  806c74:	0005883a 	mov	r2,zero
  806c78:	19403fcc 	andi	r5,r3,255
  806c7c:	2800021e 	bne	r5,zero,806c88 <__lo0bits+0x48>
  806c80:	1806d23a 	srli	r3,r3,8
  806c84:	10800204 	addi	r2,r2,8
  806c88:	194003cc 	andi	r5,r3,15
  806c8c:	2800021e 	bne	r5,zero,806c98 <__lo0bits+0x58>
  806c90:	1806d13a 	srli	r3,r3,4
  806c94:	10800104 	addi	r2,r2,4
  806c98:	194000cc 	andi	r5,r3,3
  806c9c:	2800021e 	bne	r5,zero,806ca8 <__lo0bits+0x68>
  806ca0:	1806d0ba 	srli	r3,r3,2
  806ca4:	10800084 	addi	r2,r2,2
  806ca8:	1940004c 	andi	r5,r3,1
  806cac:	2800081e 	bne	r5,zero,806cd0 <__lo0bits+0x90>
  806cb0:	1806d07a 	srli	r3,r3,1
  806cb4:	1800051e 	bne	r3,zero,806ccc <__lo0bits+0x8c>
  806cb8:	00800804 	movi	r2,32
  806cbc:	f800283a 	ret
  806cc0:	1806d43a 	srli	r3,r3,16
  806cc4:	00800404 	movi	r2,16
  806cc8:	003feb06 	br	806c78 <__alt_data_end+0xff806c78>
  806ccc:	10800044 	addi	r2,r2,1
  806cd0:	20c00015 	stw	r3,0(r4)
  806cd4:	f800283a 	ret
  806cd8:	0005883a 	mov	r2,zero
  806cdc:	f800283a 	ret
  806ce0:	1806d07a 	srli	r3,r3,1
  806ce4:	00800044 	movi	r2,1
  806ce8:	20c00015 	stw	r3,0(r4)
  806cec:	f800283a 	ret

00806cf0 <__i2b>:
  806cf0:	defffd04 	addi	sp,sp,-12
  806cf4:	dc000015 	stw	r16,0(sp)
  806cf8:	04000044 	movi	r16,1
  806cfc:	dc400115 	stw	r17,4(sp)
  806d00:	2823883a 	mov	r17,r5
  806d04:	800b883a 	mov	r5,r16
  806d08:	dfc00215 	stw	ra,8(sp)
  806d0c:	08068bc0 	call	8068bc <_Balloc>
  806d10:	14400515 	stw	r17,20(r2)
  806d14:	14000415 	stw	r16,16(r2)
  806d18:	dfc00217 	ldw	ra,8(sp)
  806d1c:	dc400117 	ldw	r17,4(sp)
  806d20:	dc000017 	ldw	r16,0(sp)
  806d24:	dec00304 	addi	sp,sp,12
  806d28:	f800283a 	ret

00806d2c <__multiply>:
  806d2c:	deffef04 	addi	sp,sp,-68
  806d30:	dc400815 	stw	r17,32(sp)
  806d34:	dc000715 	stw	r16,28(sp)
  806d38:	34400417 	ldw	r17,16(r6)
  806d3c:	2c000417 	ldw	r16,16(r5)
  806d40:	dd800d15 	stw	r22,52(sp)
  806d44:	dc800915 	stw	r18,36(sp)
  806d48:	dfc01015 	stw	ra,64(sp)
  806d4c:	df000f15 	stw	fp,60(sp)
  806d50:	ddc00e15 	stw	r23,56(sp)
  806d54:	dd400c15 	stw	r21,48(sp)
  806d58:	dd000b15 	stw	r20,44(sp)
  806d5c:	dcc00a15 	stw	r19,40(sp)
  806d60:	2825883a 	mov	r18,r5
  806d64:	302d883a 	mov	r22,r6
  806d68:	8440050e 	bge	r16,r17,806d80 <__multiply+0x54>
  806d6c:	8007883a 	mov	r3,r16
  806d70:	3025883a 	mov	r18,r6
  806d74:	8821883a 	mov	r16,r17
  806d78:	282d883a 	mov	r22,r5
  806d7c:	1823883a 	mov	r17,r3
  806d80:	90800217 	ldw	r2,8(r18)
  806d84:	8447883a 	add	r3,r16,r17
  806d88:	d8c00215 	stw	r3,8(sp)
  806d8c:	91400117 	ldw	r5,4(r18)
  806d90:	10c0010e 	bge	r2,r3,806d98 <__multiply+0x6c>
  806d94:	29400044 	addi	r5,r5,1
  806d98:	08068bc0 	call	8068bc <_Balloc>
  806d9c:	d8c00217 	ldw	r3,8(sp)
  806da0:	d8800615 	stw	r2,24(sp)
  806da4:	18eb883a 	add	r21,r3,r3
  806da8:	ad6b883a 	add	r21,r21,r21
  806dac:	10c00504 	addi	r3,r2,20
  806db0:	1d6b883a 	add	r21,r3,r21
  806db4:	d8c00115 	stw	r3,4(sp)
  806db8:	dd400315 	stw	r21,12(sp)
  806dbc:	1805883a 	mov	r2,r3
  806dc0:	1d40042e 	bgeu	r3,r21,806dd4 <__multiply+0xa8>
  806dc4:	d8c00317 	ldw	r3,12(sp)
  806dc8:	10000015 	stw	zero,0(r2)
  806dcc:	10800104 	addi	r2,r2,4
  806dd0:	10fffc36 	bltu	r2,r3,806dc4 <__alt_data_end+0xff806dc4>
  806dd4:	8c63883a 	add	r17,r17,r17
  806dd8:	b5800504 	addi	r22,r22,20
  806ddc:	8c63883a 	add	r17,r17,r17
  806de0:	94800504 	addi	r18,r18,20
  806de4:	8421883a 	add	r16,r16,r16
  806de8:	b463883a 	add	r17,r22,r17
  806dec:	8421883a 	add	r16,r16,r16
  806df0:	dd800015 	stw	r22,0(sp)
  806df4:	dc800415 	stw	r18,16(sp)
  806df8:	dc400515 	stw	r17,20(sp)
  806dfc:	9429883a 	add	r20,r18,r16
  806e00:	b4404f2e 	bgeu	r22,r17,806f40 <__multiply+0x214>
  806e04:	d8c00017 	ldw	r3,0(sp)
  806e08:	1c800017 	ldw	r18,0(r3)
  806e0c:	947fffcc 	andi	r17,r18,65535
  806e10:	88001e26 	beq	r17,zero,806e8c <__multiply+0x160>
  806e14:	dd800117 	ldw	r22,4(sp)
  806e18:	dd400417 	ldw	r21,16(sp)
  806e1c:	0027883a 	mov	r19,zero
  806e20:	ac800017 	ldw	r18,0(r21)
  806e24:	b4000017 	ldw	r16,0(r22)
  806e28:	880b883a 	mov	r5,r17
  806e2c:	913fffcc 	andi	r4,r18,65535
  806e30:	08005640 	call	800564 <__mulsi3>
  806e34:	9008d43a 	srli	r4,r18,16
  806e38:	84bfffcc 	andi	r18,r16,65535
  806e3c:	1485883a 	add	r2,r2,r18
  806e40:	14e5883a 	add	r18,r2,r19
  806e44:	8020d43a 	srli	r16,r16,16
  806e48:	9026d43a 	srli	r19,r18,16
  806e4c:	880b883a 	mov	r5,r17
  806e50:	08005640 	call	800564 <__mulsi3>
  806e54:	1405883a 	add	r2,r2,r16
  806e58:	14e1883a 	add	r16,r2,r19
  806e5c:	90ffffcc 	andi	r3,r18,65535
  806e60:	8024943a 	slli	r18,r16,16
  806e64:	ad400104 	addi	r21,r21,4
  806e68:	b005883a 	mov	r2,r22
  806e6c:	90c6b03a 	or	r3,r18,r3
  806e70:	b0c00015 	stw	r3,0(r22)
  806e74:	8026d43a 	srli	r19,r16,16
  806e78:	b5800104 	addi	r22,r22,4
  806e7c:	ad3fe836 	bltu	r21,r20,806e20 <__alt_data_end+0xff806e20>
  806e80:	d8c00017 	ldw	r3,0(sp)
  806e84:	14c00115 	stw	r19,4(r2)
  806e88:	1c800017 	ldw	r18,0(r3)
  806e8c:	9024d43a 	srli	r18,r18,16
  806e90:	90002226 	beq	r18,zero,806f1c <__multiply+0x1f0>
  806e94:	d8c00117 	ldw	r3,4(sp)
  806e98:	dd800417 	ldw	r22,16(sp)
  806e9c:	002f883a 	mov	r23,zero
  806ea0:	1f000017 	ldw	fp,0(r3)
  806ea4:	1823883a 	mov	r17,r3
  806ea8:	182b883a 	mov	r21,r3
  806eac:	e021883a 	mov	r16,fp
  806eb0:	00000106 	br	806eb8 <__multiply+0x18c>
  806eb4:	982b883a 	mov	r21,r19
  806eb8:	b100000b 	ldhu	r4,0(r22)
  806ebc:	8020d43a 	srli	r16,r16,16
  806ec0:	900b883a 	mov	r5,r18
  806ec4:	08005640 	call	800564 <__mulsi3>
  806ec8:	1405883a 	add	r2,r2,r16
  806ecc:	15ef883a 	add	r23,r2,r23
  806ed0:	b804943a 	slli	r2,r23,16
  806ed4:	e0ffffcc 	andi	r3,fp,65535
  806ed8:	8c400104 	addi	r17,r17,4
  806edc:	10c6b03a 	or	r3,r2,r3
  806ee0:	88ffff15 	stw	r3,-4(r17)
  806ee4:	b5800104 	addi	r22,r22,4
  806ee8:	b13fff17 	ldw	r4,-4(r22)
  806eec:	acc00104 	addi	r19,r21,4
  806ef0:	900b883a 	mov	r5,r18
  806ef4:	2008d43a 	srli	r4,r4,16
  806ef8:	9c000017 	ldw	r16,0(r19)
  806efc:	08005640 	call	800564 <__mulsi3>
  806f00:	b806d43a 	srli	r3,r23,16
  806f04:	813fffcc 	andi	r4,r16,65535
  806f08:	1105883a 	add	r2,r2,r4
  806f0c:	10f9883a 	add	fp,r2,r3
  806f10:	e02ed43a 	srli	r23,fp,16
  806f14:	b53fe736 	bltu	r22,r20,806eb4 <__alt_data_end+0xff806eb4>
  806f18:	af000115 	stw	fp,4(r21)
  806f1c:	d8c00017 	ldw	r3,0(sp)
  806f20:	d9000517 	ldw	r4,20(sp)
  806f24:	18c00104 	addi	r3,r3,4
  806f28:	d8c00015 	stw	r3,0(sp)
  806f2c:	d8c00117 	ldw	r3,4(sp)
  806f30:	18c00104 	addi	r3,r3,4
  806f34:	d8c00115 	stw	r3,4(sp)
  806f38:	d8c00017 	ldw	r3,0(sp)
  806f3c:	193fb136 	bltu	r3,r4,806e04 <__alt_data_end+0xff806e04>
  806f40:	d8c00217 	ldw	r3,8(sp)
  806f44:	00c00c0e 	bge	zero,r3,806f78 <__multiply+0x24c>
  806f48:	d8c00317 	ldw	r3,12(sp)
  806f4c:	18bfff17 	ldw	r2,-4(r3)
  806f50:	1d7fff04 	addi	r21,r3,-4
  806f54:	10000326 	beq	r2,zero,806f64 <__multiply+0x238>
  806f58:	00000706 	br	806f78 <__multiply+0x24c>
  806f5c:	a8800017 	ldw	r2,0(r21)
  806f60:	1000051e 	bne	r2,zero,806f78 <__multiply+0x24c>
  806f64:	d8c00217 	ldw	r3,8(sp)
  806f68:	ad7fff04 	addi	r21,r21,-4
  806f6c:	18ffffc4 	addi	r3,r3,-1
  806f70:	d8c00215 	stw	r3,8(sp)
  806f74:	183ff91e 	bne	r3,zero,806f5c <__alt_data_end+0xff806f5c>
  806f78:	d8c00617 	ldw	r3,24(sp)
  806f7c:	d9000217 	ldw	r4,8(sp)
  806f80:	1805883a 	mov	r2,r3
  806f84:	19000415 	stw	r4,16(r3)
  806f88:	dfc01017 	ldw	ra,64(sp)
  806f8c:	df000f17 	ldw	fp,60(sp)
  806f90:	ddc00e17 	ldw	r23,56(sp)
  806f94:	dd800d17 	ldw	r22,52(sp)
  806f98:	dd400c17 	ldw	r21,48(sp)
  806f9c:	dd000b17 	ldw	r20,44(sp)
  806fa0:	dcc00a17 	ldw	r19,40(sp)
  806fa4:	dc800917 	ldw	r18,36(sp)
  806fa8:	dc400817 	ldw	r17,32(sp)
  806fac:	dc000717 	ldw	r16,28(sp)
  806fb0:	dec01104 	addi	sp,sp,68
  806fb4:	f800283a 	ret

00806fb8 <__pow5mult>:
  806fb8:	defffa04 	addi	sp,sp,-24
  806fbc:	dcc00315 	stw	r19,12(sp)
  806fc0:	dc000015 	stw	r16,0(sp)
  806fc4:	dfc00515 	stw	ra,20(sp)
  806fc8:	dd000415 	stw	r20,16(sp)
  806fcc:	dc800215 	stw	r18,8(sp)
  806fd0:	dc400115 	stw	r17,4(sp)
  806fd4:	308000cc 	andi	r2,r6,3
  806fd8:	3021883a 	mov	r16,r6
  806fdc:	2027883a 	mov	r19,r4
  806fe0:	10002f1e 	bne	r2,zero,8070a0 <__pow5mult+0xe8>
  806fe4:	2825883a 	mov	r18,r5
  806fe8:	8021d0ba 	srai	r16,r16,2
  806fec:	80001a26 	beq	r16,zero,807058 <__pow5mult+0xa0>
  806ff0:	9c401217 	ldw	r17,72(r19)
  806ff4:	8800061e 	bne	r17,zero,807010 <__pow5mult+0x58>
  806ff8:	00003406 	br	8070cc <__pow5mult+0x114>
  806ffc:	8021d07a 	srai	r16,r16,1
  807000:	80001526 	beq	r16,zero,807058 <__pow5mult+0xa0>
  807004:	88800017 	ldw	r2,0(r17)
  807008:	10001c26 	beq	r2,zero,80707c <__pow5mult+0xc4>
  80700c:	1023883a 	mov	r17,r2
  807010:	8080004c 	andi	r2,r16,1
  807014:	103ff926 	beq	r2,zero,806ffc <__alt_data_end+0xff806ffc>
  807018:	880d883a 	mov	r6,r17
  80701c:	900b883a 	mov	r5,r18
  807020:	9809883a 	mov	r4,r19
  807024:	0806d2c0 	call	806d2c <__multiply>
  807028:	90001b26 	beq	r18,zero,807098 <__pow5mult+0xe0>
  80702c:	91000117 	ldw	r4,4(r18)
  807030:	98c01317 	ldw	r3,76(r19)
  807034:	8021d07a 	srai	r16,r16,1
  807038:	2109883a 	add	r4,r4,r4
  80703c:	2109883a 	add	r4,r4,r4
  807040:	1907883a 	add	r3,r3,r4
  807044:	19000017 	ldw	r4,0(r3)
  807048:	91000015 	stw	r4,0(r18)
  80704c:	1c800015 	stw	r18,0(r3)
  807050:	1025883a 	mov	r18,r2
  807054:	803feb1e 	bne	r16,zero,807004 <__alt_data_end+0xff807004>
  807058:	9005883a 	mov	r2,r18
  80705c:	dfc00517 	ldw	ra,20(sp)
  807060:	dd000417 	ldw	r20,16(sp)
  807064:	dcc00317 	ldw	r19,12(sp)
  807068:	dc800217 	ldw	r18,8(sp)
  80706c:	dc400117 	ldw	r17,4(sp)
  807070:	dc000017 	ldw	r16,0(sp)
  807074:	dec00604 	addi	sp,sp,24
  807078:	f800283a 	ret
  80707c:	880d883a 	mov	r6,r17
  807080:	880b883a 	mov	r5,r17
  807084:	9809883a 	mov	r4,r19
  807088:	0806d2c0 	call	806d2c <__multiply>
  80708c:	88800015 	stw	r2,0(r17)
  807090:	10000015 	stw	zero,0(r2)
  807094:	003fdd06 	br	80700c <__alt_data_end+0xff80700c>
  807098:	1025883a 	mov	r18,r2
  80709c:	003fd706 	br	806ffc <__alt_data_end+0xff806ffc>
  8070a0:	10bfffc4 	addi	r2,r2,-1
  8070a4:	1085883a 	add	r2,r2,r2
  8070a8:	00c02074 	movhi	r3,129
  8070ac:	18c03904 	addi	r3,r3,228
  8070b0:	1085883a 	add	r2,r2,r2
  8070b4:	1885883a 	add	r2,r3,r2
  8070b8:	11800017 	ldw	r6,0(r2)
  8070bc:	000f883a 	mov	r7,zero
  8070c0:	080698c0 	call	80698c <__multadd>
  8070c4:	1025883a 	mov	r18,r2
  8070c8:	003fc706 	br	806fe8 <__alt_data_end+0xff806fe8>
  8070cc:	05000044 	movi	r20,1
  8070d0:	a00b883a 	mov	r5,r20
  8070d4:	9809883a 	mov	r4,r19
  8070d8:	08068bc0 	call	8068bc <_Balloc>
  8070dc:	1023883a 	mov	r17,r2
  8070e0:	00809c44 	movi	r2,625
  8070e4:	88800515 	stw	r2,20(r17)
  8070e8:	8d000415 	stw	r20,16(r17)
  8070ec:	9c401215 	stw	r17,72(r19)
  8070f0:	88000015 	stw	zero,0(r17)
  8070f4:	003fc606 	br	807010 <__alt_data_end+0xff807010>

008070f8 <__lshift>:
  8070f8:	defff904 	addi	sp,sp,-28
  8070fc:	dd400515 	stw	r21,20(sp)
  807100:	dcc00315 	stw	r19,12(sp)
  807104:	302bd17a 	srai	r21,r6,5
  807108:	2cc00417 	ldw	r19,16(r5)
  80710c:	28800217 	ldw	r2,8(r5)
  807110:	dd000415 	stw	r20,16(sp)
  807114:	ace7883a 	add	r19,r21,r19
  807118:	dc800215 	stw	r18,8(sp)
  80711c:	dc400115 	stw	r17,4(sp)
  807120:	dc000015 	stw	r16,0(sp)
  807124:	dfc00615 	stw	ra,24(sp)
  807128:	9c000044 	addi	r16,r19,1
  80712c:	2823883a 	mov	r17,r5
  807130:	3029883a 	mov	r20,r6
  807134:	2025883a 	mov	r18,r4
  807138:	29400117 	ldw	r5,4(r5)
  80713c:	1400030e 	bge	r2,r16,80714c <__lshift+0x54>
  807140:	1085883a 	add	r2,r2,r2
  807144:	29400044 	addi	r5,r5,1
  807148:	143ffd16 	blt	r2,r16,807140 <__alt_data_end+0xff807140>
  80714c:	9009883a 	mov	r4,r18
  807150:	08068bc0 	call	8068bc <_Balloc>
  807154:	10c00504 	addi	r3,r2,20
  807158:	0540070e 	bge	zero,r21,807178 <__lshift+0x80>
  80715c:	ad6b883a 	add	r21,r21,r21
  807160:	ad6b883a 	add	r21,r21,r21
  807164:	1809883a 	mov	r4,r3
  807168:	1d47883a 	add	r3,r3,r21
  80716c:	20000015 	stw	zero,0(r4)
  807170:	21000104 	addi	r4,r4,4
  807174:	193ffd1e 	bne	r3,r4,80716c <__alt_data_end+0xff80716c>
  807178:	8a000417 	ldw	r8,16(r17)
  80717c:	89000504 	addi	r4,r17,20
  807180:	a18007cc 	andi	r6,r20,31
  807184:	4211883a 	add	r8,r8,r8
  807188:	4211883a 	add	r8,r8,r8
  80718c:	2211883a 	add	r8,r4,r8
  807190:	30002326 	beq	r6,zero,807220 <__lshift+0x128>
  807194:	02400804 	movi	r9,32
  807198:	4993c83a 	sub	r9,r9,r6
  80719c:	000b883a 	mov	r5,zero
  8071a0:	21c00017 	ldw	r7,0(r4)
  8071a4:	1815883a 	mov	r10,r3
  8071a8:	18c00104 	addi	r3,r3,4
  8071ac:	398e983a 	sll	r7,r7,r6
  8071b0:	21000104 	addi	r4,r4,4
  8071b4:	394ab03a 	or	r5,r7,r5
  8071b8:	197fff15 	stw	r5,-4(r3)
  8071bc:	217fff17 	ldw	r5,-4(r4)
  8071c0:	2a4ad83a 	srl	r5,r5,r9
  8071c4:	223ff636 	bltu	r4,r8,8071a0 <__alt_data_end+0xff8071a0>
  8071c8:	51400115 	stw	r5,4(r10)
  8071cc:	28001a1e 	bne	r5,zero,807238 <__lshift+0x140>
  8071d0:	843fffc4 	addi	r16,r16,-1
  8071d4:	14000415 	stw	r16,16(r2)
  8071d8:	88000826 	beq	r17,zero,8071fc <__lshift+0x104>
  8071dc:	89000117 	ldw	r4,4(r17)
  8071e0:	90c01317 	ldw	r3,76(r18)
  8071e4:	2109883a 	add	r4,r4,r4
  8071e8:	2109883a 	add	r4,r4,r4
  8071ec:	1907883a 	add	r3,r3,r4
  8071f0:	19000017 	ldw	r4,0(r3)
  8071f4:	89000015 	stw	r4,0(r17)
  8071f8:	1c400015 	stw	r17,0(r3)
  8071fc:	dfc00617 	ldw	ra,24(sp)
  807200:	dd400517 	ldw	r21,20(sp)
  807204:	dd000417 	ldw	r20,16(sp)
  807208:	dcc00317 	ldw	r19,12(sp)
  80720c:	dc800217 	ldw	r18,8(sp)
  807210:	dc400117 	ldw	r17,4(sp)
  807214:	dc000017 	ldw	r16,0(sp)
  807218:	dec00704 	addi	sp,sp,28
  80721c:	f800283a 	ret
  807220:	21400017 	ldw	r5,0(r4)
  807224:	18c00104 	addi	r3,r3,4
  807228:	21000104 	addi	r4,r4,4
  80722c:	197fff15 	stw	r5,-4(r3)
  807230:	223ffb36 	bltu	r4,r8,807220 <__alt_data_end+0xff807220>
  807234:	003fe606 	br	8071d0 <__alt_data_end+0xff8071d0>
  807238:	9c000084 	addi	r16,r19,2
  80723c:	003fe406 	br	8071d0 <__alt_data_end+0xff8071d0>

00807240 <__mcmp>:
  807240:	20800417 	ldw	r2,16(r4)
  807244:	28c00417 	ldw	r3,16(r5)
  807248:	10c5c83a 	sub	r2,r2,r3
  80724c:	1000111e 	bne	r2,zero,807294 <__mcmp+0x54>
  807250:	18c7883a 	add	r3,r3,r3
  807254:	18c7883a 	add	r3,r3,r3
  807258:	21000504 	addi	r4,r4,20
  80725c:	29400504 	addi	r5,r5,20
  807260:	20c5883a 	add	r2,r4,r3
  807264:	28cb883a 	add	r5,r5,r3
  807268:	00000106 	br	807270 <__mcmp+0x30>
  80726c:	20800a2e 	bgeu	r4,r2,807298 <__mcmp+0x58>
  807270:	10bfff04 	addi	r2,r2,-4
  807274:	297fff04 	addi	r5,r5,-4
  807278:	11800017 	ldw	r6,0(r2)
  80727c:	28c00017 	ldw	r3,0(r5)
  807280:	30fffa26 	beq	r6,r3,80726c <__alt_data_end+0xff80726c>
  807284:	30c00236 	bltu	r6,r3,807290 <__mcmp+0x50>
  807288:	00800044 	movi	r2,1
  80728c:	f800283a 	ret
  807290:	00bfffc4 	movi	r2,-1
  807294:	f800283a 	ret
  807298:	0005883a 	mov	r2,zero
  80729c:	f800283a 	ret

008072a0 <__mdiff>:
  8072a0:	28c00417 	ldw	r3,16(r5)
  8072a4:	30800417 	ldw	r2,16(r6)
  8072a8:	defffa04 	addi	sp,sp,-24
  8072ac:	dcc00315 	stw	r19,12(sp)
  8072b0:	dc800215 	stw	r18,8(sp)
  8072b4:	dfc00515 	stw	ra,20(sp)
  8072b8:	dd000415 	stw	r20,16(sp)
  8072bc:	dc400115 	stw	r17,4(sp)
  8072c0:	dc000015 	stw	r16,0(sp)
  8072c4:	1887c83a 	sub	r3,r3,r2
  8072c8:	2825883a 	mov	r18,r5
  8072cc:	3027883a 	mov	r19,r6
  8072d0:	1800141e 	bne	r3,zero,807324 <__mdiff+0x84>
  8072d4:	1085883a 	add	r2,r2,r2
  8072d8:	1085883a 	add	r2,r2,r2
  8072dc:	2a000504 	addi	r8,r5,20
  8072e0:	34000504 	addi	r16,r6,20
  8072e4:	4087883a 	add	r3,r8,r2
  8072e8:	8085883a 	add	r2,r16,r2
  8072ec:	00000106 	br	8072f4 <__mdiff+0x54>
  8072f0:	40c0592e 	bgeu	r8,r3,807458 <__mdiff+0x1b8>
  8072f4:	18ffff04 	addi	r3,r3,-4
  8072f8:	10bfff04 	addi	r2,r2,-4
  8072fc:	19c00017 	ldw	r7,0(r3)
  807300:	11400017 	ldw	r5,0(r2)
  807304:	397ffa26 	beq	r7,r5,8072f0 <__alt_data_end+0xff8072f0>
  807308:	3940592e 	bgeu	r7,r5,807470 <__mdiff+0x1d0>
  80730c:	9005883a 	mov	r2,r18
  807310:	4023883a 	mov	r17,r8
  807314:	9825883a 	mov	r18,r19
  807318:	05000044 	movi	r20,1
  80731c:	1027883a 	mov	r19,r2
  807320:	00000406 	br	807334 <__mdiff+0x94>
  807324:	18005616 	blt	r3,zero,807480 <__mdiff+0x1e0>
  807328:	34400504 	addi	r17,r6,20
  80732c:	2c000504 	addi	r16,r5,20
  807330:	0029883a 	mov	r20,zero
  807334:	91400117 	ldw	r5,4(r18)
  807338:	08068bc0 	call	8068bc <_Balloc>
  80733c:	92400417 	ldw	r9,16(r18)
  807340:	9b000417 	ldw	r12,16(r19)
  807344:	12c00504 	addi	r11,r2,20
  807348:	4a51883a 	add	r8,r9,r9
  80734c:	6319883a 	add	r12,r12,r12
  807350:	4211883a 	add	r8,r8,r8
  807354:	6319883a 	add	r12,r12,r12
  807358:	15000315 	stw	r20,12(r2)
  80735c:	8211883a 	add	r8,r16,r8
  807360:	8b19883a 	add	r12,r17,r12
  807364:	0007883a 	mov	r3,zero
  807368:	81400017 	ldw	r5,0(r16)
  80736c:	89c00017 	ldw	r7,0(r17)
  807370:	59800104 	addi	r6,r11,4
  807374:	293fffcc 	andi	r4,r5,65535
  807378:	20c7883a 	add	r3,r4,r3
  80737c:	393fffcc 	andi	r4,r7,65535
  807380:	1909c83a 	sub	r4,r3,r4
  807384:	280ad43a 	srli	r5,r5,16
  807388:	380ed43a 	srli	r7,r7,16
  80738c:	2007d43a 	srai	r3,r4,16
  807390:	213fffcc 	andi	r4,r4,65535
  807394:	29cbc83a 	sub	r5,r5,r7
  807398:	28c7883a 	add	r3,r5,r3
  80739c:	180a943a 	slli	r5,r3,16
  8073a0:	8c400104 	addi	r17,r17,4
  8073a4:	84000104 	addi	r16,r16,4
  8073a8:	2908b03a 	or	r4,r5,r4
  8073ac:	59000015 	stw	r4,0(r11)
  8073b0:	1807d43a 	srai	r3,r3,16
  8073b4:	3015883a 	mov	r10,r6
  8073b8:	3017883a 	mov	r11,r6
  8073bc:	8b3fea36 	bltu	r17,r12,807368 <__alt_data_end+0xff807368>
  8073c0:	8200162e 	bgeu	r16,r8,80741c <__mdiff+0x17c>
  8073c4:	8017883a 	mov	r11,r16
  8073c8:	59400017 	ldw	r5,0(r11)
  8073cc:	31800104 	addi	r6,r6,4
  8073d0:	5ac00104 	addi	r11,r11,4
  8073d4:	293fffcc 	andi	r4,r5,65535
  8073d8:	20c7883a 	add	r3,r4,r3
  8073dc:	280ed43a 	srli	r7,r5,16
  8073e0:	180bd43a 	srai	r5,r3,16
  8073e4:	193fffcc 	andi	r4,r3,65535
  8073e8:	3947883a 	add	r3,r7,r5
  8073ec:	180a943a 	slli	r5,r3,16
  8073f0:	1807d43a 	srai	r3,r3,16
  8073f4:	2908b03a 	or	r4,r5,r4
  8073f8:	313fff15 	stw	r4,-4(r6)
  8073fc:	5a3ff236 	bltu	r11,r8,8073c8 <__alt_data_end+0xff8073c8>
  807400:	0406303a 	nor	r3,zero,r16
  807404:	1a07883a 	add	r3,r3,r8
  807408:	1806d0ba 	srli	r3,r3,2
  80740c:	18c00044 	addi	r3,r3,1
  807410:	18c7883a 	add	r3,r3,r3
  807414:	18c7883a 	add	r3,r3,r3
  807418:	50d5883a 	add	r10,r10,r3
  80741c:	50ffff04 	addi	r3,r10,-4
  807420:	2000041e 	bne	r4,zero,807434 <__mdiff+0x194>
  807424:	18ffff04 	addi	r3,r3,-4
  807428:	19000017 	ldw	r4,0(r3)
  80742c:	4a7fffc4 	addi	r9,r9,-1
  807430:	203ffc26 	beq	r4,zero,807424 <__alt_data_end+0xff807424>
  807434:	12400415 	stw	r9,16(r2)
  807438:	dfc00517 	ldw	ra,20(sp)
  80743c:	dd000417 	ldw	r20,16(sp)
  807440:	dcc00317 	ldw	r19,12(sp)
  807444:	dc800217 	ldw	r18,8(sp)
  807448:	dc400117 	ldw	r17,4(sp)
  80744c:	dc000017 	ldw	r16,0(sp)
  807450:	dec00604 	addi	sp,sp,24
  807454:	f800283a 	ret
  807458:	000b883a 	mov	r5,zero
  80745c:	08068bc0 	call	8068bc <_Balloc>
  807460:	00c00044 	movi	r3,1
  807464:	10c00415 	stw	r3,16(r2)
  807468:	10000515 	stw	zero,20(r2)
  80746c:	003ff206 	br	807438 <__alt_data_end+0xff807438>
  807470:	8023883a 	mov	r17,r16
  807474:	0029883a 	mov	r20,zero
  807478:	4021883a 	mov	r16,r8
  80747c:	003fad06 	br	807334 <__alt_data_end+0xff807334>
  807480:	9005883a 	mov	r2,r18
  807484:	94400504 	addi	r17,r18,20
  807488:	9c000504 	addi	r16,r19,20
  80748c:	9825883a 	mov	r18,r19
  807490:	05000044 	movi	r20,1
  807494:	1027883a 	mov	r19,r2
  807498:	003fa606 	br	807334 <__alt_data_end+0xff807334>

0080749c <__ulp>:
  80749c:	295ffc2c 	andhi	r5,r5,32752
  8074a0:	00bf3034 	movhi	r2,64704
  8074a4:	2887883a 	add	r3,r5,r2
  8074a8:	00c0020e 	bge	zero,r3,8074b4 <__ulp+0x18>
  8074ac:	0005883a 	mov	r2,zero
  8074b0:	f800283a 	ret
  8074b4:	00c7c83a 	sub	r3,zero,r3
  8074b8:	1807d53a 	srai	r3,r3,20
  8074bc:	008004c4 	movi	r2,19
  8074c0:	10c00b0e 	bge	r2,r3,8074f0 <__ulp+0x54>
  8074c4:	18bffb04 	addi	r2,r3,-20
  8074c8:	01000784 	movi	r4,30
  8074cc:	0007883a 	mov	r3,zero
  8074d0:	20800516 	blt	r4,r2,8074e8 <__ulp+0x4c>
  8074d4:	010007c4 	movi	r4,31
  8074d8:	2089c83a 	sub	r4,r4,r2
  8074dc:	00800044 	movi	r2,1
  8074e0:	1104983a 	sll	r2,r2,r4
  8074e4:	f800283a 	ret
  8074e8:	00800044 	movi	r2,1
  8074ec:	f800283a 	ret
  8074f0:	01400234 	movhi	r5,8
  8074f4:	28c7d83a 	sra	r3,r5,r3
  8074f8:	0005883a 	mov	r2,zero
  8074fc:	f800283a 	ret

00807500 <__b2d>:
  807500:	defffa04 	addi	sp,sp,-24
  807504:	dc000015 	stw	r16,0(sp)
  807508:	24000417 	ldw	r16,16(r4)
  80750c:	dc400115 	stw	r17,4(sp)
  807510:	24400504 	addi	r17,r4,20
  807514:	8421883a 	add	r16,r16,r16
  807518:	8421883a 	add	r16,r16,r16
  80751c:	8c21883a 	add	r16,r17,r16
  807520:	dc800215 	stw	r18,8(sp)
  807524:	84bfff17 	ldw	r18,-4(r16)
  807528:	dd000415 	stw	r20,16(sp)
  80752c:	dcc00315 	stw	r19,12(sp)
  807530:	9009883a 	mov	r4,r18
  807534:	2829883a 	mov	r20,r5
  807538:	dfc00515 	stw	ra,20(sp)
  80753c:	0806bd80 	call	806bd8 <__hi0bits>
  807540:	00c00804 	movi	r3,32
  807544:	1889c83a 	sub	r4,r3,r2
  807548:	a1000015 	stw	r4,0(r20)
  80754c:	01000284 	movi	r4,10
  807550:	84ffff04 	addi	r19,r16,-4
  807554:	20801216 	blt	r4,r2,8075a0 <__b2d+0xa0>
  807558:	018002c4 	movi	r6,11
  80755c:	308dc83a 	sub	r6,r6,r2
  807560:	9186d83a 	srl	r3,r18,r6
  807564:	18cffc34 	orhi	r3,r3,16368
  807568:	8cc0212e 	bgeu	r17,r19,8075f0 <__b2d+0xf0>
  80756c:	813ffe17 	ldw	r4,-8(r16)
  807570:	218cd83a 	srl	r6,r4,r6
  807574:	10800544 	addi	r2,r2,21
  807578:	9084983a 	sll	r2,r18,r2
  80757c:	1184b03a 	or	r2,r2,r6
  807580:	dfc00517 	ldw	ra,20(sp)
  807584:	dd000417 	ldw	r20,16(sp)
  807588:	dcc00317 	ldw	r19,12(sp)
  80758c:	dc800217 	ldw	r18,8(sp)
  807590:	dc400117 	ldw	r17,4(sp)
  807594:	dc000017 	ldw	r16,0(sp)
  807598:	dec00604 	addi	sp,sp,24
  80759c:	f800283a 	ret
  8075a0:	8cc00f2e 	bgeu	r17,r19,8075e0 <__b2d+0xe0>
  8075a4:	117ffd44 	addi	r5,r2,-11
  8075a8:	80bffe17 	ldw	r2,-8(r16)
  8075ac:	28000e26 	beq	r5,zero,8075e8 <__b2d+0xe8>
  8075b0:	1949c83a 	sub	r4,r3,r5
  8075b4:	9164983a 	sll	r18,r18,r5
  8075b8:	1106d83a 	srl	r3,r2,r4
  8075bc:	81bffe04 	addi	r6,r16,-8
  8075c0:	948ffc34 	orhi	r18,r18,16368
  8075c4:	90c6b03a 	or	r3,r18,r3
  8075c8:	89800e2e 	bgeu	r17,r6,807604 <__b2d+0x104>
  8075cc:	81bffd17 	ldw	r6,-12(r16)
  8075d0:	1144983a 	sll	r2,r2,r5
  8075d4:	310ad83a 	srl	r5,r6,r4
  8075d8:	2884b03a 	or	r2,r5,r2
  8075dc:	003fe806 	br	807580 <__alt_data_end+0xff807580>
  8075e0:	10bffd44 	addi	r2,r2,-11
  8075e4:	1000041e 	bne	r2,zero,8075f8 <__b2d+0xf8>
  8075e8:	90cffc34 	orhi	r3,r18,16368
  8075ec:	003fe406 	br	807580 <__alt_data_end+0xff807580>
  8075f0:	000d883a 	mov	r6,zero
  8075f4:	003fdf06 	br	807574 <__alt_data_end+0xff807574>
  8075f8:	90a4983a 	sll	r18,r18,r2
  8075fc:	0005883a 	mov	r2,zero
  807600:	003ff906 	br	8075e8 <__alt_data_end+0xff8075e8>
  807604:	1144983a 	sll	r2,r2,r5
  807608:	003fdd06 	br	807580 <__alt_data_end+0xff807580>

0080760c <__d2b>:
  80760c:	defff804 	addi	sp,sp,-32
  807610:	dc000215 	stw	r16,8(sp)
  807614:	3021883a 	mov	r16,r6
  807618:	dc400315 	stw	r17,12(sp)
  80761c:	8022907a 	slli	r17,r16,1
  807620:	dd000615 	stw	r20,24(sp)
  807624:	2829883a 	mov	r20,r5
  807628:	01400044 	movi	r5,1
  80762c:	dcc00515 	stw	r19,20(sp)
  807630:	dc800415 	stw	r18,16(sp)
  807634:	dfc00715 	stw	ra,28(sp)
  807638:	3825883a 	mov	r18,r7
  80763c:	8822d57a 	srli	r17,r17,21
  807640:	08068bc0 	call	8068bc <_Balloc>
  807644:	1027883a 	mov	r19,r2
  807648:	00800434 	movhi	r2,16
  80764c:	10bfffc4 	addi	r2,r2,-1
  807650:	808c703a 	and	r6,r16,r2
  807654:	88000126 	beq	r17,zero,80765c <__d2b+0x50>
  807658:	31800434 	orhi	r6,r6,16
  80765c:	d9800015 	stw	r6,0(sp)
  807660:	a0002426 	beq	r20,zero,8076f4 <__d2b+0xe8>
  807664:	d9000104 	addi	r4,sp,4
  807668:	dd000115 	stw	r20,4(sp)
  80766c:	0806c400 	call	806c40 <__lo0bits>
  807670:	d8c00017 	ldw	r3,0(sp)
  807674:	10002f1e 	bne	r2,zero,807734 <__d2b+0x128>
  807678:	d9000117 	ldw	r4,4(sp)
  80767c:	99000515 	stw	r4,20(r19)
  807680:	1821003a 	cmpeq	r16,r3,zero
  807684:	01000084 	movi	r4,2
  807688:	2421c83a 	sub	r16,r4,r16
  80768c:	98c00615 	stw	r3,24(r19)
  807690:	9c000415 	stw	r16,16(r19)
  807694:	88001f1e 	bne	r17,zero,807714 <__d2b+0x108>
  807698:	10bef384 	addi	r2,r2,-1074
  80769c:	90800015 	stw	r2,0(r18)
  8076a0:	00900034 	movhi	r2,16384
  8076a4:	10bfffc4 	addi	r2,r2,-1
  8076a8:	8085883a 	add	r2,r16,r2
  8076ac:	1085883a 	add	r2,r2,r2
  8076b0:	1085883a 	add	r2,r2,r2
  8076b4:	9885883a 	add	r2,r19,r2
  8076b8:	11000517 	ldw	r4,20(r2)
  8076bc:	8020917a 	slli	r16,r16,5
  8076c0:	0806bd80 	call	806bd8 <__hi0bits>
  8076c4:	d8c00817 	ldw	r3,32(sp)
  8076c8:	8085c83a 	sub	r2,r16,r2
  8076cc:	18800015 	stw	r2,0(r3)
  8076d0:	9805883a 	mov	r2,r19
  8076d4:	dfc00717 	ldw	ra,28(sp)
  8076d8:	dd000617 	ldw	r20,24(sp)
  8076dc:	dcc00517 	ldw	r19,20(sp)
  8076e0:	dc800417 	ldw	r18,16(sp)
  8076e4:	dc400317 	ldw	r17,12(sp)
  8076e8:	dc000217 	ldw	r16,8(sp)
  8076ec:	dec00804 	addi	sp,sp,32
  8076f0:	f800283a 	ret
  8076f4:	d809883a 	mov	r4,sp
  8076f8:	0806c400 	call	806c40 <__lo0bits>
  8076fc:	d8c00017 	ldw	r3,0(sp)
  807700:	04000044 	movi	r16,1
  807704:	9c000415 	stw	r16,16(r19)
  807708:	98c00515 	stw	r3,20(r19)
  80770c:	10800804 	addi	r2,r2,32
  807710:	883fe126 	beq	r17,zero,807698 <__alt_data_end+0xff807698>
  807714:	00c00d44 	movi	r3,53
  807718:	8c7ef344 	addi	r17,r17,-1075
  80771c:	88a3883a 	add	r17,r17,r2
  807720:	1885c83a 	sub	r2,r3,r2
  807724:	d8c00817 	ldw	r3,32(sp)
  807728:	94400015 	stw	r17,0(r18)
  80772c:	18800015 	stw	r2,0(r3)
  807730:	003fe706 	br	8076d0 <__alt_data_end+0xff8076d0>
  807734:	01000804 	movi	r4,32
  807738:	2089c83a 	sub	r4,r4,r2
  80773c:	1908983a 	sll	r4,r3,r4
  807740:	d9400117 	ldw	r5,4(sp)
  807744:	1886d83a 	srl	r3,r3,r2
  807748:	2148b03a 	or	r4,r4,r5
  80774c:	99000515 	stw	r4,20(r19)
  807750:	d8c00015 	stw	r3,0(sp)
  807754:	003fca06 	br	807680 <__alt_data_end+0xff807680>

00807758 <__ratio>:
  807758:	defff904 	addi	sp,sp,-28
  80775c:	dc400315 	stw	r17,12(sp)
  807760:	2823883a 	mov	r17,r5
  807764:	d9400104 	addi	r5,sp,4
  807768:	dfc00615 	stw	ra,24(sp)
  80776c:	dcc00515 	stw	r19,20(sp)
  807770:	dc800415 	stw	r18,16(sp)
  807774:	2027883a 	mov	r19,r4
  807778:	dc000215 	stw	r16,8(sp)
  80777c:	08075000 	call	807500 <__b2d>
  807780:	d80b883a 	mov	r5,sp
  807784:	8809883a 	mov	r4,r17
  807788:	1025883a 	mov	r18,r2
  80778c:	1821883a 	mov	r16,r3
  807790:	08075000 	call	807500 <__b2d>
  807794:	8a000417 	ldw	r8,16(r17)
  807798:	99000417 	ldw	r4,16(r19)
  80779c:	d9400117 	ldw	r5,4(sp)
  8077a0:	2209c83a 	sub	r4,r4,r8
  8077a4:	2010917a 	slli	r8,r4,5
  8077a8:	d9000017 	ldw	r4,0(sp)
  8077ac:	2909c83a 	sub	r4,r5,r4
  8077b0:	4109883a 	add	r4,r8,r4
  8077b4:	01000e0e 	bge	zero,r4,8077f0 <__ratio+0x98>
  8077b8:	2008953a 	slli	r4,r4,20
  8077bc:	2421883a 	add	r16,r4,r16
  8077c0:	100d883a 	mov	r6,r2
  8077c4:	180f883a 	mov	r7,r3
  8077c8:	9009883a 	mov	r4,r18
  8077cc:	800b883a 	mov	r5,r16
  8077d0:	080bed80 	call	80bed8 <__divdf3>
  8077d4:	dfc00617 	ldw	ra,24(sp)
  8077d8:	dcc00517 	ldw	r19,20(sp)
  8077dc:	dc800417 	ldw	r18,16(sp)
  8077e0:	dc400317 	ldw	r17,12(sp)
  8077e4:	dc000217 	ldw	r16,8(sp)
  8077e8:	dec00704 	addi	sp,sp,28
  8077ec:	f800283a 	ret
  8077f0:	2008953a 	slli	r4,r4,20
  8077f4:	1907c83a 	sub	r3,r3,r4
  8077f8:	003ff106 	br	8077c0 <__alt_data_end+0xff8077c0>

008077fc <_mprec_log10>:
  8077fc:	defffe04 	addi	sp,sp,-8
  807800:	dc000015 	stw	r16,0(sp)
  807804:	dfc00115 	stw	ra,4(sp)
  807808:	008005c4 	movi	r2,23
  80780c:	2021883a 	mov	r16,r4
  807810:	11000d0e 	bge	r2,r4,807848 <_mprec_log10+0x4c>
  807814:	0005883a 	mov	r2,zero
  807818:	00cffc34 	movhi	r3,16368
  80781c:	843fffc4 	addi	r16,r16,-1
  807820:	000d883a 	mov	r6,zero
  807824:	01d00934 	movhi	r7,16420
  807828:	1009883a 	mov	r4,r2
  80782c:	180b883a 	mov	r5,r3
  807830:	080cb000 	call	80cb00 <__muldf3>
  807834:	803ff91e 	bne	r16,zero,80781c <__alt_data_end+0xff80781c>
  807838:	dfc00117 	ldw	ra,4(sp)
  80783c:	dc000017 	ldw	r16,0(sp)
  807840:	dec00204 	addi	sp,sp,8
  807844:	f800283a 	ret
  807848:	202090fa 	slli	r16,r4,3
  80784c:	00802074 	movhi	r2,129
  807850:	10805004 	addi	r2,r2,320
  807854:	1421883a 	add	r16,r2,r16
  807858:	80800017 	ldw	r2,0(r16)
  80785c:	80c00117 	ldw	r3,4(r16)
  807860:	dfc00117 	ldw	ra,4(sp)
  807864:	dc000017 	ldw	r16,0(sp)
  807868:	dec00204 	addi	sp,sp,8
  80786c:	f800283a 	ret

00807870 <__copybits>:
  807870:	297fffc4 	addi	r5,r5,-1
  807874:	280fd17a 	srai	r7,r5,5
  807878:	30c00417 	ldw	r3,16(r6)
  80787c:	30800504 	addi	r2,r6,20
  807880:	39c00044 	addi	r7,r7,1
  807884:	18c7883a 	add	r3,r3,r3
  807888:	39cf883a 	add	r7,r7,r7
  80788c:	18c7883a 	add	r3,r3,r3
  807890:	39cf883a 	add	r7,r7,r7
  807894:	10c7883a 	add	r3,r2,r3
  807898:	21cf883a 	add	r7,r4,r7
  80789c:	10c00d2e 	bgeu	r2,r3,8078d4 <__copybits+0x64>
  8078a0:	200b883a 	mov	r5,r4
  8078a4:	12000017 	ldw	r8,0(r2)
  8078a8:	29400104 	addi	r5,r5,4
  8078ac:	10800104 	addi	r2,r2,4
  8078b0:	2a3fff15 	stw	r8,-4(r5)
  8078b4:	10fffb36 	bltu	r2,r3,8078a4 <__alt_data_end+0xff8078a4>
  8078b8:	1985c83a 	sub	r2,r3,r6
  8078bc:	10bffac4 	addi	r2,r2,-21
  8078c0:	1004d0ba 	srli	r2,r2,2
  8078c4:	10800044 	addi	r2,r2,1
  8078c8:	1085883a 	add	r2,r2,r2
  8078cc:	1085883a 	add	r2,r2,r2
  8078d0:	2089883a 	add	r4,r4,r2
  8078d4:	21c0032e 	bgeu	r4,r7,8078e4 <__copybits+0x74>
  8078d8:	20000015 	stw	zero,0(r4)
  8078dc:	21000104 	addi	r4,r4,4
  8078e0:	21fffd36 	bltu	r4,r7,8078d8 <__alt_data_end+0xff8078d8>
  8078e4:	f800283a 	ret

008078e8 <__any_on>:
  8078e8:	20c00417 	ldw	r3,16(r4)
  8078ec:	2805d17a 	srai	r2,r5,5
  8078f0:	21000504 	addi	r4,r4,20
  8078f4:	18800d0e 	bge	r3,r2,80792c <__any_on+0x44>
  8078f8:	18c7883a 	add	r3,r3,r3
  8078fc:	18c7883a 	add	r3,r3,r3
  807900:	20c7883a 	add	r3,r4,r3
  807904:	20c0192e 	bgeu	r4,r3,80796c <__any_on+0x84>
  807908:	18bfff17 	ldw	r2,-4(r3)
  80790c:	18ffff04 	addi	r3,r3,-4
  807910:	1000041e 	bne	r2,zero,807924 <__any_on+0x3c>
  807914:	20c0142e 	bgeu	r4,r3,807968 <__any_on+0x80>
  807918:	18ffff04 	addi	r3,r3,-4
  80791c:	19400017 	ldw	r5,0(r3)
  807920:	283ffc26 	beq	r5,zero,807914 <__alt_data_end+0xff807914>
  807924:	00800044 	movi	r2,1
  807928:	f800283a 	ret
  80792c:	10c00a0e 	bge	r2,r3,807958 <__any_on+0x70>
  807930:	1085883a 	add	r2,r2,r2
  807934:	1085883a 	add	r2,r2,r2
  807938:	294007cc 	andi	r5,r5,31
  80793c:	2087883a 	add	r3,r4,r2
  807940:	283ff026 	beq	r5,zero,807904 <__alt_data_end+0xff807904>
  807944:	19800017 	ldw	r6,0(r3)
  807948:	3144d83a 	srl	r2,r6,r5
  80794c:	114a983a 	sll	r5,r2,r5
  807950:	317ff41e 	bne	r6,r5,807924 <__alt_data_end+0xff807924>
  807954:	003feb06 	br	807904 <__alt_data_end+0xff807904>
  807958:	1085883a 	add	r2,r2,r2
  80795c:	1085883a 	add	r2,r2,r2
  807960:	2087883a 	add	r3,r4,r2
  807964:	003fe706 	br	807904 <__alt_data_end+0xff807904>
  807968:	f800283a 	ret
  80796c:	0005883a 	mov	r2,zero
  807970:	f800283a 	ret

00807974 <__fpclassifyd>:
  807974:	00a00034 	movhi	r2,32768
  807978:	10bfffc4 	addi	r2,r2,-1
  80797c:	2884703a 	and	r2,r5,r2
  807980:	10000726 	beq	r2,zero,8079a0 <__fpclassifyd+0x2c>
  807984:	00fffc34 	movhi	r3,65520
  807988:	019ff834 	movhi	r6,32736
  80798c:	28c7883a 	add	r3,r5,r3
  807990:	31bfffc4 	addi	r6,r6,-1
  807994:	30c00536 	bltu	r6,r3,8079ac <__fpclassifyd+0x38>
  807998:	00800104 	movi	r2,4
  80799c:	f800283a 	ret
  8079a0:	2000021e 	bne	r4,zero,8079ac <__fpclassifyd+0x38>
  8079a4:	00800084 	movi	r2,2
  8079a8:	f800283a 	ret
  8079ac:	00dffc34 	movhi	r3,32752
  8079b0:	019ff834 	movhi	r6,32736
  8079b4:	28cb883a 	add	r5,r5,r3
  8079b8:	31bfffc4 	addi	r6,r6,-1
  8079bc:	317ff62e 	bgeu	r6,r5,807998 <__alt_data_end+0xff807998>
  8079c0:	01400434 	movhi	r5,16
  8079c4:	297fffc4 	addi	r5,r5,-1
  8079c8:	28800236 	bltu	r5,r2,8079d4 <__fpclassifyd+0x60>
  8079cc:	008000c4 	movi	r2,3
  8079d0:	f800283a 	ret
  8079d4:	10c00226 	beq	r2,r3,8079e0 <__fpclassifyd+0x6c>
  8079d8:	0005883a 	mov	r2,zero
  8079dc:	f800283a 	ret
  8079e0:	2005003a 	cmpeq	r2,r4,zero
  8079e4:	f800283a 	ret

008079e8 <_sbrk_r>:
  8079e8:	defffd04 	addi	sp,sp,-12
  8079ec:	dc000015 	stw	r16,0(sp)
  8079f0:	04002074 	movhi	r16,129
  8079f4:	dc400115 	stw	r17,4(sp)
  8079f8:	8405f704 	addi	r16,r16,6108
  8079fc:	2023883a 	mov	r17,r4
  807a00:	2809883a 	mov	r4,r5
  807a04:	dfc00215 	stw	ra,8(sp)
  807a08:	80000015 	stw	zero,0(r16)
  807a0c:	080e6500 	call	80e650 <sbrk>
  807a10:	00ffffc4 	movi	r3,-1
  807a14:	10c00526 	beq	r2,r3,807a2c <_sbrk_r+0x44>
  807a18:	dfc00217 	ldw	ra,8(sp)
  807a1c:	dc400117 	ldw	r17,4(sp)
  807a20:	dc000017 	ldw	r16,0(sp)
  807a24:	dec00304 	addi	sp,sp,12
  807a28:	f800283a 	ret
  807a2c:	80c00017 	ldw	r3,0(r16)
  807a30:	183ff926 	beq	r3,zero,807a18 <__alt_data_end+0xff807a18>
  807a34:	88c00015 	stw	r3,0(r17)
  807a38:	003ff706 	br	807a18 <__alt_data_end+0xff807a18>

00807a3c <__sread>:
  807a3c:	defffe04 	addi	sp,sp,-8
  807a40:	dc000015 	stw	r16,0(sp)
  807a44:	2821883a 	mov	r16,r5
  807a48:	2940038f 	ldh	r5,14(r5)
  807a4c:	dfc00115 	stw	ra,4(sp)
  807a50:	0809fb40 	call	809fb4 <_read_r>
  807a54:	10000716 	blt	r2,zero,807a74 <__sread+0x38>
  807a58:	80c01417 	ldw	r3,80(r16)
  807a5c:	1887883a 	add	r3,r3,r2
  807a60:	80c01415 	stw	r3,80(r16)
  807a64:	dfc00117 	ldw	ra,4(sp)
  807a68:	dc000017 	ldw	r16,0(sp)
  807a6c:	dec00204 	addi	sp,sp,8
  807a70:	f800283a 	ret
  807a74:	80c0030b 	ldhu	r3,12(r16)
  807a78:	18fbffcc 	andi	r3,r3,61439
  807a7c:	80c0030d 	sth	r3,12(r16)
  807a80:	dfc00117 	ldw	ra,4(sp)
  807a84:	dc000017 	ldw	r16,0(sp)
  807a88:	dec00204 	addi	sp,sp,8
  807a8c:	f800283a 	ret

00807a90 <__seofread>:
  807a90:	0005883a 	mov	r2,zero
  807a94:	f800283a 	ret

00807a98 <__swrite>:
  807a98:	2880030b 	ldhu	r2,12(r5)
  807a9c:	defffb04 	addi	sp,sp,-20
  807aa0:	dcc00315 	stw	r19,12(sp)
  807aa4:	dc800215 	stw	r18,8(sp)
  807aa8:	dc400115 	stw	r17,4(sp)
  807aac:	dc000015 	stw	r16,0(sp)
  807ab0:	dfc00415 	stw	ra,16(sp)
  807ab4:	10c0400c 	andi	r3,r2,256
  807ab8:	2821883a 	mov	r16,r5
  807abc:	2023883a 	mov	r17,r4
  807ac0:	3025883a 	mov	r18,r6
  807ac4:	3827883a 	mov	r19,r7
  807ac8:	18000526 	beq	r3,zero,807ae0 <__swrite+0x48>
  807acc:	2940038f 	ldh	r5,14(r5)
  807ad0:	01c00084 	movi	r7,2
  807ad4:	000d883a 	mov	r6,zero
  807ad8:	0809df80 	call	809df8 <_lseek_r>
  807adc:	8080030b 	ldhu	r2,12(r16)
  807ae0:	8140038f 	ldh	r5,14(r16)
  807ae4:	10bbffcc 	andi	r2,r2,61439
  807ae8:	980f883a 	mov	r7,r19
  807aec:	900d883a 	mov	r6,r18
  807af0:	8809883a 	mov	r4,r17
  807af4:	8080030d 	sth	r2,12(r16)
  807af8:	dfc00417 	ldw	ra,16(sp)
  807afc:	dcc00317 	ldw	r19,12(sp)
  807b00:	dc800217 	ldw	r18,8(sp)
  807b04:	dc400117 	ldw	r17,4(sp)
  807b08:	dc000017 	ldw	r16,0(sp)
  807b0c:	dec00504 	addi	sp,sp,20
  807b10:	08093e41 	jmpi	8093e4 <_write_r>

00807b14 <__sseek>:
  807b14:	defffe04 	addi	sp,sp,-8
  807b18:	dc000015 	stw	r16,0(sp)
  807b1c:	2821883a 	mov	r16,r5
  807b20:	2940038f 	ldh	r5,14(r5)
  807b24:	dfc00115 	stw	ra,4(sp)
  807b28:	0809df80 	call	809df8 <_lseek_r>
  807b2c:	00ffffc4 	movi	r3,-1
  807b30:	10c00826 	beq	r2,r3,807b54 <__sseek+0x40>
  807b34:	80c0030b 	ldhu	r3,12(r16)
  807b38:	80801415 	stw	r2,80(r16)
  807b3c:	18c40014 	ori	r3,r3,4096
  807b40:	80c0030d 	sth	r3,12(r16)
  807b44:	dfc00117 	ldw	ra,4(sp)
  807b48:	dc000017 	ldw	r16,0(sp)
  807b4c:	dec00204 	addi	sp,sp,8
  807b50:	f800283a 	ret
  807b54:	80c0030b 	ldhu	r3,12(r16)
  807b58:	18fbffcc 	andi	r3,r3,61439
  807b5c:	80c0030d 	sth	r3,12(r16)
  807b60:	dfc00117 	ldw	ra,4(sp)
  807b64:	dc000017 	ldw	r16,0(sp)
  807b68:	dec00204 	addi	sp,sp,8
  807b6c:	f800283a 	ret

00807b70 <__sclose>:
  807b70:	2940038f 	ldh	r5,14(r5)
  807b74:	08094441 	jmpi	809444 <_close_r>

00807b78 <strcmp>:
  807b78:	2144b03a 	or	r2,r4,r5
  807b7c:	108000cc 	andi	r2,r2,3
  807b80:	1000171e 	bne	r2,zero,807be0 <strcmp+0x68>
  807b84:	20800017 	ldw	r2,0(r4)
  807b88:	28c00017 	ldw	r3,0(r5)
  807b8c:	10c0141e 	bne	r2,r3,807be0 <strcmp+0x68>
  807b90:	027fbff4 	movhi	r9,65279
  807b94:	4a7fbfc4 	addi	r9,r9,-257
  807b98:	0086303a 	nor	r3,zero,r2
  807b9c:	02202074 	movhi	r8,32897
  807ba0:	1245883a 	add	r2,r2,r9
  807ba4:	42202004 	addi	r8,r8,-32640
  807ba8:	10c4703a 	and	r2,r2,r3
  807bac:	1204703a 	and	r2,r2,r8
  807bb0:	10000226 	beq	r2,zero,807bbc <strcmp+0x44>
  807bb4:	00002306 	br	807c44 <strcmp+0xcc>
  807bb8:	1000221e 	bne	r2,zero,807c44 <strcmp+0xcc>
  807bbc:	21000104 	addi	r4,r4,4
  807bc0:	20c00017 	ldw	r3,0(r4)
  807bc4:	29400104 	addi	r5,r5,4
  807bc8:	29800017 	ldw	r6,0(r5)
  807bcc:	1a4f883a 	add	r7,r3,r9
  807bd0:	00c4303a 	nor	r2,zero,r3
  807bd4:	3884703a 	and	r2,r7,r2
  807bd8:	1204703a 	and	r2,r2,r8
  807bdc:	19bff626 	beq	r3,r6,807bb8 <__alt_data_end+0xff807bb8>
  807be0:	20800003 	ldbu	r2,0(r4)
  807be4:	10c03fcc 	andi	r3,r2,255
  807be8:	18c0201c 	xori	r3,r3,128
  807bec:	18ffe004 	addi	r3,r3,-128
  807bf0:	18000c26 	beq	r3,zero,807c24 <strcmp+0xac>
  807bf4:	29800007 	ldb	r6,0(r5)
  807bf8:	19800326 	beq	r3,r6,807c08 <strcmp+0x90>
  807bfc:	00001306 	br	807c4c <strcmp+0xd4>
  807c00:	29800007 	ldb	r6,0(r5)
  807c04:	11800b1e 	bne	r2,r6,807c34 <strcmp+0xbc>
  807c08:	21000044 	addi	r4,r4,1
  807c0c:	20c00003 	ldbu	r3,0(r4)
  807c10:	29400044 	addi	r5,r5,1
  807c14:	18803fcc 	andi	r2,r3,255
  807c18:	1080201c 	xori	r2,r2,128
  807c1c:	10bfe004 	addi	r2,r2,-128
  807c20:	103ff71e 	bne	r2,zero,807c00 <__alt_data_end+0xff807c00>
  807c24:	0007883a 	mov	r3,zero
  807c28:	28800003 	ldbu	r2,0(r5)
  807c2c:	1885c83a 	sub	r2,r3,r2
  807c30:	f800283a 	ret
  807c34:	28800003 	ldbu	r2,0(r5)
  807c38:	18c03fcc 	andi	r3,r3,255
  807c3c:	1885c83a 	sub	r2,r3,r2
  807c40:	f800283a 	ret
  807c44:	0005883a 	mov	r2,zero
  807c48:	f800283a 	ret
  807c4c:	10c03fcc 	andi	r3,r2,255
  807c50:	003ff506 	br	807c28 <__alt_data_end+0xff807c28>

00807c54 <strlen>:
  807c54:	208000cc 	andi	r2,r4,3
  807c58:	10002026 	beq	r2,zero,807cdc <strlen+0x88>
  807c5c:	20800007 	ldb	r2,0(r4)
  807c60:	10002026 	beq	r2,zero,807ce4 <strlen+0x90>
  807c64:	2005883a 	mov	r2,r4
  807c68:	00000206 	br	807c74 <strlen+0x20>
  807c6c:	10c00007 	ldb	r3,0(r2)
  807c70:	18001826 	beq	r3,zero,807cd4 <strlen+0x80>
  807c74:	10800044 	addi	r2,r2,1
  807c78:	10c000cc 	andi	r3,r2,3
  807c7c:	183ffb1e 	bne	r3,zero,807c6c <__alt_data_end+0xff807c6c>
  807c80:	10c00017 	ldw	r3,0(r2)
  807c84:	01ffbff4 	movhi	r7,65279
  807c88:	39ffbfc4 	addi	r7,r7,-257
  807c8c:	00ca303a 	nor	r5,zero,r3
  807c90:	01a02074 	movhi	r6,32897
  807c94:	19c7883a 	add	r3,r3,r7
  807c98:	31a02004 	addi	r6,r6,-32640
  807c9c:	1946703a 	and	r3,r3,r5
  807ca0:	1986703a 	and	r3,r3,r6
  807ca4:	1800091e 	bne	r3,zero,807ccc <strlen+0x78>
  807ca8:	10800104 	addi	r2,r2,4
  807cac:	10c00017 	ldw	r3,0(r2)
  807cb0:	19cb883a 	add	r5,r3,r7
  807cb4:	00c6303a 	nor	r3,zero,r3
  807cb8:	28c6703a 	and	r3,r5,r3
  807cbc:	1986703a 	and	r3,r3,r6
  807cc0:	183ff926 	beq	r3,zero,807ca8 <__alt_data_end+0xff807ca8>
  807cc4:	00000106 	br	807ccc <strlen+0x78>
  807cc8:	10800044 	addi	r2,r2,1
  807ccc:	10c00007 	ldb	r3,0(r2)
  807cd0:	183ffd1e 	bne	r3,zero,807cc8 <__alt_data_end+0xff807cc8>
  807cd4:	1105c83a 	sub	r2,r2,r4
  807cd8:	f800283a 	ret
  807cdc:	2005883a 	mov	r2,r4
  807ce0:	003fe706 	br	807c80 <__alt_data_end+0xff807c80>
  807ce4:	0005883a 	mov	r2,zero
  807ce8:	f800283a 	ret

00807cec <__sprint_r.part.0>:
  807cec:	28801917 	ldw	r2,100(r5)
  807cf0:	defff604 	addi	sp,sp,-40
  807cf4:	dd400515 	stw	r21,20(sp)
  807cf8:	dfc00915 	stw	ra,36(sp)
  807cfc:	df000815 	stw	fp,32(sp)
  807d00:	ddc00715 	stw	r23,28(sp)
  807d04:	dd800615 	stw	r22,24(sp)
  807d08:	dd000415 	stw	r20,16(sp)
  807d0c:	dcc00315 	stw	r19,12(sp)
  807d10:	dc800215 	stw	r18,8(sp)
  807d14:	dc400115 	stw	r17,4(sp)
  807d18:	dc000015 	stw	r16,0(sp)
  807d1c:	1088000c 	andi	r2,r2,8192
  807d20:	302b883a 	mov	r21,r6
  807d24:	10002e26 	beq	r2,zero,807de0 <__sprint_r.part.0+0xf4>
  807d28:	30800217 	ldw	r2,8(r6)
  807d2c:	35800017 	ldw	r22,0(r6)
  807d30:	10002926 	beq	r2,zero,807dd8 <__sprint_r.part.0+0xec>
  807d34:	2827883a 	mov	r19,r5
  807d38:	2029883a 	mov	r20,r4
  807d3c:	b5c00104 	addi	r23,r22,4
  807d40:	04bfffc4 	movi	r18,-1
  807d44:	bc400017 	ldw	r17,0(r23)
  807d48:	b4000017 	ldw	r16,0(r22)
  807d4c:	0039883a 	mov	fp,zero
  807d50:	8822d0ba 	srli	r17,r17,2
  807d54:	8800031e 	bne	r17,zero,807d64 <__sprint_r.part.0+0x78>
  807d58:	00001806 	br	807dbc <__sprint_r.part.0+0xd0>
  807d5c:	84000104 	addi	r16,r16,4
  807d60:	8f001526 	beq	r17,fp,807db8 <__sprint_r.part.0+0xcc>
  807d64:	81400017 	ldw	r5,0(r16)
  807d68:	980d883a 	mov	r6,r19
  807d6c:	a009883a 	mov	r4,r20
  807d70:	08097dc0 	call	8097dc <_fputwc_r>
  807d74:	e7000044 	addi	fp,fp,1
  807d78:	14bff81e 	bne	r2,r18,807d5c <__alt_data_end+0xff807d5c>
  807d7c:	9005883a 	mov	r2,r18
  807d80:	a8000215 	stw	zero,8(r21)
  807d84:	a8000115 	stw	zero,4(r21)
  807d88:	dfc00917 	ldw	ra,36(sp)
  807d8c:	df000817 	ldw	fp,32(sp)
  807d90:	ddc00717 	ldw	r23,28(sp)
  807d94:	dd800617 	ldw	r22,24(sp)
  807d98:	dd400517 	ldw	r21,20(sp)
  807d9c:	dd000417 	ldw	r20,16(sp)
  807da0:	dcc00317 	ldw	r19,12(sp)
  807da4:	dc800217 	ldw	r18,8(sp)
  807da8:	dc400117 	ldw	r17,4(sp)
  807dac:	dc000017 	ldw	r16,0(sp)
  807db0:	dec00a04 	addi	sp,sp,40
  807db4:	f800283a 	ret
  807db8:	a8800217 	ldw	r2,8(r21)
  807dbc:	8c63883a 	add	r17,r17,r17
  807dc0:	8c63883a 	add	r17,r17,r17
  807dc4:	1445c83a 	sub	r2,r2,r17
  807dc8:	a8800215 	stw	r2,8(r21)
  807dcc:	b5800204 	addi	r22,r22,8
  807dd0:	bdc00204 	addi	r23,r23,8
  807dd4:	103fdb1e 	bne	r2,zero,807d44 <__alt_data_end+0xff807d44>
  807dd8:	0005883a 	mov	r2,zero
  807ddc:	003fe806 	br	807d80 <__alt_data_end+0xff807d80>
  807de0:	08098dc0 	call	8098dc <__sfvwrite_r>
  807de4:	003fe606 	br	807d80 <__alt_data_end+0xff807d80>

00807de8 <__sprint_r>:
  807de8:	30c00217 	ldw	r3,8(r6)
  807dec:	18000126 	beq	r3,zero,807df4 <__sprint_r+0xc>
  807df0:	0807cec1 	jmpi	807cec <__sprint_r.part.0>
  807df4:	30000115 	stw	zero,4(r6)
  807df8:	0005883a 	mov	r2,zero
  807dfc:	f800283a 	ret

00807e00 <___vfiprintf_internal_r>:
  807e00:	deffca04 	addi	sp,sp,-216
  807e04:	dd403115 	stw	r21,196(sp)
  807e08:	dfc03515 	stw	ra,212(sp)
  807e0c:	df003415 	stw	fp,208(sp)
  807e10:	ddc03315 	stw	r23,204(sp)
  807e14:	dd803215 	stw	r22,200(sp)
  807e18:	dd003015 	stw	r20,192(sp)
  807e1c:	dcc02f15 	stw	r19,188(sp)
  807e20:	dc802e15 	stw	r18,184(sp)
  807e24:	dc402d15 	stw	r17,180(sp)
  807e28:	dc002c15 	stw	r16,176(sp)
  807e2c:	d9002115 	stw	r4,132(sp)
  807e30:	d9402015 	stw	r5,128(sp)
  807e34:	d9c02215 	stw	r7,136(sp)
  807e38:	302b883a 	mov	r21,r6
  807e3c:	20000226 	beq	r4,zero,807e48 <___vfiprintf_internal_r+0x48>
  807e40:	20800e17 	ldw	r2,56(r4)
  807e44:	1000cf26 	beq	r2,zero,808184 <___vfiprintf_internal_r+0x384>
  807e48:	d8c02017 	ldw	r3,128(sp)
  807e4c:	1880030b 	ldhu	r2,12(r3)
  807e50:	10c8000c 	andi	r3,r2,8192
  807e54:	1800071e 	bne	r3,zero,807e74 <___vfiprintf_internal_r+0x74>
  807e58:	d9402017 	ldw	r5,128(sp)
  807e5c:	00f7ffc4 	movi	r3,-8193
  807e60:	10880014 	ori	r2,r2,8192
  807e64:	29001917 	ldw	r4,100(r5)
  807e68:	2880030d 	sth	r2,12(r5)
  807e6c:	20c6703a 	and	r3,r4,r3
  807e70:	28c01915 	stw	r3,100(r5)
  807e74:	10c0020c 	andi	r3,r2,8
  807e78:	1800a526 	beq	r3,zero,808110 <___vfiprintf_internal_r+0x310>
  807e7c:	d9002017 	ldw	r4,128(sp)
  807e80:	20c00417 	ldw	r3,16(r4)
  807e84:	1800a226 	beq	r3,zero,808110 <___vfiprintf_internal_r+0x310>
  807e88:	1080068c 	andi	r2,r2,26
  807e8c:	00c00284 	movi	r3,10
  807e90:	10c0a826 	beq	r2,r3,808134 <___vfiprintf_internal_r+0x334>
  807e94:	d9001a04 	addi	r4,sp,104
  807e98:	d94019c4 	addi	r5,sp,103
  807e9c:	04802074 	movhi	r18,129
  807ea0:	2145c83a 	sub	r2,r4,r5
  807ea4:	94808204 	addi	r18,r18,520
  807ea8:	d9001e15 	stw	r4,120(sp)
  807eac:	d9401f15 	stw	r5,124(sp)
  807eb0:	dec01a15 	stw	sp,104(sp)
  807eb4:	d8001c15 	stw	zero,112(sp)
  807eb8:	d8001b15 	stw	zero,108(sp)
  807ebc:	d811883a 	mov	r8,sp
  807ec0:	d8002615 	stw	zero,152(sp)
  807ec4:	d8002415 	stw	zero,144(sp)
  807ec8:	d8802815 	stw	r2,160(sp)
  807ecc:	a82d883a 	mov	r22,r21
  807ed0:	b0800007 	ldb	r2,0(r22)
  807ed4:	10040d26 	beq	r2,zero,808f0c <___vfiprintf_internal_r+0x110c>
  807ed8:	00c00944 	movi	r3,37
  807edc:	b029883a 	mov	r20,r22
  807ee0:	10c0021e 	bne	r2,r3,807eec <___vfiprintf_internal_r+0xec>
  807ee4:	00001606 	br	807f40 <___vfiprintf_internal_r+0x140>
  807ee8:	10c00326 	beq	r2,r3,807ef8 <___vfiprintf_internal_r+0xf8>
  807eec:	a5000044 	addi	r20,r20,1
  807ef0:	a0800007 	ldb	r2,0(r20)
  807ef4:	103ffc1e 	bne	r2,zero,807ee8 <__alt_data_end+0xff807ee8>
  807ef8:	a5a1c83a 	sub	r16,r20,r22
  807efc:	80001026 	beq	r16,zero,807f40 <___vfiprintf_internal_r+0x140>
  807f00:	d8c01c17 	ldw	r3,112(sp)
  807f04:	d8801b17 	ldw	r2,108(sp)
  807f08:	45800015 	stw	r22,0(r8)
  807f0c:	80c7883a 	add	r3,r16,r3
  807f10:	10800044 	addi	r2,r2,1
  807f14:	44000115 	stw	r16,4(r8)
  807f18:	d8c01c15 	stw	r3,112(sp)
  807f1c:	d8801b15 	stw	r2,108(sp)
  807f20:	010001c4 	movi	r4,7
  807f24:	2080750e 	bge	r4,r2,8080fc <___vfiprintf_internal_r+0x2fc>
  807f28:	1803951e 	bne	r3,zero,808d80 <___vfiprintf_internal_r+0xf80>
  807f2c:	d8c02417 	ldw	r3,144(sp)
  807f30:	d8001b15 	stw	zero,108(sp)
  807f34:	d811883a 	mov	r8,sp
  807f38:	1c07883a 	add	r3,r3,r16
  807f3c:	d8c02415 	stw	r3,144(sp)
  807f40:	a0800007 	ldb	r2,0(r20)
  807f44:	1002e026 	beq	r2,zero,808ac8 <___vfiprintf_internal_r+0xcc8>
  807f48:	a5800044 	addi	r22,r20,1
  807f4c:	a0c00047 	ldb	r3,1(r20)
  807f50:	d8001d85 	stb	zero,118(sp)
  807f54:	0027883a 	mov	r19,zero
  807f58:	d8002305 	stb	zero,140(sp)
  807f5c:	043fffc4 	movi	r16,-1
  807f60:	d8002515 	stw	zero,148(sp)
  807f64:	0023883a 	mov	r17,zero
  807f68:	05001604 	movi	r20,88
  807f6c:	05400244 	movi	r21,9
  807f70:	402f883a 	mov	r23,r8
  807f74:	b5800044 	addi	r22,r22,1
  807f78:	18bff804 	addi	r2,r3,-32
  807f7c:	a0827736 	bltu	r20,r2,80895c <___vfiprintf_internal_r+0xb5c>
  807f80:	100490ba 	slli	r2,r2,2
  807f84:	01002034 	movhi	r4,128
  807f88:	211fe604 	addi	r4,r4,32664
  807f8c:	1105883a 	add	r2,r2,r4
  807f90:	10800017 	ldw	r2,0(r2)
  807f94:	1000683a 	jmp	r2
  807f98:	0080865c 	xori	r2,zero,537
  807f9c:	0080895c 	xori	r2,zero,549
  807fa0:	0080895c 	xori	r2,zero,549
  807fa4:	00808678 	rdprs	r2,zero,537
  807fa8:	0080895c 	xori	r2,zero,549
  807fac:	0080895c 	xori	r2,zero,549
  807fb0:	0080895c 	xori	r2,zero,549
  807fb4:	0080895c 	xori	r2,zero,549
  807fb8:	0080895c 	xori	r2,zero,549
  807fbc:	0080895c 	xori	r2,zero,549
  807fc0:	00808880 	call	80888 <__reset-0x77f778>
  807fc4:	008088a4 	muli	r2,zero,546
  807fc8:	0080895c 	xori	r2,zero,549
  807fcc:	0080819c 	xori	r2,zero,518
  807fd0:	008088b8 	rdprs	r2,zero,546
  807fd4:	0080895c 	xori	r2,zero,549
  807fd8:	00808684 	movi	r2,538
  807fdc:	00808690 	cmplti	r2,zero,538
  807fe0:	00808690 	cmplti	r2,zero,538
  807fe4:	00808690 	cmplti	r2,zero,538
  807fe8:	00808690 	cmplti	r2,zero,538
  807fec:	00808690 	cmplti	r2,zero,538
  807ff0:	00808690 	cmplti	r2,zero,538
  807ff4:	00808690 	cmplti	r2,zero,538
  807ff8:	00808690 	cmplti	r2,zero,538
  807ffc:	00808690 	cmplti	r2,zero,538
  808000:	0080895c 	xori	r2,zero,549
  808004:	0080895c 	xori	r2,zero,549
  808008:	0080895c 	xori	r2,zero,549
  80800c:	0080895c 	xori	r2,zero,549
  808010:	0080895c 	xori	r2,zero,549
  808014:	0080895c 	xori	r2,zero,549
  808018:	0080895c 	xori	r2,zero,549
  80801c:	0080895c 	xori	r2,zero,549
  808020:	0080895c 	xori	r2,zero,549
  808024:	0080895c 	xori	r2,zero,549
  808028:	008086d0 	cmplti	r2,zero,539
  80802c:	0080895c 	xori	r2,zero,549
  808030:	0080895c 	xori	r2,zero,549
  808034:	0080895c 	xori	r2,zero,549
  808038:	0080895c 	xori	r2,zero,549
  80803c:	0080895c 	xori	r2,zero,549
  808040:	0080895c 	xori	r2,zero,549
  808044:	0080895c 	xori	r2,zero,549
  808048:	0080895c 	xori	r2,zero,549
  80804c:	0080895c 	xori	r2,zero,549
  808050:	0080895c 	xori	r2,zero,549
  808054:	0080870c 	andi	r2,zero,540
  808058:	0080895c 	xori	r2,zero,549
  80805c:	0080895c 	xori	r2,zero,549
  808060:	0080895c 	xori	r2,zero,549
  808064:	0080895c 	xori	r2,zero,549
  808068:	0080895c 	xori	r2,zero,549
  80806c:	00808768 	cmpgeui	r2,zero,541
  808070:	0080895c 	xori	r2,zero,549
  808074:	0080895c 	xori	r2,zero,549
  808078:	008087dc 	xori	r2,zero,543
  80807c:	0080895c 	xori	r2,zero,549
  808080:	0080895c 	xori	r2,zero,549
  808084:	0080895c 	xori	r2,zero,549
  808088:	0080895c 	xori	r2,zero,549
  80808c:	0080895c 	xori	r2,zero,549
  808090:	0080895c 	xori	r2,zero,549
  808094:	0080895c 	xori	r2,zero,549
  808098:	0080895c 	xori	r2,zero,549
  80809c:	0080895c 	xori	r2,zero,549
  8080a0:	0080895c 	xori	r2,zero,549
  8080a4:	00808584 	movi	r2,534
  8080a8:	008085b4 	movhi	r2,534
  8080ac:	0080895c 	xori	r2,zero,549
  8080b0:	0080895c 	xori	r2,zero,549
  8080b4:	0080895c 	xori	r2,zero,549
  8080b8:	00808904 	movi	r2,548
  8080bc:	008085b4 	movhi	r2,534
  8080c0:	0080895c 	xori	r2,zero,549
  8080c4:	0080895c 	xori	r2,zero,549
  8080c8:	0080845c 	xori	r2,zero,529
  8080cc:	0080895c 	xori	r2,zero,549
  8080d0:	00808470 	cmpltui	r2,zero,529
  8080d4:	008084a8 	cmpgeui	r2,zero,530
  8080d8:	008081a8 	cmpgeui	r2,zero,518
  8080dc:	00808450 	cmplti	r2,zero,529
  8080e0:	0080895c 	xori	r2,zero,549
  8080e4:	0080881c 	xori	r2,zero,544
  8080e8:	0080895c 	xori	r2,zero,549
  8080ec:	00808868 	cmpgeui	r2,zero,545
  8080f0:	0080895c 	xori	r2,zero,549
  8080f4:	0080895c 	xori	r2,zero,549
  8080f8:	0080852c 	andhi	r2,zero,532
  8080fc:	42000204 	addi	r8,r8,8
  808100:	d8c02417 	ldw	r3,144(sp)
  808104:	1c07883a 	add	r3,r3,r16
  808108:	d8c02415 	stw	r3,144(sp)
  80810c:	003f8c06 	br	807f40 <__alt_data_end+0xff807f40>
  808110:	d9402017 	ldw	r5,128(sp)
  808114:	d9002117 	ldw	r4,132(sp)
  808118:	08034ac0 	call	8034ac <__swsetup_r>
  80811c:	1003c11e 	bne	r2,zero,809024 <___vfiprintf_internal_r+0x1224>
  808120:	d9402017 	ldw	r5,128(sp)
  808124:	00c00284 	movi	r3,10
  808128:	2880030b 	ldhu	r2,12(r5)
  80812c:	1080068c 	andi	r2,r2,26
  808130:	10ff581e 	bne	r2,r3,807e94 <__alt_data_end+0xff807e94>
  808134:	d8c02017 	ldw	r3,128(sp)
  808138:	1880038f 	ldh	r2,14(r3)
  80813c:	103f5516 	blt	r2,zero,807e94 <__alt_data_end+0xff807e94>
  808140:	d9c02217 	ldw	r7,136(sp)
  808144:	d9002117 	ldw	r4,132(sp)
  808148:	a80d883a 	mov	r6,r21
  80814c:	180b883a 	mov	r5,r3
  808150:	08093280 	call	809328 <__sbprintf>
  808154:	dfc03517 	ldw	ra,212(sp)
  808158:	df003417 	ldw	fp,208(sp)
  80815c:	ddc03317 	ldw	r23,204(sp)
  808160:	dd803217 	ldw	r22,200(sp)
  808164:	dd403117 	ldw	r21,196(sp)
  808168:	dd003017 	ldw	r20,192(sp)
  80816c:	dcc02f17 	ldw	r19,188(sp)
  808170:	dc802e17 	ldw	r18,184(sp)
  808174:	dc402d17 	ldw	r17,180(sp)
  808178:	dc002c17 	ldw	r16,176(sp)
  80817c:	dec03604 	addi	sp,sp,216
  808180:	f800283a 	ret
  808184:	08054b80 	call	8054b8 <__sinit>
  808188:	003f2f06 	br	807e48 <__alt_data_end+0xff807e48>
  80818c:	d8c02517 	ldw	r3,148(sp)
  808190:	d8802215 	stw	r2,136(sp)
  808194:	00c7c83a 	sub	r3,zero,r3
  808198:	d8c02515 	stw	r3,148(sp)
  80819c:	8c400114 	ori	r17,r17,4
  8081a0:	b0c00007 	ldb	r3,0(r22)
  8081a4:	003f7306 	br	807f74 <__alt_data_end+0xff807f74>
  8081a8:	00800c04 	movi	r2,48
  8081ac:	d9402217 	ldw	r5,136(sp)
  8081b0:	d8801d05 	stb	r2,116(sp)
  8081b4:	00801e04 	movi	r2,120
  8081b8:	d8801d45 	stb	r2,117(sp)
  8081bc:	d8001d85 	stb	zero,118(sp)
  8081c0:	b811883a 	mov	r8,r23
  8081c4:	28c00104 	addi	r3,r5,4
  8081c8:	2cc00017 	ldw	r19,0(r5)
  8081cc:	0029883a 	mov	r20,zero
  8081d0:	88800094 	ori	r2,r17,2
  8081d4:	80032516 	blt	r16,zero,808e6c <___vfiprintf_internal_r+0x106c>
  8081d8:	00bfdfc4 	movi	r2,-129
  8081dc:	88a2703a 	and	r17,r17,r2
  8081e0:	d8c02215 	stw	r3,136(sp)
  8081e4:	8c400094 	ori	r17,r17,2
  8081e8:	98032a1e 	bne	r19,zero,808e94 <___vfiprintf_internal_r+0x1094>
  8081ec:	00802074 	movhi	r2,129
  8081f0:	10802104 	addi	r2,r2,132
  8081f4:	d8802615 	stw	r2,152(sp)
  8081f8:	002b883a 	mov	r21,zero
  8081fc:	8001741e 	bne	r16,zero,8087d0 <___vfiprintf_internal_r+0x9d0>
  808200:	0021883a 	mov	r16,zero
  808204:	0029883a 	mov	r20,zero
  808208:	ddc01a04 	addi	r23,sp,104
  80820c:	8027883a 	mov	r19,r16
  808210:	8500010e 	bge	r16,r20,808218 <___vfiprintf_internal_r+0x418>
  808214:	a027883a 	mov	r19,r20
  808218:	ad403fcc 	andi	r21,r21,255
  80821c:	ad40201c 	xori	r21,r21,128
  808220:	ad7fe004 	addi	r21,r21,-128
  808224:	a8000126 	beq	r21,zero,80822c <___vfiprintf_internal_r+0x42c>
  808228:	9cc00044 	addi	r19,r19,1
  80822c:	89c0008c 	andi	r7,r17,2
  808230:	38000126 	beq	r7,zero,808238 <___vfiprintf_internal_r+0x438>
  808234:	9cc00084 	addi	r19,r19,2
  808238:	88c0210c 	andi	r3,r17,132
  80823c:	1801dd1e 	bne	r3,zero,8089b4 <___vfiprintf_internal_r+0xbb4>
  808240:	d9402517 	ldw	r5,148(sp)
  808244:	2cebc83a 	sub	r21,r5,r19
  808248:	0541da0e 	bge	zero,r21,8089b4 <___vfiprintf_internal_r+0xbb4>
  80824c:	07000404 	movi	fp,16
  808250:	d8801c17 	ldw	r2,112(sp)
  808254:	e543be0e 	bge	fp,r21,809150 <___vfiprintf_internal_r+0x1350>
  808258:	01402074 	movhi	r5,129
  80825c:	29408604 	addi	r5,r5,536
  808260:	dc002715 	stw	r16,156(sp)
  808264:	d9801b17 	ldw	r6,108(sp)
  808268:	a821883a 	mov	r16,r21
  80826c:	d9402315 	stw	r5,140(sp)
  808270:	028001c4 	movi	r10,7
  808274:	d9c02915 	stw	r7,164(sp)
  808278:	182b883a 	mov	r21,r3
  80827c:	00000506 	br	808294 <___vfiprintf_internal_r+0x494>
  808280:	31000084 	addi	r4,r6,2
  808284:	42000204 	addi	r8,r8,8
  808288:	180d883a 	mov	r6,r3
  80828c:	843ffc04 	addi	r16,r16,-16
  808290:	e4000f0e 	bge	fp,r16,8082d0 <___vfiprintf_internal_r+0x4d0>
  808294:	01002074 	movhi	r4,129
  808298:	10800404 	addi	r2,r2,16
  80829c:	30c00044 	addi	r3,r6,1
  8082a0:	21008604 	addi	r4,r4,536
  8082a4:	41000015 	stw	r4,0(r8)
  8082a8:	47000115 	stw	fp,4(r8)
  8082ac:	d8801c15 	stw	r2,112(sp)
  8082b0:	d8c01b15 	stw	r3,108(sp)
  8082b4:	50fff20e 	bge	r10,r3,808280 <__alt_data_end+0xff808280>
  8082b8:	1001b21e 	bne	r2,zero,808984 <___vfiprintf_internal_r+0xb84>
  8082bc:	843ffc04 	addi	r16,r16,-16
  8082c0:	000d883a 	mov	r6,zero
  8082c4:	01000044 	movi	r4,1
  8082c8:	d811883a 	mov	r8,sp
  8082cc:	e43ff116 	blt	fp,r16,808294 <__alt_data_end+0xff808294>
  8082d0:	a807883a 	mov	r3,r21
  8082d4:	d9c02917 	ldw	r7,164(sp)
  8082d8:	802b883a 	mov	r21,r16
  8082dc:	dc002717 	ldw	r16,156(sp)
  8082e0:	d9402317 	ldw	r5,140(sp)
  8082e4:	a885883a 	add	r2,r21,r2
  8082e8:	45400115 	stw	r21,4(r8)
  8082ec:	41400015 	stw	r5,0(r8)
  8082f0:	d8801c15 	stw	r2,112(sp)
  8082f4:	d9001b15 	stw	r4,108(sp)
  8082f8:	014001c4 	movi	r5,7
  8082fc:	29026216 	blt	r5,r4,808c88 <___vfiprintf_internal_r+0xe88>
  808300:	d9801d87 	ldb	r6,118(sp)
  808304:	42000204 	addi	r8,r8,8
  808308:	21400044 	addi	r5,r4,1
  80830c:	3001ae1e 	bne	r6,zero,8089c8 <___vfiprintf_internal_r+0xbc8>
  808310:	3801bb26 	beq	r7,zero,808a00 <___vfiprintf_internal_r+0xc00>
  808314:	d9001d04 	addi	r4,sp,116
  808318:	10800084 	addi	r2,r2,2
  80831c:	41000015 	stw	r4,0(r8)
  808320:	01000084 	movi	r4,2
  808324:	41000115 	stw	r4,4(r8)
  808328:	d8801c15 	stw	r2,112(sp)
  80832c:	d9401b15 	stw	r5,108(sp)
  808330:	010001c4 	movi	r4,7
  808334:	2142680e 	bge	r4,r5,808cd8 <___vfiprintf_internal_r+0xed8>
  808338:	1002b11e 	bne	r2,zero,808e00 <___vfiprintf_internal_r+0x1000>
  80833c:	01802004 	movi	r6,128
  808340:	01400044 	movi	r5,1
  808344:	0009883a 	mov	r4,zero
  808348:	d811883a 	mov	r8,sp
  80834c:	1981ae1e 	bne	r3,r6,808a08 <___vfiprintf_internal_r+0xc08>
  808350:	d8c02517 	ldw	r3,148(sp)
  808354:	1cf9c83a 	sub	fp,r3,r19
  808358:	0701ab0e 	bge	zero,fp,808a08 <___vfiprintf_internal_r+0xc08>
  80835c:	05400404 	movi	r21,16
  808360:	af03a90e 	bge	r21,fp,809208 <___vfiprintf_internal_r+0x1408>
  808364:	01402074 	movhi	r5,129
  808368:	29408204 	addi	r5,r5,520
  80836c:	d9402315 	stw	r5,140(sp)
  808370:	01c001c4 	movi	r7,7
  808374:	00000506 	br	80838c <___vfiprintf_internal_r+0x58c>
  808378:	21800084 	addi	r6,r4,2
  80837c:	42000204 	addi	r8,r8,8
  808380:	1809883a 	mov	r4,r3
  808384:	e73ffc04 	addi	fp,fp,-16
  808388:	af000d0e 	bge	r21,fp,8083c0 <___vfiprintf_internal_r+0x5c0>
  80838c:	10800404 	addi	r2,r2,16
  808390:	20c00044 	addi	r3,r4,1
  808394:	44800015 	stw	r18,0(r8)
  808398:	45400115 	stw	r21,4(r8)
  80839c:	d8801c15 	stw	r2,112(sp)
  8083a0:	d8c01b15 	stw	r3,108(sp)
  8083a4:	38fff40e 	bge	r7,r3,808378 <__alt_data_end+0xff808378>
  8083a8:	10022b1e 	bne	r2,zero,808c58 <___vfiprintf_internal_r+0xe58>
  8083ac:	e73ffc04 	addi	fp,fp,-16
  8083b0:	01800044 	movi	r6,1
  8083b4:	0009883a 	mov	r4,zero
  8083b8:	d811883a 	mov	r8,sp
  8083bc:	af3ff316 	blt	r21,fp,80838c <__alt_data_end+0xff80838c>
  8083c0:	d8c02317 	ldw	r3,140(sp)
  8083c4:	1705883a 	add	r2,r2,fp
  8083c8:	47000115 	stw	fp,4(r8)
  8083cc:	40c00015 	stw	r3,0(r8)
  8083d0:	d8801c15 	stw	r2,112(sp)
  8083d4:	d9801b15 	stw	r6,108(sp)
  8083d8:	00c001c4 	movi	r3,7
  8083dc:	19829416 	blt	r3,r6,808e30 <___vfiprintf_internal_r+0x1030>
  8083e0:	8521c83a 	sub	r16,r16,r20
  8083e4:	42000204 	addi	r8,r8,8
  8083e8:	31400044 	addi	r5,r6,1
  8083ec:	3009883a 	mov	r4,r6
  8083f0:	04018716 	blt	zero,r16,808a10 <___vfiprintf_internal_r+0xc10>
  8083f4:	a085883a 	add	r2,r20,r2
  8083f8:	45c00015 	stw	r23,0(r8)
  8083fc:	45000115 	stw	r20,4(r8)
  808400:	d8801c15 	stw	r2,112(sp)
  808404:	d9401b15 	stw	r5,108(sp)
  808408:	00c001c4 	movi	r3,7
  80840c:	1941c20e 	bge	r3,r5,808b18 <___vfiprintf_internal_r+0xd18>
  808410:	1002531e 	bne	r2,zero,808d60 <___vfiprintf_internal_r+0xf60>
  808414:	d8001b15 	stw	zero,108(sp)
  808418:	8c40010c 	andi	r17,r17,4
  80841c:	88023226 	beq	r17,zero,808ce8 <___vfiprintf_internal_r+0xee8>
  808420:	d9002517 	ldw	r4,148(sp)
  808424:	24e3c83a 	sub	r17,r4,r19
  808428:	04432916 	blt	zero,r17,8090d0 <___vfiprintf_internal_r+0x12d0>
  80842c:	d8802517 	ldw	r2,148(sp)
  808430:	14c0010e 	bge	r2,r19,808438 <___vfiprintf_internal_r+0x638>
  808434:	9805883a 	mov	r2,r19
  808438:	d8c02417 	ldw	r3,144(sp)
  80843c:	1887883a 	add	r3,r3,r2
  808440:	d8c02415 	stw	r3,144(sp)
  808444:	d8001b15 	stw	zero,108(sp)
  808448:	d811883a 	mov	r8,sp
  80844c:	003ea006 	br	807ed0 <__alt_data_end+0xff807ed0>
  808450:	8c400814 	ori	r17,r17,32
  808454:	b0c00007 	ldb	r3,0(r22)
  808458:	003ec606 	br	807f74 <__alt_data_end+0xff807f74>
  80845c:	b0c00007 	ldb	r3,0(r22)
  808460:	00801b04 	movi	r2,108
  808464:	18832026 	beq	r3,r2,8090e8 <___vfiprintf_internal_r+0x12e8>
  808468:	8c400414 	ori	r17,r17,16
  80846c:	003ec106 	br	807f74 <__alt_data_end+0xff807f74>
  808470:	9cc03fcc 	andi	r19,r19,255
  808474:	b811883a 	mov	r8,r23
  808478:	9803981e 	bne	r19,zero,8092dc <___vfiprintf_internal_r+0x14dc>
  80847c:	8880080c 	andi	r2,r17,32
  808480:	1002be26 	beq	r2,zero,808f7c <___vfiprintf_internal_r+0x117c>
  808484:	d9002217 	ldw	r4,136(sp)
  808488:	d9402417 	ldw	r5,144(sp)
  80848c:	20800017 	ldw	r2,0(r4)
  808490:	2807d7fa 	srai	r3,r5,31
  808494:	21000104 	addi	r4,r4,4
  808498:	d9002215 	stw	r4,136(sp)
  80849c:	11400015 	stw	r5,0(r2)
  8084a0:	10c00115 	stw	r3,4(r2)
  8084a4:	003e8a06 	br	807ed0 <__alt_data_end+0xff807ed0>
  8084a8:	9cc03fcc 	andi	r19,r19,255
  8084ac:	b811883a 	mov	r8,r23
  8084b0:	9803871e 	bne	r19,zero,8092d0 <___vfiprintf_internal_r+0x14d0>
  8084b4:	8880080c 	andi	r2,r17,32
  8084b8:	10009a26 	beq	r2,zero,808724 <___vfiprintf_internal_r+0x924>
  8084bc:	d9002217 	ldw	r4,136(sp)
  8084c0:	d8001d85 	stb	zero,118(sp)
  8084c4:	20800204 	addi	r2,r4,8
  8084c8:	24c00017 	ldw	r19,0(r4)
  8084cc:	25000117 	ldw	r20,4(r4)
  8084d0:	8002a416 	blt	r16,zero,808f64 <___vfiprintf_internal_r+0x1164>
  8084d4:	013fdfc4 	movi	r4,-129
  8084d8:	9d06b03a 	or	r3,r19,r20
  8084dc:	d8802215 	stw	r2,136(sp)
  8084e0:	8922703a 	and	r17,r17,r4
  8084e4:	18009b26 	beq	r3,zero,808754 <___vfiprintf_internal_r+0x954>
  8084e8:	002b883a 	mov	r21,zero
  8084ec:	ddc01a04 	addi	r23,sp,104
  8084f0:	9806d0fa 	srli	r3,r19,3
  8084f4:	a008977a 	slli	r4,r20,29
  8084f8:	a028d0fa 	srli	r20,r20,3
  8084fc:	9cc001cc 	andi	r19,r19,7
  808500:	98800c04 	addi	r2,r19,48
  808504:	bdffffc4 	addi	r23,r23,-1
  808508:	20e6b03a 	or	r19,r4,r3
  80850c:	b8800005 	stb	r2,0(r23)
  808510:	9d06b03a 	or	r3,r19,r20
  808514:	183ff61e 	bne	r3,zero,8084f0 <__alt_data_end+0xff8084f0>
  808518:	88c0004c 	andi	r3,r17,1
  80851c:	18021f1e 	bne	r3,zero,808d9c <___vfiprintf_internal_r+0xf9c>
  808520:	d9401e17 	ldw	r5,120(sp)
  808524:	2de9c83a 	sub	r20,r5,r23
  808528:	003f3806 	br	80820c <__alt_data_end+0xff80820c>
  80852c:	9cc03fcc 	andi	r19,r19,255
  808530:	b811883a 	mov	r8,r23
  808534:	98034f1e 	bne	r19,zero,809274 <___vfiprintf_internal_r+0x1474>
  808538:	00802074 	movhi	r2,129
  80853c:	10802104 	addi	r2,r2,132
  808540:	d8802615 	stw	r2,152(sp)
  808544:	8880080c 	andi	r2,r17,32
  808548:	1000ac26 	beq	r2,zero,8087fc <___vfiprintf_internal_r+0x9fc>
  80854c:	d9002217 	ldw	r4,136(sp)
  808550:	24c00017 	ldw	r19,0(r4)
  808554:	25000117 	ldw	r20,4(r4)
  808558:	21000204 	addi	r4,r4,8
  80855c:	d9002215 	stw	r4,136(sp)
  808560:	8880004c 	andi	r2,r17,1
  808564:	1001e726 	beq	r2,zero,808d04 <___vfiprintf_internal_r+0xf04>
  808568:	9d04b03a 	or	r2,r19,r20
  80856c:	10025c1e 	bne	r2,zero,808ee0 <___vfiprintf_internal_r+0x10e0>
  808570:	d8001d85 	stb	zero,118(sp)
  808574:	80024416 	blt	r16,zero,808e88 <___vfiprintf_internal_r+0x1088>
  808578:	00bfdfc4 	movi	r2,-129
  80857c:	88a2703a 	and	r17,r17,r2
  808580:	003f1d06 	br	8081f8 <__alt_data_end+0xff8081f8>
  808584:	d8c02217 	ldw	r3,136(sp)
  808588:	04c00044 	movi	r19,1
  80858c:	b811883a 	mov	r8,r23
  808590:	18800017 	ldw	r2,0(r3)
  808594:	18c00104 	addi	r3,r3,4
  808598:	d8001d85 	stb	zero,118(sp)
  80859c:	d8801005 	stb	r2,64(sp)
  8085a0:	d8c02215 	stw	r3,136(sp)
  8085a4:	9829883a 	mov	r20,r19
  8085a8:	ddc01004 	addi	r23,sp,64
  8085ac:	0021883a 	mov	r16,zero
  8085b0:	003f1e06 	br	80822c <__alt_data_end+0xff80822c>
  8085b4:	9cc03fcc 	andi	r19,r19,255
  8085b8:	b811883a 	mov	r8,r23
  8085bc:	9803331e 	bne	r19,zero,80928c <___vfiprintf_internal_r+0x148c>
  8085c0:	8880080c 	andi	r2,r17,32
  8085c4:	10004826 	beq	r2,zero,8086e8 <___vfiprintf_internal_r+0x8e8>
  8085c8:	d9002217 	ldw	r4,136(sp)
  8085cc:	20800117 	ldw	r2,4(r4)
  8085d0:	24c00017 	ldw	r19,0(r4)
  8085d4:	21000204 	addi	r4,r4,8
  8085d8:	d9002215 	stw	r4,136(sp)
  8085dc:	1029883a 	mov	r20,r2
  8085e0:	10024c16 	blt	r2,zero,808f14 <___vfiprintf_internal_r+0x1114>
  8085e4:	dd401d83 	ldbu	r21,118(sp)
  8085e8:	80007116 	blt	r16,zero,8087b0 <___vfiprintf_internal_r+0x9b0>
  8085ec:	00ffdfc4 	movi	r3,-129
  8085f0:	9d04b03a 	or	r2,r19,r20
  8085f4:	88e2703a 	and	r17,r17,r3
  8085f8:	1000d126 	beq	r2,zero,808940 <___vfiprintf_internal_r+0xb40>
  8085fc:	a0023526 	beq	r20,zero,808ed4 <___vfiprintf_internal_r+0x10d4>
  808600:	ddc01a04 	addi	r23,sp,104
  808604:	4039883a 	mov	fp,r8
  808608:	9809883a 	mov	r4,r19
  80860c:	a00b883a 	mov	r5,r20
  808610:	01800284 	movi	r6,10
  808614:	000f883a 	mov	r7,zero
  808618:	080aeb40 	call	80aeb4 <__umoddi3>
  80861c:	10800c04 	addi	r2,r2,48
  808620:	bdffffc4 	addi	r23,r23,-1
  808624:	9809883a 	mov	r4,r19
  808628:	a00b883a 	mov	r5,r20
  80862c:	b8800005 	stb	r2,0(r23)
  808630:	01800284 	movi	r6,10
  808634:	000f883a 	mov	r7,zero
  808638:	080a8b80 	call	80a8b8 <__udivdi3>
  80863c:	1027883a 	mov	r19,r2
  808640:	10c4b03a 	or	r2,r2,r3
  808644:	1829883a 	mov	r20,r3
  808648:	103fef1e 	bne	r2,zero,808608 <__alt_data_end+0xff808608>
  80864c:	d9001e17 	ldw	r4,120(sp)
  808650:	e011883a 	mov	r8,fp
  808654:	25e9c83a 	sub	r20,r4,r23
  808658:	003eec06 	br	80820c <__alt_data_end+0xff80820c>
  80865c:	d8802307 	ldb	r2,140(sp)
  808660:	1002361e 	bne	r2,zero,808f3c <___vfiprintf_internal_r+0x113c>
  808664:	00c00804 	movi	r3,32
  808668:	d8c02305 	stb	r3,140(sp)
  80866c:	04c00044 	movi	r19,1
  808670:	b0c00007 	ldb	r3,0(r22)
  808674:	003e3f06 	br	807f74 <__alt_data_end+0xff807f74>
  808678:	8c400054 	ori	r17,r17,1
  80867c:	b0c00007 	ldb	r3,0(r22)
  808680:	003e3c06 	br	807f74 <__alt_data_end+0xff807f74>
  808684:	8c402014 	ori	r17,r17,128
  808688:	b0c00007 	ldb	r3,0(r22)
  80868c:	003e3906 	br	807f74 <__alt_data_end+0xff807f74>
  808690:	dc002715 	stw	r16,156(sp)
  808694:	d8002515 	stw	zero,148(sp)
  808698:	1f3ff404 	addi	fp,r3,-48
  80869c:	0009883a 	mov	r4,zero
  8086a0:	b021883a 	mov	r16,r22
  8086a4:	01400284 	movi	r5,10
  8086a8:	08005640 	call	800564 <__mulsi3>
  8086ac:	80c00007 	ldb	r3,0(r16)
  8086b0:	e089883a 	add	r4,fp,r2
  8086b4:	b5800044 	addi	r22,r22,1
  8086b8:	1f3ff404 	addi	fp,r3,-48
  8086bc:	b021883a 	mov	r16,r22
  8086c0:	af3ff82e 	bgeu	r21,fp,8086a4 <__alt_data_end+0xff8086a4>
  8086c4:	d9002515 	stw	r4,148(sp)
  8086c8:	dc002717 	ldw	r16,156(sp)
  8086cc:	003e2a06 	br	807f78 <__alt_data_end+0xff807f78>
  8086d0:	9cc03fcc 	andi	r19,r19,255
  8086d4:	b811883a 	mov	r8,r23
  8086d8:	9802e91e 	bne	r19,zero,809280 <___vfiprintf_internal_r+0x1480>
  8086dc:	8c400414 	ori	r17,r17,16
  8086e0:	8880080c 	andi	r2,r17,32
  8086e4:	103fb81e 	bne	r2,zero,8085c8 <__alt_data_end+0xff8085c8>
  8086e8:	8880040c 	andi	r2,r17,16
  8086ec:	10022e26 	beq	r2,zero,808fa8 <___vfiprintf_internal_r+0x11a8>
  8086f0:	d9402217 	ldw	r5,136(sp)
  8086f4:	2cc00017 	ldw	r19,0(r5)
  8086f8:	29400104 	addi	r5,r5,4
  8086fc:	d9402215 	stw	r5,136(sp)
  808700:	9829d7fa 	srai	r20,r19,31
  808704:	a005883a 	mov	r2,r20
  808708:	003fb506 	br	8085e0 <__alt_data_end+0xff8085e0>
  80870c:	9cc03fcc 	andi	r19,r19,255
  808710:	b811883a 	mov	r8,r23
  808714:	9802fa1e 	bne	r19,zero,809300 <___vfiprintf_internal_r+0x1500>
  808718:	8c400414 	ori	r17,r17,16
  80871c:	8880080c 	andi	r2,r17,32
  808720:	103f661e 	bne	r2,zero,8084bc <__alt_data_end+0xff8084bc>
  808724:	8880040c 	andi	r2,r17,16
  808728:	10020626 	beq	r2,zero,808f44 <___vfiprintf_internal_r+0x1144>
  80872c:	d9402217 	ldw	r5,136(sp)
  808730:	d8001d85 	stb	zero,118(sp)
  808734:	0029883a 	mov	r20,zero
  808738:	28800104 	addi	r2,r5,4
  80873c:	2cc00017 	ldw	r19,0(r5)
  808740:	80020816 	blt	r16,zero,808f64 <___vfiprintf_internal_r+0x1164>
  808744:	00ffdfc4 	movi	r3,-129
  808748:	d8802215 	stw	r2,136(sp)
  80874c:	88e2703a 	and	r17,r17,r3
  808750:	983f651e 	bne	r19,zero,8084e8 <__alt_data_end+0xff8084e8>
  808754:	002b883a 	mov	r21,zero
  808758:	8002cf26 	beq	r16,zero,809298 <___vfiprintf_internal_r+0x1498>
  80875c:	0027883a 	mov	r19,zero
  808760:	0029883a 	mov	r20,zero
  808764:	003f6106 	br	8084ec <__alt_data_end+0xff8084ec>
  808768:	9cc03fcc 	andi	r19,r19,255
  80876c:	b811883a 	mov	r8,r23
  808770:	9802e01e 	bne	r19,zero,8092f4 <___vfiprintf_internal_r+0x14f4>
  808774:	8c400414 	ori	r17,r17,16
  808778:	8880080c 	andi	r2,r17,32
  80877c:	1000641e 	bne	r2,zero,808910 <___vfiprintf_internal_r+0xb10>
  808780:	8880040c 	andi	r2,r17,16
  808784:	1001c81e 	bne	r2,zero,808ea8 <___vfiprintf_internal_r+0x10a8>
  808788:	8880100c 	andi	r2,r17,64
  80878c:	d8001d85 	stb	zero,118(sp)
  808790:	1002281e 	bne	r2,zero,809034 <___vfiprintf_internal_r+0x1234>
  808794:	d9002217 	ldw	r4,136(sp)
  808798:	0029883a 	mov	r20,zero
  80879c:	20800104 	addi	r2,r4,4
  8087a0:	24c00017 	ldw	r19,0(r4)
  8087a4:	8001c60e 	bge	r16,zero,808ec0 <___vfiprintf_internal_r+0x10c0>
  8087a8:	d8802215 	stw	r2,136(sp)
  8087ac:	002b883a 	mov	r21,zero
  8087b0:	9d04b03a 	or	r2,r19,r20
  8087b4:	103f911e 	bne	r2,zero,8085fc <__alt_data_end+0xff8085fc>
  8087b8:	00800044 	movi	r2,1
  8087bc:	10803fcc 	andi	r2,r2,255
  8087c0:	00c00044 	movi	r3,1
  8087c4:	10c05f26 	beq	r2,r3,808944 <___vfiprintf_internal_r+0xb44>
  8087c8:	00c00084 	movi	r3,2
  8087cc:	10ffe31e 	bne	r2,r3,80875c <__alt_data_end+0xff80875c>
  8087d0:	0027883a 	mov	r19,zero
  8087d4:	0029883a 	mov	r20,zero
  8087d8:	00015106 	br	808d20 <___vfiprintf_internal_r+0xf20>
  8087dc:	9cc03fcc 	andi	r19,r19,255
  8087e0:	b811883a 	mov	r8,r23
  8087e4:	9802c01e 	bne	r19,zero,8092e8 <___vfiprintf_internal_r+0x14e8>
  8087e8:	01402074 	movhi	r5,129
  8087ec:	29401c04 	addi	r5,r5,112
  8087f0:	d9402615 	stw	r5,152(sp)
  8087f4:	8880080c 	andi	r2,r17,32
  8087f8:	103f541e 	bne	r2,zero,80854c <__alt_data_end+0xff80854c>
  8087fc:	8880040c 	andi	r2,r17,16
  808800:	1001f226 	beq	r2,zero,808fcc <___vfiprintf_internal_r+0x11cc>
  808804:	d9402217 	ldw	r5,136(sp)
  808808:	0029883a 	mov	r20,zero
  80880c:	2cc00017 	ldw	r19,0(r5)
  808810:	29400104 	addi	r5,r5,4
  808814:	d9402215 	stw	r5,136(sp)
  808818:	003f5106 	br	808560 <__alt_data_end+0xff808560>
  80881c:	d8c02217 	ldw	r3,136(sp)
  808820:	b811883a 	mov	r8,r23
  808824:	d8001d85 	stb	zero,118(sp)
  808828:	1dc00017 	ldw	r23,0(r3)
  80882c:	1f000104 	addi	fp,r3,4
  808830:	b8025926 	beq	r23,zero,809198 <___vfiprintf_internal_r+0x1398>
  808834:	80023316 	blt	r16,zero,809104 <___vfiprintf_internal_r+0x1304>
  808838:	800d883a 	mov	r6,r16
  80883c:	000b883a 	mov	r5,zero
  808840:	b809883a 	mov	r4,r23
  808844:	da002a15 	stw	r8,168(sp)
  808848:	08065680 	call	806568 <memchr>
  80884c:	da002a17 	ldw	r8,168(sp)
  808850:	10026826 	beq	r2,zero,8091f4 <___vfiprintf_internal_r+0x13f4>
  808854:	15e9c83a 	sub	r20,r2,r23
  808858:	dd401d83 	ldbu	r21,118(sp)
  80885c:	df002215 	stw	fp,136(sp)
  808860:	0021883a 	mov	r16,zero
  808864:	003e6906 	br	80820c <__alt_data_end+0xff80820c>
  808868:	9cc03fcc 	andi	r19,r19,255
  80886c:	b811883a 	mov	r8,r23
  808870:	983fc126 	beq	r19,zero,808778 <__alt_data_end+0xff808778>
  808874:	d8c02303 	ldbu	r3,140(sp)
  808878:	d8c01d85 	stb	r3,118(sp)
  80887c:	003fbe06 	br	808778 <__alt_data_end+0xff808778>
  808880:	d9002217 	ldw	r4,136(sp)
  808884:	d9402217 	ldw	r5,136(sp)
  808888:	21000017 	ldw	r4,0(r4)
  80888c:	28800104 	addi	r2,r5,4
  808890:	d9002515 	stw	r4,148(sp)
  808894:	203e3d16 	blt	r4,zero,80818c <__alt_data_end+0xff80818c>
  808898:	d8802215 	stw	r2,136(sp)
  80889c:	b0c00007 	ldb	r3,0(r22)
  8088a0:	003db406 	br	807f74 <__alt_data_end+0xff807f74>
  8088a4:	00c00ac4 	movi	r3,43
  8088a8:	d8c02305 	stb	r3,140(sp)
  8088ac:	04c00044 	movi	r19,1
  8088b0:	b0c00007 	ldb	r3,0(r22)
  8088b4:	003daf06 	br	807f74 <__alt_data_end+0xff807f74>
  8088b8:	b0c00007 	ldb	r3,0(r22)
  8088bc:	01000a84 	movi	r4,42
  8088c0:	b4000044 	addi	r16,r22,1
  8088c4:	19025e26 	beq	r3,r4,809240 <___vfiprintf_internal_r+0x1440>
  8088c8:	1f3ff404 	addi	fp,r3,-48
  8088cc:	0009883a 	mov	r4,zero
  8088d0:	af025236 	bltu	r21,fp,80921c <___vfiprintf_internal_r+0x141c>
  8088d4:	01400284 	movi	r5,10
  8088d8:	08005640 	call	800564 <__mulsi3>
  8088dc:	80c00007 	ldb	r3,0(r16)
  8088e0:	1709883a 	add	r4,r2,fp
  8088e4:	85800044 	addi	r22,r16,1
  8088e8:	1f3ff404 	addi	fp,r3,-48
  8088ec:	b021883a 	mov	r16,r22
  8088f0:	af3ff82e 	bgeu	r21,fp,8088d4 <__alt_data_end+0xff8088d4>
  8088f4:	2021883a 	mov	r16,r4
  8088f8:	203d9f0e 	bge	r4,zero,807f78 <__alt_data_end+0xff807f78>
  8088fc:	043fffc4 	movi	r16,-1
  808900:	003d9d06 	br	807f78 <__alt_data_end+0xff807f78>
  808904:	8c401014 	ori	r17,r17,64
  808908:	b0c00007 	ldb	r3,0(r22)
  80890c:	003d9906 	br	807f74 <__alt_data_end+0xff807f74>
  808910:	d9002217 	ldw	r4,136(sp)
  808914:	d8001d85 	stb	zero,118(sp)
  808918:	20c00204 	addi	r3,r4,8
  80891c:	24c00017 	ldw	r19,0(r4)
  808920:	25000117 	ldw	r20,4(r4)
  808924:	8001e716 	blt	r16,zero,8090c4 <___vfiprintf_internal_r+0x12c4>
  808928:	013fdfc4 	movi	r4,-129
  80892c:	9d04b03a 	or	r2,r19,r20
  808930:	d8c02215 	stw	r3,136(sp)
  808934:	8922703a 	and	r17,r17,r4
  808938:	002b883a 	mov	r21,zero
  80893c:	103f2f1e 	bne	r2,zero,8085fc <__alt_data_end+0xff8085fc>
  808940:	803e2f26 	beq	r16,zero,808200 <__alt_data_end+0xff808200>
  808944:	0027883a 	mov	r19,zero
  808948:	9cc00c04 	addi	r19,r19,48
  80894c:	dcc019c5 	stb	r19,103(sp)
  808950:	dd002817 	ldw	r20,160(sp)
  808954:	ddc019c4 	addi	r23,sp,103
  808958:	003e2c06 	br	80820c <__alt_data_end+0xff80820c>
  80895c:	9cc03fcc 	andi	r19,r19,255
  808960:	b811883a 	mov	r8,r23
  808964:	9802571e 	bne	r19,zero,8092c4 <___vfiprintf_internal_r+0x14c4>
  808968:	18005726 	beq	r3,zero,808ac8 <___vfiprintf_internal_r+0xcc8>
  80896c:	04c00044 	movi	r19,1
  808970:	d8c01005 	stb	r3,64(sp)
  808974:	d8001d85 	stb	zero,118(sp)
  808978:	9829883a 	mov	r20,r19
  80897c:	ddc01004 	addi	r23,sp,64
  808980:	003f0a06 	br	8085ac <__alt_data_end+0xff8085ac>
  808984:	d9402017 	ldw	r5,128(sp)
  808988:	d9002117 	ldw	r4,132(sp)
  80898c:	d9801a04 	addi	r6,sp,104
  808990:	da802a15 	stw	r10,168(sp)
  808994:	0807cec0 	call	807cec <__sprint_r.part.0>
  808998:	da802a17 	ldw	r10,168(sp)
  80899c:	1000501e 	bne	r2,zero,808ae0 <___vfiprintf_internal_r+0xce0>
  8089a0:	d9801b17 	ldw	r6,108(sp)
  8089a4:	d8801c17 	ldw	r2,112(sp)
  8089a8:	d811883a 	mov	r8,sp
  8089ac:	31000044 	addi	r4,r6,1
  8089b0:	003e3606 	br	80828c <__alt_data_end+0xff80828c>
  8089b4:	d9001b17 	ldw	r4,108(sp)
  8089b8:	d8801c17 	ldw	r2,112(sp)
  8089bc:	21400044 	addi	r5,r4,1
  8089c0:	d9801d87 	ldb	r6,118(sp)
  8089c4:	303e5226 	beq	r6,zero,808310 <__alt_data_end+0xff808310>
  8089c8:	01800044 	movi	r6,1
  8089cc:	d9001d84 	addi	r4,sp,118
  8089d0:	1185883a 	add	r2,r2,r6
  8089d4:	41000015 	stw	r4,0(r8)
  8089d8:	41800115 	stw	r6,4(r8)
  8089dc:	d8801c15 	stw	r2,112(sp)
  8089e0:	d9401b15 	stw	r5,108(sp)
  8089e4:	010001c4 	movi	r4,7
  8089e8:	2140b00e 	bge	r4,r5,808cac <___vfiprintf_internal_r+0xeac>
  8089ec:	1000f61e 	bne	r2,zero,808dc8 <___vfiprintf_internal_r+0xfc8>
  8089f0:	3800b31e 	bne	r7,zero,808cc0 <___vfiprintf_internal_r+0xec0>
  8089f4:	0009883a 	mov	r4,zero
  8089f8:	300b883a 	mov	r5,r6
  8089fc:	d811883a 	mov	r8,sp
  808a00:	01802004 	movi	r6,128
  808a04:	19be5226 	beq	r3,r6,808350 <__alt_data_end+0xff808350>
  808a08:	8521c83a 	sub	r16,r16,r20
  808a0c:	043e790e 	bge	zero,r16,8083f4 <__alt_data_end+0xff8083f4>
  808a10:	05400404 	movi	r21,16
  808a14:	ac01b00e 	bge	r21,r16,8090d8 <___vfiprintf_internal_r+0x12d8>
  808a18:	01402074 	movhi	r5,129
  808a1c:	29408204 	addi	r5,r5,520
  808a20:	d9402315 	stw	r5,140(sp)
  808a24:	070001c4 	movi	fp,7
  808a28:	00000506 	br	808a40 <___vfiprintf_internal_r+0xc40>
  808a2c:	21400084 	addi	r5,r4,2
  808a30:	42000204 	addi	r8,r8,8
  808a34:	1809883a 	mov	r4,r3
  808a38:	843ffc04 	addi	r16,r16,-16
  808a3c:	ac000d0e 	bge	r21,r16,808a74 <___vfiprintf_internal_r+0xc74>
  808a40:	10800404 	addi	r2,r2,16
  808a44:	20c00044 	addi	r3,r4,1
  808a48:	44800015 	stw	r18,0(r8)
  808a4c:	45400115 	stw	r21,4(r8)
  808a50:	d8801c15 	stw	r2,112(sp)
  808a54:	d8c01b15 	stw	r3,108(sp)
  808a58:	e0fff40e 	bge	fp,r3,808a2c <__alt_data_end+0xff808a2c>
  808a5c:	1000101e 	bne	r2,zero,808aa0 <___vfiprintf_internal_r+0xca0>
  808a60:	843ffc04 	addi	r16,r16,-16
  808a64:	01400044 	movi	r5,1
  808a68:	0009883a 	mov	r4,zero
  808a6c:	d811883a 	mov	r8,sp
  808a70:	ac3ff316 	blt	r21,r16,808a40 <__alt_data_end+0xff808a40>
  808a74:	d8c02317 	ldw	r3,140(sp)
  808a78:	1405883a 	add	r2,r2,r16
  808a7c:	44000115 	stw	r16,4(r8)
  808a80:	40c00015 	stw	r3,0(r8)
  808a84:	d8801c15 	stw	r2,112(sp)
  808a88:	d9401b15 	stw	r5,108(sp)
  808a8c:	00c001c4 	movi	r3,7
  808a90:	19401916 	blt	r3,r5,808af8 <___vfiprintf_internal_r+0xcf8>
  808a94:	42000204 	addi	r8,r8,8
  808a98:	29400044 	addi	r5,r5,1
  808a9c:	003e5506 	br	8083f4 <__alt_data_end+0xff8083f4>
  808aa0:	d9402017 	ldw	r5,128(sp)
  808aa4:	d9002117 	ldw	r4,132(sp)
  808aa8:	d9801a04 	addi	r6,sp,104
  808aac:	0807cec0 	call	807cec <__sprint_r.part.0>
  808ab0:	10000b1e 	bne	r2,zero,808ae0 <___vfiprintf_internal_r+0xce0>
  808ab4:	d9001b17 	ldw	r4,108(sp)
  808ab8:	d8801c17 	ldw	r2,112(sp)
  808abc:	d811883a 	mov	r8,sp
  808ac0:	21400044 	addi	r5,r4,1
  808ac4:	003fdc06 	br	808a38 <__alt_data_end+0xff808a38>
  808ac8:	d8801c17 	ldw	r2,112(sp)
  808acc:	10000426 	beq	r2,zero,808ae0 <___vfiprintf_internal_r+0xce0>
  808ad0:	d9402017 	ldw	r5,128(sp)
  808ad4:	d9002117 	ldw	r4,132(sp)
  808ad8:	d9801a04 	addi	r6,sp,104
  808adc:	0807cec0 	call	807cec <__sprint_r.part.0>
  808ae0:	d9402017 	ldw	r5,128(sp)
  808ae4:	2880030b 	ldhu	r2,12(r5)
  808ae8:	1080100c 	andi	r2,r2,64
  808aec:	10014d1e 	bne	r2,zero,809024 <___vfiprintf_internal_r+0x1224>
  808af0:	d8802417 	ldw	r2,144(sp)
  808af4:	003d9706 	br	808154 <__alt_data_end+0xff808154>
  808af8:	1000d21e 	bne	r2,zero,808e44 <___vfiprintf_internal_r+0x1044>
  808afc:	00c00044 	movi	r3,1
  808b00:	a005883a 	mov	r2,r20
  808b04:	ddc00015 	stw	r23,0(sp)
  808b08:	dd000115 	stw	r20,4(sp)
  808b0c:	dd001c15 	stw	r20,112(sp)
  808b10:	d8c01b15 	stw	r3,108(sp)
  808b14:	d811883a 	mov	r8,sp
  808b18:	42000204 	addi	r8,r8,8
  808b1c:	8c40010c 	andi	r17,r17,4
  808b20:	88004026 	beq	r17,zero,808c24 <___vfiprintf_internal_r+0xe24>
  808b24:	d9002517 	ldw	r4,148(sp)
  808b28:	24e3c83a 	sub	r17,r4,r19
  808b2c:	04403d0e 	bge	zero,r17,808c24 <___vfiprintf_internal_r+0xe24>
  808b30:	04000404 	movi	r16,16
  808b34:	8441a90e 	bge	r16,r17,8091dc <___vfiprintf_internal_r+0x13dc>
  808b38:	00c02074 	movhi	r3,129
  808b3c:	18c08604 	addi	r3,r3,536
  808b40:	d9001b17 	ldw	r4,108(sp)
  808b44:	d8c02315 	stw	r3,140(sp)
  808b48:	050001c4 	movi	r20,7
  808b4c:	dd402117 	ldw	r21,132(sp)
  808b50:	ddc02017 	ldw	r23,128(sp)
  808b54:	00000506 	br	808b6c <___vfiprintf_internal_r+0xd6c>
  808b58:	21400084 	addi	r5,r4,2
  808b5c:	42000204 	addi	r8,r8,8
  808b60:	1809883a 	mov	r4,r3
  808b64:	8c7ffc04 	addi	r17,r17,-16
  808b68:	84400f0e 	bge	r16,r17,808ba8 <___vfiprintf_internal_r+0xda8>
  808b6c:	01402074 	movhi	r5,129
  808b70:	10800404 	addi	r2,r2,16
  808b74:	20c00044 	addi	r3,r4,1
  808b78:	29408604 	addi	r5,r5,536
  808b7c:	41400015 	stw	r5,0(r8)
  808b80:	44000115 	stw	r16,4(r8)
  808b84:	d8801c15 	stw	r2,112(sp)
  808b88:	d8c01b15 	stw	r3,108(sp)
  808b8c:	a0fff20e 	bge	r20,r3,808b58 <__alt_data_end+0xff808b58>
  808b90:	1000141e 	bne	r2,zero,808be4 <___vfiprintf_internal_r+0xde4>
  808b94:	8c7ffc04 	addi	r17,r17,-16
  808b98:	01400044 	movi	r5,1
  808b9c:	0009883a 	mov	r4,zero
  808ba0:	d811883a 	mov	r8,sp
  808ba4:	847ff116 	blt	r16,r17,808b6c <__alt_data_end+0xff808b6c>
  808ba8:	d8c02317 	ldw	r3,140(sp)
  808bac:	1445883a 	add	r2,r2,r17
  808bb0:	44400115 	stw	r17,4(r8)
  808bb4:	40c00015 	stw	r3,0(r8)
  808bb8:	d8801c15 	stw	r2,112(sp)
  808bbc:	d9401b15 	stw	r5,108(sp)
  808bc0:	00c001c4 	movi	r3,7
  808bc4:	1940170e 	bge	r3,r5,808c24 <___vfiprintf_internal_r+0xe24>
  808bc8:	1000101e 	bne	r2,zero,808c0c <___vfiprintf_internal_r+0xe0c>
  808bcc:	d8802517 	ldw	r2,148(sp)
  808bd0:	14c11616 	blt	r2,r19,80902c <___vfiprintf_internal_r+0x122c>
  808bd4:	d9002417 	ldw	r4,144(sp)
  808bd8:	2089883a 	add	r4,r4,r2
  808bdc:	d9002415 	stw	r4,144(sp)
  808be0:	003e1806 	br	808444 <__alt_data_end+0xff808444>
  808be4:	d9801a04 	addi	r6,sp,104
  808be8:	b80b883a 	mov	r5,r23
  808bec:	a809883a 	mov	r4,r21
  808bf0:	0807cec0 	call	807cec <__sprint_r.part.0>
  808bf4:	103fba1e 	bne	r2,zero,808ae0 <__alt_data_end+0xff808ae0>
  808bf8:	d9001b17 	ldw	r4,108(sp)
  808bfc:	d8801c17 	ldw	r2,112(sp)
  808c00:	d811883a 	mov	r8,sp
  808c04:	21400044 	addi	r5,r4,1
  808c08:	003fd606 	br	808b64 <__alt_data_end+0xff808b64>
  808c0c:	d9402017 	ldw	r5,128(sp)
  808c10:	d9002117 	ldw	r4,132(sp)
  808c14:	d9801a04 	addi	r6,sp,104
  808c18:	0807cec0 	call	807cec <__sprint_r.part.0>
  808c1c:	103fb01e 	bne	r2,zero,808ae0 <__alt_data_end+0xff808ae0>
  808c20:	d8801c17 	ldw	r2,112(sp)
  808c24:	d8c02517 	ldw	r3,148(sp)
  808c28:	1cc0010e 	bge	r3,r19,808c30 <___vfiprintf_internal_r+0xe30>
  808c2c:	9807883a 	mov	r3,r19
  808c30:	d9002417 	ldw	r4,144(sp)
  808c34:	20c9883a 	add	r4,r4,r3
  808c38:	d9002415 	stw	r4,144(sp)
  808c3c:	103e0126 	beq	r2,zero,808444 <__alt_data_end+0xff808444>
  808c40:	d9402017 	ldw	r5,128(sp)
  808c44:	d9002117 	ldw	r4,132(sp)
  808c48:	d9801a04 	addi	r6,sp,104
  808c4c:	0807cec0 	call	807cec <__sprint_r.part.0>
  808c50:	103dfc26 	beq	r2,zero,808444 <__alt_data_end+0xff808444>
  808c54:	003fa206 	br	808ae0 <__alt_data_end+0xff808ae0>
  808c58:	d9402017 	ldw	r5,128(sp)
  808c5c:	d9002117 	ldw	r4,132(sp)
  808c60:	d9801a04 	addi	r6,sp,104
  808c64:	d9c02b15 	stw	r7,172(sp)
  808c68:	0807cec0 	call	807cec <__sprint_r.part.0>
  808c6c:	d9c02b17 	ldw	r7,172(sp)
  808c70:	103f9b1e 	bne	r2,zero,808ae0 <__alt_data_end+0xff808ae0>
  808c74:	d9001b17 	ldw	r4,108(sp)
  808c78:	d8801c17 	ldw	r2,112(sp)
  808c7c:	d811883a 	mov	r8,sp
  808c80:	21800044 	addi	r6,r4,1
  808c84:	003dbf06 	br	808384 <__alt_data_end+0xff808384>
  808c88:	1000d81e 	bne	r2,zero,808fec <___vfiprintf_internal_r+0x11ec>
  808c8c:	d9001d87 	ldb	r4,118(sp)
  808c90:	20000a26 	beq	r4,zero,808cbc <___vfiprintf_internal_r+0xebc>
  808c94:	00800044 	movi	r2,1
  808c98:	d9001d84 	addi	r4,sp,118
  808c9c:	100b883a 	mov	r5,r2
  808ca0:	d9000015 	stw	r4,0(sp)
  808ca4:	d8800115 	stw	r2,4(sp)
  808ca8:	d811883a 	mov	r8,sp
  808cac:	2809883a 	mov	r4,r5
  808cb0:	42000204 	addi	r8,r8,8
  808cb4:	29400044 	addi	r5,r5,1
  808cb8:	003d9506 	br	808310 <__alt_data_end+0xff808310>
  808cbc:	3800fd26 	beq	r7,zero,8090b4 <___vfiprintf_internal_r+0x12b4>
  808cc0:	00800084 	movi	r2,2
  808cc4:	d9001d04 	addi	r4,sp,116
  808cc8:	d9000015 	stw	r4,0(sp)
  808ccc:	d8800115 	stw	r2,4(sp)
  808cd0:	01400044 	movi	r5,1
  808cd4:	d811883a 	mov	r8,sp
  808cd8:	2809883a 	mov	r4,r5
  808cdc:	42000204 	addi	r8,r8,8
  808ce0:	29400044 	addi	r5,r5,1
  808ce4:	003f4606 	br	808a00 <__alt_data_end+0xff808a00>
  808ce8:	d8802517 	ldw	r2,148(sp)
  808cec:	14c0010e 	bge	r2,r19,808cf4 <___vfiprintf_internal_r+0xef4>
  808cf0:	9805883a 	mov	r2,r19
  808cf4:	d9402417 	ldw	r5,144(sp)
  808cf8:	288b883a 	add	r5,r5,r2
  808cfc:	d9402415 	stw	r5,144(sp)
  808d00:	003dd006 	br	808444 <__alt_data_end+0xff808444>
  808d04:	d8001d85 	stb	zero,118(sp)
  808d08:	80005d16 	blt	r16,zero,808e80 <___vfiprintf_internal_r+0x1080>
  808d0c:	00ffdfc4 	movi	r3,-129
  808d10:	9d04b03a 	or	r2,r19,r20
  808d14:	88e2703a 	and	r17,r17,r3
  808d18:	103d3726 	beq	r2,zero,8081f8 <__alt_data_end+0xff8081f8>
  808d1c:	002b883a 	mov	r21,zero
  808d20:	d9002617 	ldw	r4,152(sp)
  808d24:	ddc01a04 	addi	r23,sp,104
  808d28:	988003cc 	andi	r2,r19,15
  808d2c:	a006973a 	slli	r3,r20,28
  808d30:	2085883a 	add	r2,r4,r2
  808d34:	9826d13a 	srli	r19,r19,4
  808d38:	10800003 	ldbu	r2,0(r2)
  808d3c:	a028d13a 	srli	r20,r20,4
  808d40:	bdffffc4 	addi	r23,r23,-1
  808d44:	1ce6b03a 	or	r19,r3,r19
  808d48:	b8800005 	stb	r2,0(r23)
  808d4c:	9d04b03a 	or	r2,r19,r20
  808d50:	103ff51e 	bne	r2,zero,808d28 <__alt_data_end+0xff808d28>
  808d54:	d8801e17 	ldw	r2,120(sp)
  808d58:	15e9c83a 	sub	r20,r2,r23
  808d5c:	003d2b06 	br	80820c <__alt_data_end+0xff80820c>
  808d60:	d9402017 	ldw	r5,128(sp)
  808d64:	d9002117 	ldw	r4,132(sp)
  808d68:	d9801a04 	addi	r6,sp,104
  808d6c:	0807cec0 	call	807cec <__sprint_r.part.0>
  808d70:	103f5b1e 	bne	r2,zero,808ae0 <__alt_data_end+0xff808ae0>
  808d74:	d8801c17 	ldw	r2,112(sp)
  808d78:	d811883a 	mov	r8,sp
  808d7c:	003f6706 	br	808b1c <__alt_data_end+0xff808b1c>
  808d80:	d9402017 	ldw	r5,128(sp)
  808d84:	d9002117 	ldw	r4,132(sp)
  808d88:	d9801a04 	addi	r6,sp,104
  808d8c:	0807cec0 	call	807cec <__sprint_r.part.0>
  808d90:	103f531e 	bne	r2,zero,808ae0 <__alt_data_end+0xff808ae0>
  808d94:	d811883a 	mov	r8,sp
  808d98:	003cd906 	br	808100 <__alt_data_end+0xff808100>
  808d9c:	10803fcc 	andi	r2,r2,255
  808da0:	1080201c 	xori	r2,r2,128
  808da4:	10bfe004 	addi	r2,r2,-128
  808da8:	00c00c04 	movi	r3,48
  808dac:	10ffe926 	beq	r2,r3,808d54 <__alt_data_end+0xff808d54>
  808db0:	b8ffffc5 	stb	r3,-1(r23)
  808db4:	d8c01e17 	ldw	r3,120(sp)
  808db8:	b8bfffc4 	addi	r2,r23,-1
  808dbc:	102f883a 	mov	r23,r2
  808dc0:	18a9c83a 	sub	r20,r3,r2
  808dc4:	003d1106 	br	80820c <__alt_data_end+0xff80820c>
  808dc8:	d9402017 	ldw	r5,128(sp)
  808dcc:	d9002117 	ldw	r4,132(sp)
  808dd0:	d9801a04 	addi	r6,sp,104
  808dd4:	d8c02a15 	stw	r3,168(sp)
  808dd8:	d9c02b15 	stw	r7,172(sp)
  808ddc:	0807cec0 	call	807cec <__sprint_r.part.0>
  808de0:	d8c02a17 	ldw	r3,168(sp)
  808de4:	d9c02b17 	ldw	r7,172(sp)
  808de8:	103f3d1e 	bne	r2,zero,808ae0 <__alt_data_end+0xff808ae0>
  808dec:	d9001b17 	ldw	r4,108(sp)
  808df0:	d8801c17 	ldw	r2,112(sp)
  808df4:	d811883a 	mov	r8,sp
  808df8:	21400044 	addi	r5,r4,1
  808dfc:	003d4406 	br	808310 <__alt_data_end+0xff808310>
  808e00:	d9402017 	ldw	r5,128(sp)
  808e04:	d9002117 	ldw	r4,132(sp)
  808e08:	d9801a04 	addi	r6,sp,104
  808e0c:	d8c02a15 	stw	r3,168(sp)
  808e10:	0807cec0 	call	807cec <__sprint_r.part.0>
  808e14:	d8c02a17 	ldw	r3,168(sp)
  808e18:	103f311e 	bne	r2,zero,808ae0 <__alt_data_end+0xff808ae0>
  808e1c:	d9001b17 	ldw	r4,108(sp)
  808e20:	d8801c17 	ldw	r2,112(sp)
  808e24:	d811883a 	mov	r8,sp
  808e28:	21400044 	addi	r5,r4,1
  808e2c:	003ef406 	br	808a00 <__alt_data_end+0xff808a00>
  808e30:	1000bd1e 	bne	r2,zero,809128 <___vfiprintf_internal_r+0x1328>
  808e34:	01400044 	movi	r5,1
  808e38:	0009883a 	mov	r4,zero
  808e3c:	d811883a 	mov	r8,sp
  808e40:	003ef106 	br	808a08 <__alt_data_end+0xff808a08>
  808e44:	d9402017 	ldw	r5,128(sp)
  808e48:	d9002117 	ldw	r4,132(sp)
  808e4c:	d9801a04 	addi	r6,sp,104
  808e50:	0807cec0 	call	807cec <__sprint_r.part.0>
  808e54:	103f221e 	bne	r2,zero,808ae0 <__alt_data_end+0xff808ae0>
  808e58:	d9401b17 	ldw	r5,108(sp)
  808e5c:	d8801c17 	ldw	r2,112(sp)
  808e60:	d811883a 	mov	r8,sp
  808e64:	29400044 	addi	r5,r5,1
  808e68:	003d6206 	br	8083f4 <__alt_data_end+0xff8083f4>
  808e6c:	01402074 	movhi	r5,129
  808e70:	29402104 	addi	r5,r5,132
  808e74:	d9402615 	stw	r5,152(sp)
  808e78:	d8c02215 	stw	r3,136(sp)
  808e7c:	1023883a 	mov	r17,r2
  808e80:	9d04b03a 	or	r2,r19,r20
  808e84:	103fa51e 	bne	r2,zero,808d1c <__alt_data_end+0xff808d1c>
  808e88:	002b883a 	mov	r21,zero
  808e8c:	00800084 	movi	r2,2
  808e90:	003e4a06 	br	8087bc <__alt_data_end+0xff8087bc>
  808e94:	01402074 	movhi	r5,129
  808e98:	29402104 	addi	r5,r5,132
  808e9c:	002b883a 	mov	r21,zero
  808ea0:	d9402615 	stw	r5,152(sp)
  808ea4:	003f9e06 	br	808d20 <__alt_data_end+0xff808d20>
  808ea8:	d9402217 	ldw	r5,136(sp)
  808eac:	d8001d85 	stb	zero,118(sp)
  808eb0:	0029883a 	mov	r20,zero
  808eb4:	28800104 	addi	r2,r5,4
  808eb8:	2cc00017 	ldw	r19,0(r5)
  808ebc:	803e3a16 	blt	r16,zero,8087a8 <__alt_data_end+0xff8087a8>
  808ec0:	00ffdfc4 	movi	r3,-129
  808ec4:	d8802215 	stw	r2,136(sp)
  808ec8:	88e2703a 	and	r17,r17,r3
  808ecc:	002b883a 	mov	r21,zero
  808ed0:	983e9b26 	beq	r19,zero,808940 <__alt_data_end+0xff808940>
  808ed4:	00800244 	movi	r2,9
  808ed8:	14fdc936 	bltu	r2,r19,808600 <__alt_data_end+0xff808600>
  808edc:	003e9a06 	br	808948 <__alt_data_end+0xff808948>
  808ee0:	00800c04 	movi	r2,48
  808ee4:	d8c01d45 	stb	r3,117(sp)
  808ee8:	d8801d05 	stb	r2,116(sp)
  808eec:	d8001d85 	stb	zero,118(sp)
  808ef0:	88c00094 	ori	r3,r17,2
  808ef4:	80009c16 	blt	r16,zero,809168 <___vfiprintf_internal_r+0x1368>
  808ef8:	00bfdfc4 	movi	r2,-129
  808efc:	88a2703a 	and	r17,r17,r2
  808f00:	8c400094 	ori	r17,r17,2
  808f04:	002b883a 	mov	r21,zero
  808f08:	003f8506 	br	808d20 <__alt_data_end+0xff808d20>
  808f0c:	b029883a 	mov	r20,r22
  808f10:	003c0b06 	br	807f40 <__alt_data_end+0xff807f40>
  808f14:	04e7c83a 	sub	r19,zero,r19
  808f18:	05400b44 	movi	r21,45
  808f1c:	9804c03a 	cmpne	r2,r19,zero
  808f20:	0529c83a 	sub	r20,zero,r20
  808f24:	dd401d85 	stb	r21,118(sp)
  808f28:	a0a9c83a 	sub	r20,r20,r2
  808f2c:	80009716 	blt	r16,zero,80918c <___vfiprintf_internal_r+0x138c>
  808f30:	00bfdfc4 	movi	r2,-129
  808f34:	88a2703a 	and	r17,r17,r2
  808f38:	003db006 	br	8085fc <__alt_data_end+0xff8085fc>
  808f3c:	b0c00007 	ldb	r3,0(r22)
  808f40:	003c0c06 	br	807f74 <__alt_data_end+0xff807f74>
  808f44:	8880100c 	andi	r2,r17,64
  808f48:	d8001d85 	stb	zero,118(sp)
  808f4c:	1000461e 	bne	r2,zero,809068 <___vfiprintf_internal_r+0x1268>
  808f50:	d9002217 	ldw	r4,136(sp)
  808f54:	0029883a 	mov	r20,zero
  808f58:	20800104 	addi	r2,r4,4
  808f5c:	24c00017 	ldw	r19,0(r4)
  808f60:	803df80e 	bge	r16,zero,808744 <__alt_data_end+0xff808744>
  808f64:	9d06b03a 	or	r3,r19,r20
  808f68:	d8802215 	stw	r2,136(sp)
  808f6c:	183d5e1e 	bne	r3,zero,8084e8 <__alt_data_end+0xff8084e8>
  808f70:	002b883a 	mov	r21,zero
  808f74:	0005883a 	mov	r2,zero
  808f78:	003e1006 	br	8087bc <__alt_data_end+0xff8087bc>
  808f7c:	8880040c 	andi	r2,r17,16
  808f80:	1000321e 	bne	r2,zero,80904c <___vfiprintf_internal_r+0x124c>
  808f84:	8c40100c 	andi	r17,r17,64
  808f88:	88008d26 	beq	r17,zero,8091c0 <___vfiprintf_internal_r+0x13c0>
  808f8c:	d9402217 	ldw	r5,136(sp)
  808f90:	d8c02417 	ldw	r3,144(sp)
  808f94:	28800017 	ldw	r2,0(r5)
  808f98:	29400104 	addi	r5,r5,4
  808f9c:	d9402215 	stw	r5,136(sp)
  808fa0:	10c0000d 	sth	r3,0(r2)
  808fa4:	003bca06 	br	807ed0 <__alt_data_end+0xff807ed0>
  808fa8:	8880100c 	andi	r2,r17,64
  808fac:	10003a26 	beq	r2,zero,809098 <___vfiprintf_internal_r+0x1298>
  808fb0:	d8802217 	ldw	r2,136(sp)
  808fb4:	14c0000f 	ldh	r19,0(r2)
  808fb8:	10800104 	addi	r2,r2,4
  808fbc:	d8802215 	stw	r2,136(sp)
  808fc0:	9829d7fa 	srai	r20,r19,31
  808fc4:	a005883a 	mov	r2,r20
  808fc8:	003d8506 	br	8085e0 <__alt_data_end+0xff8085e0>
  808fcc:	8880100c 	andi	r2,r17,64
  808fd0:	10002b26 	beq	r2,zero,809080 <___vfiprintf_internal_r+0x1280>
  808fd4:	d8802217 	ldw	r2,136(sp)
  808fd8:	0029883a 	mov	r20,zero
  808fdc:	14c0000b 	ldhu	r19,0(r2)
  808fe0:	10800104 	addi	r2,r2,4
  808fe4:	d8802215 	stw	r2,136(sp)
  808fe8:	003d5d06 	br	808560 <__alt_data_end+0xff808560>
  808fec:	d9402017 	ldw	r5,128(sp)
  808ff0:	d9002117 	ldw	r4,132(sp)
  808ff4:	d9801a04 	addi	r6,sp,104
  808ff8:	d8c02a15 	stw	r3,168(sp)
  808ffc:	d9c02b15 	stw	r7,172(sp)
  809000:	0807cec0 	call	807cec <__sprint_r.part.0>
  809004:	d8c02a17 	ldw	r3,168(sp)
  809008:	d9c02b17 	ldw	r7,172(sp)
  80900c:	103eb41e 	bne	r2,zero,808ae0 <__alt_data_end+0xff808ae0>
  809010:	d9001b17 	ldw	r4,108(sp)
  809014:	d8801c17 	ldw	r2,112(sp)
  809018:	d811883a 	mov	r8,sp
  80901c:	21400044 	addi	r5,r4,1
  809020:	003e6706 	br	8089c0 <__alt_data_end+0xff8089c0>
  809024:	00bfffc4 	movi	r2,-1
  809028:	003c4a06 	br	808154 <__alt_data_end+0xff808154>
  80902c:	9805883a 	mov	r2,r19
  809030:	003ee806 	br	808bd4 <__alt_data_end+0xff808bd4>
  809034:	d8c02217 	ldw	r3,136(sp)
  809038:	0029883a 	mov	r20,zero
  80903c:	18800104 	addi	r2,r3,4
  809040:	1cc0000b 	ldhu	r19,0(r3)
  809044:	803f9e0e 	bge	r16,zero,808ec0 <__alt_data_end+0xff808ec0>
  809048:	003dd706 	br	8087a8 <__alt_data_end+0xff8087a8>
  80904c:	d8c02217 	ldw	r3,136(sp)
  809050:	d9002417 	ldw	r4,144(sp)
  809054:	18800017 	ldw	r2,0(r3)
  809058:	18c00104 	addi	r3,r3,4
  80905c:	d8c02215 	stw	r3,136(sp)
  809060:	11000015 	stw	r4,0(r2)
  809064:	003b9a06 	br	807ed0 <__alt_data_end+0xff807ed0>
  809068:	d8c02217 	ldw	r3,136(sp)
  80906c:	0029883a 	mov	r20,zero
  809070:	18800104 	addi	r2,r3,4
  809074:	1cc0000b 	ldhu	r19,0(r3)
  809078:	803db20e 	bge	r16,zero,808744 <__alt_data_end+0xff808744>
  80907c:	003fb906 	br	808f64 <__alt_data_end+0xff808f64>
  809080:	d9002217 	ldw	r4,136(sp)
  809084:	0029883a 	mov	r20,zero
  809088:	24c00017 	ldw	r19,0(r4)
  80908c:	21000104 	addi	r4,r4,4
  809090:	d9002215 	stw	r4,136(sp)
  809094:	003d3206 	br	808560 <__alt_data_end+0xff808560>
  809098:	d8c02217 	ldw	r3,136(sp)
  80909c:	1cc00017 	ldw	r19,0(r3)
  8090a0:	18c00104 	addi	r3,r3,4
  8090a4:	d8c02215 	stw	r3,136(sp)
  8090a8:	9829d7fa 	srai	r20,r19,31
  8090ac:	a005883a 	mov	r2,r20
  8090b0:	003d4b06 	br	8085e0 <__alt_data_end+0xff8085e0>
  8090b4:	0009883a 	mov	r4,zero
  8090b8:	01400044 	movi	r5,1
  8090bc:	d811883a 	mov	r8,sp
  8090c0:	003e4f06 	br	808a00 <__alt_data_end+0xff808a00>
  8090c4:	d8c02215 	stw	r3,136(sp)
  8090c8:	002b883a 	mov	r21,zero
  8090cc:	003db806 	br	8087b0 <__alt_data_end+0xff8087b0>
  8090d0:	d811883a 	mov	r8,sp
  8090d4:	003e9606 	br	808b30 <__alt_data_end+0xff808b30>
  8090d8:	01002074 	movhi	r4,129
  8090dc:	21008204 	addi	r4,r4,520
  8090e0:	d9002315 	stw	r4,140(sp)
  8090e4:	003e6306 	br	808a74 <__alt_data_end+0xff808a74>
  8090e8:	b0c00043 	ldbu	r3,1(r22)
  8090ec:	8c400814 	ori	r17,r17,32
  8090f0:	b5800044 	addi	r22,r22,1
  8090f4:	18c03fcc 	andi	r3,r3,255
  8090f8:	18c0201c 	xori	r3,r3,128
  8090fc:	18ffe004 	addi	r3,r3,-128
  809100:	003b9c06 	br	807f74 <__alt_data_end+0xff807f74>
  809104:	b809883a 	mov	r4,r23
  809108:	da002a15 	stw	r8,168(sp)
  80910c:	0807c540 	call	807c54 <strlen>
  809110:	1029883a 	mov	r20,r2
  809114:	dd401d83 	ldbu	r21,118(sp)
  809118:	df002215 	stw	fp,136(sp)
  80911c:	0021883a 	mov	r16,zero
  809120:	da002a17 	ldw	r8,168(sp)
  809124:	003c3906 	br	80820c <__alt_data_end+0xff80820c>
  809128:	d9402017 	ldw	r5,128(sp)
  80912c:	d9002117 	ldw	r4,132(sp)
  809130:	d9801a04 	addi	r6,sp,104
  809134:	0807cec0 	call	807cec <__sprint_r.part.0>
  809138:	103e691e 	bne	r2,zero,808ae0 <__alt_data_end+0xff808ae0>
  80913c:	d9001b17 	ldw	r4,108(sp)
  809140:	d8801c17 	ldw	r2,112(sp)
  809144:	d811883a 	mov	r8,sp
  809148:	21400044 	addi	r5,r4,1
  80914c:	003e2e06 	br	808a08 <__alt_data_end+0xff808a08>
  809150:	01002074 	movhi	r4,129
  809154:	21008604 	addi	r4,r4,536
  809158:	d9002315 	stw	r4,140(sp)
  80915c:	d9001b17 	ldw	r4,108(sp)
  809160:	21000044 	addi	r4,r4,1
  809164:	003c5e06 	br	8082e0 <__alt_data_end+0xff8082e0>
  809168:	002b883a 	mov	r21,zero
  80916c:	00800084 	movi	r2,2
  809170:	10803fcc 	andi	r2,r2,255
  809174:	01000044 	movi	r4,1
  809178:	11002b26 	beq	r2,r4,809228 <___vfiprintf_internal_r+0x1428>
  80917c:	01000084 	movi	r4,2
  809180:	11002b1e 	bne	r2,r4,809230 <___vfiprintf_internal_r+0x1430>
  809184:	1823883a 	mov	r17,r3
  809188:	003ee506 	br	808d20 <__alt_data_end+0xff808d20>
  80918c:	8807883a 	mov	r3,r17
  809190:	00800044 	movi	r2,1
  809194:	003ff606 	br	809170 <__alt_data_end+0xff809170>
  809198:	00800184 	movi	r2,6
  80919c:	1400012e 	bgeu	r2,r16,8091a4 <___vfiprintf_internal_r+0x13a4>
  8091a0:	1021883a 	mov	r16,r2
  8091a4:	8029883a 	mov	r20,r16
  8091a8:	8027883a 	mov	r19,r16
  8091ac:	80002216 	blt	r16,zero,809238 <___vfiprintf_internal_r+0x1438>
  8091b0:	05c02074 	movhi	r23,129
  8091b4:	df002215 	stw	fp,136(sp)
  8091b8:	bdc02604 	addi	r23,r23,152
  8091bc:	003cfb06 	br	8085ac <__alt_data_end+0xff8085ac>
  8091c0:	d9002217 	ldw	r4,136(sp)
  8091c4:	d9402417 	ldw	r5,144(sp)
  8091c8:	20800017 	ldw	r2,0(r4)
  8091cc:	21000104 	addi	r4,r4,4
  8091d0:	d9002215 	stw	r4,136(sp)
  8091d4:	11400015 	stw	r5,0(r2)
  8091d8:	003b3d06 	br	807ed0 <__alt_data_end+0xff807ed0>
  8091dc:	01402074 	movhi	r5,129
  8091e0:	29408604 	addi	r5,r5,536
  8091e4:	d9402315 	stw	r5,140(sp)
  8091e8:	d9401b17 	ldw	r5,108(sp)
  8091ec:	29400044 	addi	r5,r5,1
  8091f0:	003e6d06 	br	808ba8 <__alt_data_end+0xff808ba8>
  8091f4:	8029883a 	mov	r20,r16
  8091f8:	dd401d83 	ldbu	r21,118(sp)
  8091fc:	df002215 	stw	fp,136(sp)
  809200:	0021883a 	mov	r16,zero
  809204:	003c0106 	br	80820c <__alt_data_end+0xff80820c>
  809208:	00c02074 	movhi	r3,129
  80920c:	18c08204 	addi	r3,r3,520
  809210:	d8c02315 	stw	r3,140(sp)
  809214:	280d883a 	mov	r6,r5
  809218:	003c6906 	br	8083c0 <__alt_data_end+0xff8083c0>
  80921c:	802d883a 	mov	r22,r16
  809220:	0021883a 	mov	r16,zero
  809224:	003b5406 	br	807f78 <__alt_data_end+0xff807f78>
  809228:	1823883a 	mov	r17,r3
  80922c:	003cf306 	br	8085fc <__alt_data_end+0xff8085fc>
  809230:	1823883a 	mov	r17,r3
  809234:	003cad06 	br	8084ec <__alt_data_end+0xff8084ec>
  809238:	0027883a 	mov	r19,zero
  80923c:	003fdc06 	br	8091b0 <__alt_data_end+0xff8091b0>
  809240:	d9402217 	ldw	r5,136(sp)
  809244:	8005883a 	mov	r2,r16
  809248:	b0c00043 	ldbu	r3,1(r22)
  80924c:	2c000017 	ldw	r16,0(r5)
  809250:	29000104 	addi	r4,r5,4
  809254:	d9002215 	stw	r4,136(sp)
  809258:	102d883a 	mov	r22,r2
  80925c:	803fa50e 	bge	r16,zero,8090f4 <__alt_data_end+0xff8090f4>
  809260:	18c03fcc 	andi	r3,r3,255
  809264:	18c0201c 	xori	r3,r3,128
  809268:	043fffc4 	movi	r16,-1
  80926c:	18ffe004 	addi	r3,r3,-128
  809270:	003b4006 	br	807f74 <__alt_data_end+0xff807f74>
  809274:	d9402303 	ldbu	r5,140(sp)
  809278:	d9401d85 	stb	r5,118(sp)
  80927c:	003cae06 	br	808538 <__alt_data_end+0xff808538>
  809280:	d8c02303 	ldbu	r3,140(sp)
  809284:	d8c01d85 	stb	r3,118(sp)
  809288:	003d1406 	br	8086dc <__alt_data_end+0xff8086dc>
  80928c:	d8c02303 	ldbu	r3,140(sp)
  809290:	d8c01d85 	stb	r3,118(sp)
  809294:	003cca06 	br	8085c0 <__alt_data_end+0xff8085c0>
  809298:	8880004c 	andi	r2,r17,1
  80929c:	002b883a 	mov	r21,zero
  8092a0:	10000526 	beq	r2,zero,8092b8 <___vfiprintf_internal_r+0x14b8>
  8092a4:	00800c04 	movi	r2,48
  8092a8:	d88019c5 	stb	r2,103(sp)
  8092ac:	dd002817 	ldw	r20,160(sp)
  8092b0:	ddc019c4 	addi	r23,sp,103
  8092b4:	003bd506 	br	80820c <__alt_data_end+0xff80820c>
  8092b8:	0029883a 	mov	r20,zero
  8092bc:	ddc01a04 	addi	r23,sp,104
  8092c0:	003bd206 	br	80820c <__alt_data_end+0xff80820c>
  8092c4:	d9002303 	ldbu	r4,140(sp)
  8092c8:	d9001d85 	stb	r4,118(sp)
  8092cc:	003da606 	br	808968 <__alt_data_end+0xff808968>
  8092d0:	d8c02303 	ldbu	r3,140(sp)
  8092d4:	d8c01d85 	stb	r3,118(sp)
  8092d8:	003c7606 	br	8084b4 <__alt_data_end+0xff8084b4>
  8092dc:	d8c02303 	ldbu	r3,140(sp)
  8092e0:	d8c01d85 	stb	r3,118(sp)
  8092e4:	003c6506 	br	80847c <__alt_data_end+0xff80847c>
  8092e8:	d9002303 	ldbu	r4,140(sp)
  8092ec:	d9001d85 	stb	r4,118(sp)
  8092f0:	003d3d06 	br	8087e8 <__alt_data_end+0xff8087e8>
  8092f4:	d8c02303 	ldbu	r3,140(sp)
  8092f8:	d8c01d85 	stb	r3,118(sp)
  8092fc:	003d1d06 	br	808774 <__alt_data_end+0xff808774>
  809300:	d8c02303 	ldbu	r3,140(sp)
  809304:	d8c01d85 	stb	r3,118(sp)
  809308:	003d0306 	br	808718 <__alt_data_end+0xff808718>

0080930c <__vfiprintf_internal>:
  80930c:	00802074 	movhi	r2,129
  809310:	10833404 	addi	r2,r2,3280
  809314:	300f883a 	mov	r7,r6
  809318:	280d883a 	mov	r6,r5
  80931c:	200b883a 	mov	r5,r4
  809320:	11000017 	ldw	r4,0(r2)
  809324:	0807e001 	jmpi	807e00 <___vfiprintf_internal_r>

00809328 <__sbprintf>:
  809328:	2880030b 	ldhu	r2,12(r5)
  80932c:	2ac01917 	ldw	r11,100(r5)
  809330:	2a80038b 	ldhu	r10,14(r5)
  809334:	2a400717 	ldw	r9,28(r5)
  809338:	2a000917 	ldw	r8,36(r5)
  80933c:	defee204 	addi	sp,sp,-1144
  809340:	00c10004 	movi	r3,1024
  809344:	dc011a15 	stw	r16,1128(sp)
  809348:	10bfff4c 	andi	r2,r2,65533
  80934c:	2821883a 	mov	r16,r5
  809350:	d8cb883a 	add	r5,sp,r3
  809354:	dc811c15 	stw	r18,1136(sp)
  809358:	dc411b15 	stw	r17,1132(sp)
  80935c:	dfc11d15 	stw	ra,1140(sp)
  809360:	2025883a 	mov	r18,r4
  809364:	d881030d 	sth	r2,1036(sp)
  809368:	dac11915 	stw	r11,1124(sp)
  80936c:	da81038d 	sth	r10,1038(sp)
  809370:	da410715 	stw	r9,1052(sp)
  809374:	da010915 	stw	r8,1060(sp)
  809378:	dec10015 	stw	sp,1024(sp)
  80937c:	dec10415 	stw	sp,1040(sp)
  809380:	d8c10215 	stw	r3,1032(sp)
  809384:	d8c10515 	stw	r3,1044(sp)
  809388:	d8010615 	stw	zero,1048(sp)
  80938c:	0807e000 	call	807e00 <___vfiprintf_internal_r>
  809390:	1023883a 	mov	r17,r2
  809394:	10000416 	blt	r2,zero,8093a8 <__sbprintf+0x80>
  809398:	d9410004 	addi	r5,sp,1024
  80939c:	9009883a 	mov	r4,r18
  8093a0:	08050cc0 	call	8050cc <_fflush_r>
  8093a4:	10000d1e 	bne	r2,zero,8093dc <__sbprintf+0xb4>
  8093a8:	d881030b 	ldhu	r2,1036(sp)
  8093ac:	1080100c 	andi	r2,r2,64
  8093b0:	10000326 	beq	r2,zero,8093c0 <__sbprintf+0x98>
  8093b4:	8080030b 	ldhu	r2,12(r16)
  8093b8:	10801014 	ori	r2,r2,64
  8093bc:	8080030d 	sth	r2,12(r16)
  8093c0:	8805883a 	mov	r2,r17
  8093c4:	dfc11d17 	ldw	ra,1140(sp)
  8093c8:	dc811c17 	ldw	r18,1136(sp)
  8093cc:	dc411b17 	ldw	r17,1132(sp)
  8093d0:	dc011a17 	ldw	r16,1128(sp)
  8093d4:	dec11e04 	addi	sp,sp,1144
  8093d8:	f800283a 	ret
  8093dc:	047fffc4 	movi	r17,-1
  8093e0:	003ff106 	br	8093a8 <__alt_data_end+0xff8093a8>

008093e4 <_write_r>:
  8093e4:	defffd04 	addi	sp,sp,-12
  8093e8:	2805883a 	mov	r2,r5
  8093ec:	dc000015 	stw	r16,0(sp)
  8093f0:	04002074 	movhi	r16,129
  8093f4:	dc400115 	stw	r17,4(sp)
  8093f8:	300b883a 	mov	r5,r6
  8093fc:	8405f704 	addi	r16,r16,6108
  809400:	2023883a 	mov	r17,r4
  809404:	380d883a 	mov	r6,r7
  809408:	1009883a 	mov	r4,r2
  80940c:	dfc00215 	stw	ra,8(sp)
  809410:	80000015 	stw	zero,0(r16)
  809414:	080e7f00 	call	80e7f0 <write>
  809418:	00ffffc4 	movi	r3,-1
  80941c:	10c00526 	beq	r2,r3,809434 <_write_r+0x50>
  809420:	dfc00217 	ldw	ra,8(sp)
  809424:	dc400117 	ldw	r17,4(sp)
  809428:	dc000017 	ldw	r16,0(sp)
  80942c:	dec00304 	addi	sp,sp,12
  809430:	f800283a 	ret
  809434:	80c00017 	ldw	r3,0(r16)
  809438:	183ff926 	beq	r3,zero,809420 <__alt_data_end+0xff809420>
  80943c:	88c00015 	stw	r3,0(r17)
  809440:	003ff706 	br	809420 <__alt_data_end+0xff809420>

00809444 <_close_r>:
  809444:	defffd04 	addi	sp,sp,-12
  809448:	dc000015 	stw	r16,0(sp)
  80944c:	04002074 	movhi	r16,129
  809450:	dc400115 	stw	r17,4(sp)
  809454:	8405f704 	addi	r16,r16,6108
  809458:	2023883a 	mov	r17,r4
  80945c:	2809883a 	mov	r4,r5
  809460:	dfc00215 	stw	ra,8(sp)
  809464:	80000015 	stw	zero,0(r16)
  809468:	080dea80 	call	80dea8 <close>
  80946c:	00ffffc4 	movi	r3,-1
  809470:	10c00526 	beq	r2,r3,809488 <_close_r+0x44>
  809474:	dfc00217 	ldw	ra,8(sp)
  809478:	dc400117 	ldw	r17,4(sp)
  80947c:	dc000017 	ldw	r16,0(sp)
  809480:	dec00304 	addi	sp,sp,12
  809484:	f800283a 	ret
  809488:	80c00017 	ldw	r3,0(r16)
  80948c:	183ff926 	beq	r3,zero,809474 <__alt_data_end+0xff809474>
  809490:	88c00015 	stw	r3,0(r17)
  809494:	003ff706 	br	809474 <__alt_data_end+0xff809474>

00809498 <_calloc_r>:
  809498:	defffe04 	addi	sp,sp,-8
  80949c:	2805883a 	mov	r2,r5
  8094a0:	dc000015 	stw	r16,0(sp)
  8094a4:	300b883a 	mov	r5,r6
  8094a8:	2021883a 	mov	r16,r4
  8094ac:	1009883a 	mov	r4,r2
  8094b0:	dfc00115 	stw	ra,4(sp)
  8094b4:	08005640 	call	800564 <__mulsi3>
  8094b8:	100b883a 	mov	r5,r2
  8094bc:	8009883a 	mov	r4,r16
  8094c0:	0805d5c0 	call	805d5c <_malloc_r>
  8094c4:	10002926 	beq	r2,zero,80956c <_calloc_r+0xd4>
  8094c8:	11bfff17 	ldw	r6,-4(r2)
  8094cc:	1021883a 	mov	r16,r2
  8094d0:	00bfff04 	movi	r2,-4
  8094d4:	308c703a 	and	r6,r6,r2
  8094d8:	00c00904 	movi	r3,36
  8094dc:	308d883a 	add	r6,r6,r2
  8094e0:	19801636 	bltu	r3,r6,80953c <_calloc_r+0xa4>
  8094e4:	008004c4 	movi	r2,19
  8094e8:	11800b2e 	bgeu	r2,r6,809518 <_calloc_r+0x80>
  8094ec:	80000015 	stw	zero,0(r16)
  8094f0:	80000115 	stw	zero,4(r16)
  8094f4:	008006c4 	movi	r2,27
  8094f8:	11801a2e 	bgeu	r2,r6,809564 <_calloc_r+0xcc>
  8094fc:	80000215 	stw	zero,8(r16)
  809500:	80000315 	stw	zero,12(r16)
  809504:	30c0151e 	bne	r6,r3,80955c <_calloc_r+0xc4>
  809508:	80000415 	stw	zero,16(r16)
  80950c:	80800604 	addi	r2,r16,24
  809510:	80000515 	stw	zero,20(r16)
  809514:	00000106 	br	80951c <_calloc_r+0x84>
  809518:	8005883a 	mov	r2,r16
  80951c:	10000015 	stw	zero,0(r2)
  809520:	10000115 	stw	zero,4(r2)
  809524:	10000215 	stw	zero,8(r2)
  809528:	8005883a 	mov	r2,r16
  80952c:	dfc00117 	ldw	ra,4(sp)
  809530:	dc000017 	ldw	r16,0(sp)
  809534:	dec00204 	addi	sp,sp,8
  809538:	f800283a 	ret
  80953c:	000b883a 	mov	r5,zero
  809540:	8009883a 	mov	r4,r16
  809544:	08067940 	call	806794 <memset>
  809548:	8005883a 	mov	r2,r16
  80954c:	dfc00117 	ldw	ra,4(sp)
  809550:	dc000017 	ldw	r16,0(sp)
  809554:	dec00204 	addi	sp,sp,8
  809558:	f800283a 	ret
  80955c:	80800404 	addi	r2,r16,16
  809560:	003fee06 	br	80951c <__alt_data_end+0xff80951c>
  809564:	80800204 	addi	r2,r16,8
  809568:	003fec06 	br	80951c <__alt_data_end+0xff80951c>
  80956c:	0005883a 	mov	r2,zero
  809570:	003fee06 	br	80952c <__alt_data_end+0xff80952c>

00809574 <_fclose_r>:
  809574:	28003926 	beq	r5,zero,80965c <_fclose_r+0xe8>
  809578:	defffc04 	addi	sp,sp,-16
  80957c:	dc400115 	stw	r17,4(sp)
  809580:	dc000015 	stw	r16,0(sp)
  809584:	dfc00315 	stw	ra,12(sp)
  809588:	dc800215 	stw	r18,8(sp)
  80958c:	2023883a 	mov	r17,r4
  809590:	2821883a 	mov	r16,r5
  809594:	20000226 	beq	r4,zero,8095a0 <_fclose_r+0x2c>
  809598:	20800e17 	ldw	r2,56(r4)
  80959c:	10002726 	beq	r2,zero,80963c <_fclose_r+0xc8>
  8095a0:	8080030f 	ldh	r2,12(r16)
  8095a4:	1000071e 	bne	r2,zero,8095c4 <_fclose_r+0x50>
  8095a8:	0005883a 	mov	r2,zero
  8095ac:	dfc00317 	ldw	ra,12(sp)
  8095b0:	dc800217 	ldw	r18,8(sp)
  8095b4:	dc400117 	ldw	r17,4(sp)
  8095b8:	dc000017 	ldw	r16,0(sp)
  8095bc:	dec00404 	addi	sp,sp,16
  8095c0:	f800283a 	ret
  8095c4:	800b883a 	mov	r5,r16
  8095c8:	8809883a 	mov	r4,r17
  8095cc:	0804eb00 	call	804eb0 <__sflush_r>
  8095d0:	1025883a 	mov	r18,r2
  8095d4:	80800b17 	ldw	r2,44(r16)
  8095d8:	10000426 	beq	r2,zero,8095ec <_fclose_r+0x78>
  8095dc:	81400717 	ldw	r5,28(r16)
  8095e0:	8809883a 	mov	r4,r17
  8095e4:	103ee83a 	callr	r2
  8095e8:	10001616 	blt	r2,zero,809644 <_fclose_r+0xd0>
  8095ec:	8080030b 	ldhu	r2,12(r16)
  8095f0:	1080200c 	andi	r2,r2,128
  8095f4:	1000151e 	bne	r2,zero,80964c <_fclose_r+0xd8>
  8095f8:	81400c17 	ldw	r5,48(r16)
  8095fc:	28000526 	beq	r5,zero,809614 <_fclose_r+0xa0>
  809600:	80801004 	addi	r2,r16,64
  809604:	28800226 	beq	r5,r2,809610 <_fclose_r+0x9c>
  809608:	8809883a 	mov	r4,r17
  80960c:	080562c0 	call	80562c <_free_r>
  809610:	80000c15 	stw	zero,48(r16)
  809614:	81401117 	ldw	r5,68(r16)
  809618:	28000326 	beq	r5,zero,809628 <_fclose_r+0xb4>
  80961c:	8809883a 	mov	r4,r17
  809620:	080562c0 	call	80562c <_free_r>
  809624:	80001115 	stw	zero,68(r16)
  809628:	08054c80 	call	8054c8 <__sfp_lock_acquire>
  80962c:	8000030d 	sth	zero,12(r16)
  809630:	08054cc0 	call	8054cc <__sfp_lock_release>
  809634:	9005883a 	mov	r2,r18
  809638:	003fdc06 	br	8095ac <__alt_data_end+0xff8095ac>
  80963c:	08054b80 	call	8054b8 <__sinit>
  809640:	003fd706 	br	8095a0 <__alt_data_end+0xff8095a0>
  809644:	04bfffc4 	movi	r18,-1
  809648:	003fe806 	br	8095ec <__alt_data_end+0xff8095ec>
  80964c:	81400417 	ldw	r5,16(r16)
  809650:	8809883a 	mov	r4,r17
  809654:	080562c0 	call	80562c <_free_r>
  809658:	003fe706 	br	8095f8 <__alt_data_end+0xff8095f8>
  80965c:	0005883a 	mov	r2,zero
  809660:	f800283a 	ret

00809664 <fclose>:
  809664:	00802074 	movhi	r2,129
  809668:	10833404 	addi	r2,r2,3280
  80966c:	200b883a 	mov	r5,r4
  809670:	11000017 	ldw	r4,0(r2)
  809674:	08095741 	jmpi	809574 <_fclose_r>

00809678 <__fputwc>:
  809678:	defff804 	addi	sp,sp,-32
  80967c:	dcc00415 	stw	r19,16(sp)
  809680:	dc800315 	stw	r18,12(sp)
  809684:	dc000115 	stw	r16,4(sp)
  809688:	dfc00715 	stw	ra,28(sp)
  80968c:	dd400615 	stw	r21,24(sp)
  809690:	dd000515 	stw	r20,20(sp)
  809694:	dc400215 	stw	r17,8(sp)
  809698:	2027883a 	mov	r19,r4
  80969c:	2825883a 	mov	r18,r5
  8096a0:	3021883a 	mov	r16,r6
  8096a4:	0805b4c0 	call	805b4c <__locale_mb_cur_max>
  8096a8:	00c00044 	movi	r3,1
  8096ac:	10c03e26 	beq	r2,r3,8097a8 <__fputwc+0x130>
  8096b0:	81c01704 	addi	r7,r16,92
  8096b4:	900d883a 	mov	r6,r18
  8096b8:	d80b883a 	mov	r5,sp
  8096bc:	9809883a 	mov	r4,r19
  8096c0:	080a6d00 	call	80a6d0 <_wcrtomb_r>
  8096c4:	1029883a 	mov	r20,r2
  8096c8:	00bfffc4 	movi	r2,-1
  8096cc:	a0802026 	beq	r20,r2,809750 <__fputwc+0xd8>
  8096d0:	d9400003 	ldbu	r5,0(sp)
  8096d4:	a0001c26 	beq	r20,zero,809748 <__fputwc+0xd0>
  8096d8:	0023883a 	mov	r17,zero
  8096dc:	05400284 	movi	r21,10
  8096e0:	00000906 	br	809708 <__fputwc+0x90>
  8096e4:	80800017 	ldw	r2,0(r16)
  8096e8:	11400005 	stb	r5,0(r2)
  8096ec:	80c00017 	ldw	r3,0(r16)
  8096f0:	18c00044 	addi	r3,r3,1
  8096f4:	80c00015 	stw	r3,0(r16)
  8096f8:	8c400044 	addi	r17,r17,1
  8096fc:	dc45883a 	add	r2,sp,r17
  809700:	8d00112e 	bgeu	r17,r20,809748 <__fputwc+0xd0>
  809704:	11400003 	ldbu	r5,0(r2)
  809708:	80c00217 	ldw	r3,8(r16)
  80970c:	18ffffc4 	addi	r3,r3,-1
  809710:	80c00215 	stw	r3,8(r16)
  809714:	183ff30e 	bge	r3,zero,8096e4 <__alt_data_end+0xff8096e4>
  809718:	80800617 	ldw	r2,24(r16)
  80971c:	18801916 	blt	r3,r2,809784 <__fputwc+0x10c>
  809720:	80800017 	ldw	r2,0(r16)
  809724:	11400005 	stb	r5,0(r2)
  809728:	80800017 	ldw	r2,0(r16)
  80972c:	10c00003 	ldbu	r3,0(r2)
  809730:	10800044 	addi	r2,r2,1
  809734:	1d402326 	beq	r3,r21,8097c4 <__fputwc+0x14c>
  809738:	80800015 	stw	r2,0(r16)
  80973c:	8c400044 	addi	r17,r17,1
  809740:	dc45883a 	add	r2,sp,r17
  809744:	8d3fef36 	bltu	r17,r20,809704 <__alt_data_end+0xff809704>
  809748:	9005883a 	mov	r2,r18
  80974c:	00000406 	br	809760 <__fputwc+0xe8>
  809750:	80c0030b 	ldhu	r3,12(r16)
  809754:	a005883a 	mov	r2,r20
  809758:	18c01014 	ori	r3,r3,64
  80975c:	80c0030d 	sth	r3,12(r16)
  809760:	dfc00717 	ldw	ra,28(sp)
  809764:	dd400617 	ldw	r21,24(sp)
  809768:	dd000517 	ldw	r20,20(sp)
  80976c:	dcc00417 	ldw	r19,16(sp)
  809770:	dc800317 	ldw	r18,12(sp)
  809774:	dc400217 	ldw	r17,8(sp)
  809778:	dc000117 	ldw	r16,4(sp)
  80977c:	dec00804 	addi	sp,sp,32
  809780:	f800283a 	ret
  809784:	800d883a 	mov	r6,r16
  809788:	29403fcc 	andi	r5,r5,255
  80978c:	9809883a 	mov	r4,r19
  809790:	080a5780 	call	80a578 <__swbuf_r>
  809794:	10bfffe0 	cmpeqi	r2,r2,-1
  809798:	10803fcc 	andi	r2,r2,255
  80979c:	103fd626 	beq	r2,zero,8096f8 <__alt_data_end+0xff8096f8>
  8097a0:	00bfffc4 	movi	r2,-1
  8097a4:	003fee06 	br	809760 <__alt_data_end+0xff809760>
  8097a8:	90ffffc4 	addi	r3,r18,-1
  8097ac:	01003f84 	movi	r4,254
  8097b0:	20ffbf36 	bltu	r4,r3,8096b0 <__alt_data_end+0xff8096b0>
  8097b4:	900b883a 	mov	r5,r18
  8097b8:	dc800005 	stb	r18,0(sp)
  8097bc:	1029883a 	mov	r20,r2
  8097c0:	003fc506 	br	8096d8 <__alt_data_end+0xff8096d8>
  8097c4:	800d883a 	mov	r6,r16
  8097c8:	a80b883a 	mov	r5,r21
  8097cc:	9809883a 	mov	r4,r19
  8097d0:	080a5780 	call	80a578 <__swbuf_r>
  8097d4:	10bfffe0 	cmpeqi	r2,r2,-1
  8097d8:	003fef06 	br	809798 <__alt_data_end+0xff809798>

008097dc <_fputwc_r>:
  8097dc:	3080030b 	ldhu	r2,12(r6)
  8097e0:	10c8000c 	andi	r3,r2,8192
  8097e4:	1800051e 	bne	r3,zero,8097fc <_fputwc_r+0x20>
  8097e8:	30c01917 	ldw	r3,100(r6)
  8097ec:	10880014 	ori	r2,r2,8192
  8097f0:	3080030d 	sth	r2,12(r6)
  8097f4:	18880014 	ori	r2,r3,8192
  8097f8:	30801915 	stw	r2,100(r6)
  8097fc:	08096781 	jmpi	809678 <__fputwc>

00809800 <fputwc>:
  809800:	00802074 	movhi	r2,129
  809804:	defffc04 	addi	sp,sp,-16
  809808:	10833404 	addi	r2,r2,3280
  80980c:	dc000115 	stw	r16,4(sp)
  809810:	14000017 	ldw	r16,0(r2)
  809814:	dc400215 	stw	r17,8(sp)
  809818:	dfc00315 	stw	ra,12(sp)
  80981c:	2023883a 	mov	r17,r4
  809820:	80000226 	beq	r16,zero,80982c <fputwc+0x2c>
  809824:	80800e17 	ldw	r2,56(r16)
  809828:	10001026 	beq	r2,zero,80986c <fputwc+0x6c>
  80982c:	2880030b 	ldhu	r2,12(r5)
  809830:	10c8000c 	andi	r3,r2,8192
  809834:	1800051e 	bne	r3,zero,80984c <fputwc+0x4c>
  809838:	28c01917 	ldw	r3,100(r5)
  80983c:	10880014 	ori	r2,r2,8192
  809840:	2880030d 	sth	r2,12(r5)
  809844:	18880014 	ori	r2,r3,8192
  809848:	28801915 	stw	r2,100(r5)
  80984c:	280d883a 	mov	r6,r5
  809850:	8009883a 	mov	r4,r16
  809854:	880b883a 	mov	r5,r17
  809858:	dfc00317 	ldw	ra,12(sp)
  80985c:	dc400217 	ldw	r17,8(sp)
  809860:	dc000117 	ldw	r16,4(sp)
  809864:	dec00404 	addi	sp,sp,16
  809868:	08096781 	jmpi	809678 <__fputwc>
  80986c:	8009883a 	mov	r4,r16
  809870:	d9400015 	stw	r5,0(sp)
  809874:	08054b80 	call	8054b8 <__sinit>
  809878:	d9400017 	ldw	r5,0(sp)
  80987c:	003feb06 	br	80982c <__alt_data_end+0xff80982c>

00809880 <_fstat_r>:
  809880:	defffd04 	addi	sp,sp,-12
  809884:	2805883a 	mov	r2,r5
  809888:	dc000015 	stw	r16,0(sp)
  80988c:	04002074 	movhi	r16,129
  809890:	dc400115 	stw	r17,4(sp)
  809894:	8405f704 	addi	r16,r16,6108
  809898:	2023883a 	mov	r17,r4
  80989c:	300b883a 	mov	r5,r6
  8098a0:	1009883a 	mov	r4,r2
  8098a4:	dfc00215 	stw	ra,8(sp)
  8098a8:	80000015 	stw	zero,0(r16)
  8098ac:	080dfe80 	call	80dfe8 <fstat>
  8098b0:	00ffffc4 	movi	r3,-1
  8098b4:	10c00526 	beq	r2,r3,8098cc <_fstat_r+0x4c>
  8098b8:	dfc00217 	ldw	ra,8(sp)
  8098bc:	dc400117 	ldw	r17,4(sp)
  8098c0:	dc000017 	ldw	r16,0(sp)
  8098c4:	dec00304 	addi	sp,sp,12
  8098c8:	f800283a 	ret
  8098cc:	80c00017 	ldw	r3,0(r16)
  8098d0:	183ff926 	beq	r3,zero,8098b8 <__alt_data_end+0xff8098b8>
  8098d4:	88c00015 	stw	r3,0(r17)
  8098d8:	003ff706 	br	8098b8 <__alt_data_end+0xff8098b8>

008098dc <__sfvwrite_r>:
  8098dc:	30800217 	ldw	r2,8(r6)
  8098e0:	10006726 	beq	r2,zero,809a80 <__sfvwrite_r+0x1a4>
  8098e4:	28c0030b 	ldhu	r3,12(r5)
  8098e8:	defff404 	addi	sp,sp,-48
  8098ec:	dd400715 	stw	r21,28(sp)
  8098f0:	dd000615 	stw	r20,24(sp)
  8098f4:	dc000215 	stw	r16,8(sp)
  8098f8:	dfc00b15 	stw	ra,44(sp)
  8098fc:	df000a15 	stw	fp,40(sp)
  809900:	ddc00915 	stw	r23,36(sp)
  809904:	dd800815 	stw	r22,32(sp)
  809908:	dcc00515 	stw	r19,20(sp)
  80990c:	dc800415 	stw	r18,16(sp)
  809910:	dc400315 	stw	r17,12(sp)
  809914:	1880020c 	andi	r2,r3,8
  809918:	2821883a 	mov	r16,r5
  80991c:	202b883a 	mov	r21,r4
  809920:	3029883a 	mov	r20,r6
  809924:	10002726 	beq	r2,zero,8099c4 <__sfvwrite_r+0xe8>
  809928:	28800417 	ldw	r2,16(r5)
  80992c:	10002526 	beq	r2,zero,8099c4 <__sfvwrite_r+0xe8>
  809930:	1880008c 	andi	r2,r3,2
  809934:	a4400017 	ldw	r17,0(r20)
  809938:	10002a26 	beq	r2,zero,8099e4 <__sfvwrite_r+0x108>
  80993c:	05a00034 	movhi	r22,32768
  809940:	0027883a 	mov	r19,zero
  809944:	0025883a 	mov	r18,zero
  809948:	b5bf0004 	addi	r22,r22,-1024
  80994c:	980d883a 	mov	r6,r19
  809950:	a809883a 	mov	r4,r21
  809954:	90004626 	beq	r18,zero,809a70 <__sfvwrite_r+0x194>
  809958:	900f883a 	mov	r7,r18
  80995c:	b480022e 	bgeu	r22,r18,809968 <__sfvwrite_r+0x8c>
  809960:	01e00034 	movhi	r7,32768
  809964:	39ff0004 	addi	r7,r7,-1024
  809968:	80800917 	ldw	r2,36(r16)
  80996c:	81400717 	ldw	r5,28(r16)
  809970:	103ee83a 	callr	r2
  809974:	00805a0e 	bge	zero,r2,809ae0 <__sfvwrite_r+0x204>
  809978:	a0c00217 	ldw	r3,8(r20)
  80997c:	98a7883a 	add	r19,r19,r2
  809980:	90a5c83a 	sub	r18,r18,r2
  809984:	1885c83a 	sub	r2,r3,r2
  809988:	a0800215 	stw	r2,8(r20)
  80998c:	103fef1e 	bne	r2,zero,80994c <__alt_data_end+0xff80994c>
  809990:	0005883a 	mov	r2,zero
  809994:	dfc00b17 	ldw	ra,44(sp)
  809998:	df000a17 	ldw	fp,40(sp)
  80999c:	ddc00917 	ldw	r23,36(sp)
  8099a0:	dd800817 	ldw	r22,32(sp)
  8099a4:	dd400717 	ldw	r21,28(sp)
  8099a8:	dd000617 	ldw	r20,24(sp)
  8099ac:	dcc00517 	ldw	r19,20(sp)
  8099b0:	dc800417 	ldw	r18,16(sp)
  8099b4:	dc400317 	ldw	r17,12(sp)
  8099b8:	dc000217 	ldw	r16,8(sp)
  8099bc:	dec00c04 	addi	sp,sp,48
  8099c0:	f800283a 	ret
  8099c4:	800b883a 	mov	r5,r16
  8099c8:	a809883a 	mov	r4,r21
  8099cc:	08034ac0 	call	8034ac <__swsetup_r>
  8099d0:	1000ee1e 	bne	r2,zero,809d8c <__sfvwrite_r+0x4b0>
  8099d4:	80c0030b 	ldhu	r3,12(r16)
  8099d8:	a4400017 	ldw	r17,0(r20)
  8099dc:	1880008c 	andi	r2,r3,2
  8099e0:	103fd61e 	bne	r2,zero,80993c <__alt_data_end+0xff80993c>
  8099e4:	1880004c 	andi	r2,r3,1
  8099e8:	1000421e 	bne	r2,zero,809af4 <__sfvwrite_r+0x218>
  8099ec:	0039883a 	mov	fp,zero
  8099f0:	0025883a 	mov	r18,zero
  8099f4:	90001a26 	beq	r18,zero,809a60 <__sfvwrite_r+0x184>
  8099f8:	1880800c 	andi	r2,r3,512
  8099fc:	84c00217 	ldw	r19,8(r16)
  809a00:	10002126 	beq	r2,zero,809a88 <__sfvwrite_r+0x1ac>
  809a04:	982f883a 	mov	r23,r19
  809a08:	94c09636 	bltu	r18,r19,809c64 <__sfvwrite_r+0x388>
  809a0c:	1881200c 	andi	r2,r3,1152
  809a10:	1000a11e 	bne	r2,zero,809c98 <__sfvwrite_r+0x3bc>
  809a14:	81000017 	ldw	r4,0(r16)
  809a18:	b80d883a 	mov	r6,r23
  809a1c:	e00b883a 	mov	r5,fp
  809a20:	0809e580 	call	809e58 <memmove>
  809a24:	80c00217 	ldw	r3,8(r16)
  809a28:	81000017 	ldw	r4,0(r16)
  809a2c:	9005883a 	mov	r2,r18
  809a30:	1ce7c83a 	sub	r19,r3,r19
  809a34:	25cf883a 	add	r7,r4,r23
  809a38:	84c00215 	stw	r19,8(r16)
  809a3c:	81c00015 	stw	r7,0(r16)
  809a40:	a0c00217 	ldw	r3,8(r20)
  809a44:	e0b9883a 	add	fp,fp,r2
  809a48:	90a5c83a 	sub	r18,r18,r2
  809a4c:	18a7c83a 	sub	r19,r3,r2
  809a50:	a4c00215 	stw	r19,8(r20)
  809a54:	983fce26 	beq	r19,zero,809990 <__alt_data_end+0xff809990>
  809a58:	80c0030b 	ldhu	r3,12(r16)
  809a5c:	903fe61e 	bne	r18,zero,8099f8 <__alt_data_end+0xff8099f8>
  809a60:	8f000017 	ldw	fp,0(r17)
  809a64:	8c800117 	ldw	r18,4(r17)
  809a68:	8c400204 	addi	r17,r17,8
  809a6c:	003fe106 	br	8099f4 <__alt_data_end+0xff8099f4>
  809a70:	8cc00017 	ldw	r19,0(r17)
  809a74:	8c800117 	ldw	r18,4(r17)
  809a78:	8c400204 	addi	r17,r17,8
  809a7c:	003fb306 	br	80994c <__alt_data_end+0xff80994c>
  809a80:	0005883a 	mov	r2,zero
  809a84:	f800283a 	ret
  809a88:	81000017 	ldw	r4,0(r16)
  809a8c:	80800417 	ldw	r2,16(r16)
  809a90:	11005a36 	bltu	r2,r4,809bfc <__sfvwrite_r+0x320>
  809a94:	85c00517 	ldw	r23,20(r16)
  809a98:	95c05836 	bltu	r18,r23,809bfc <__sfvwrite_r+0x320>
  809a9c:	00a00034 	movhi	r2,32768
  809aa0:	10bfffc4 	addi	r2,r2,-1
  809aa4:	9009883a 	mov	r4,r18
  809aa8:	1480012e 	bgeu	r2,r18,809ab0 <__sfvwrite_r+0x1d4>
  809aac:	1009883a 	mov	r4,r2
  809ab0:	b80b883a 	mov	r5,r23
  809ab4:	080b4780 	call	80b478 <__divsi3>
  809ab8:	b80b883a 	mov	r5,r23
  809abc:	1009883a 	mov	r4,r2
  809ac0:	08005640 	call	800564 <__mulsi3>
  809ac4:	81400717 	ldw	r5,28(r16)
  809ac8:	80c00917 	ldw	r3,36(r16)
  809acc:	100f883a 	mov	r7,r2
  809ad0:	e00d883a 	mov	r6,fp
  809ad4:	a809883a 	mov	r4,r21
  809ad8:	183ee83a 	callr	r3
  809adc:	00bfd816 	blt	zero,r2,809a40 <__alt_data_end+0xff809a40>
  809ae0:	8080030b 	ldhu	r2,12(r16)
  809ae4:	10801014 	ori	r2,r2,64
  809ae8:	8080030d 	sth	r2,12(r16)
  809aec:	00bfffc4 	movi	r2,-1
  809af0:	003fa806 	br	809994 <__alt_data_end+0xff809994>
  809af4:	0027883a 	mov	r19,zero
  809af8:	0011883a 	mov	r8,zero
  809afc:	0039883a 	mov	fp,zero
  809b00:	0025883a 	mov	r18,zero
  809b04:	90001f26 	beq	r18,zero,809b84 <__sfvwrite_r+0x2a8>
  809b08:	40005a26 	beq	r8,zero,809c74 <__sfvwrite_r+0x398>
  809b0c:	982d883a 	mov	r22,r19
  809b10:	94c0012e 	bgeu	r18,r19,809b18 <__sfvwrite_r+0x23c>
  809b14:	902d883a 	mov	r22,r18
  809b18:	81000017 	ldw	r4,0(r16)
  809b1c:	80800417 	ldw	r2,16(r16)
  809b20:	b02f883a 	mov	r23,r22
  809b24:	81c00517 	ldw	r7,20(r16)
  809b28:	1100032e 	bgeu	r2,r4,809b38 <__sfvwrite_r+0x25c>
  809b2c:	80c00217 	ldw	r3,8(r16)
  809b30:	38c7883a 	add	r3,r7,r3
  809b34:	1d801816 	blt	r3,r22,809b98 <__sfvwrite_r+0x2bc>
  809b38:	b1c03e16 	blt	r22,r7,809c34 <__sfvwrite_r+0x358>
  809b3c:	80800917 	ldw	r2,36(r16)
  809b40:	81400717 	ldw	r5,28(r16)
  809b44:	e00d883a 	mov	r6,fp
  809b48:	da000115 	stw	r8,4(sp)
  809b4c:	a809883a 	mov	r4,r21
  809b50:	103ee83a 	callr	r2
  809b54:	102f883a 	mov	r23,r2
  809b58:	da000117 	ldw	r8,4(sp)
  809b5c:	00bfe00e 	bge	zero,r2,809ae0 <__alt_data_end+0xff809ae0>
  809b60:	9de7c83a 	sub	r19,r19,r23
  809b64:	98001f26 	beq	r19,zero,809be4 <__sfvwrite_r+0x308>
  809b68:	a0800217 	ldw	r2,8(r20)
  809b6c:	e5f9883a 	add	fp,fp,r23
  809b70:	95e5c83a 	sub	r18,r18,r23
  809b74:	15efc83a 	sub	r23,r2,r23
  809b78:	a5c00215 	stw	r23,8(r20)
  809b7c:	b83f8426 	beq	r23,zero,809990 <__alt_data_end+0xff809990>
  809b80:	903fe11e 	bne	r18,zero,809b08 <__alt_data_end+0xff809b08>
  809b84:	8f000017 	ldw	fp,0(r17)
  809b88:	8c800117 	ldw	r18,4(r17)
  809b8c:	0011883a 	mov	r8,zero
  809b90:	8c400204 	addi	r17,r17,8
  809b94:	003fdb06 	br	809b04 <__alt_data_end+0xff809b04>
  809b98:	180d883a 	mov	r6,r3
  809b9c:	e00b883a 	mov	r5,fp
  809ba0:	da000115 	stw	r8,4(sp)
  809ba4:	d8c00015 	stw	r3,0(sp)
  809ba8:	0809e580 	call	809e58 <memmove>
  809bac:	d8c00017 	ldw	r3,0(sp)
  809bb0:	80800017 	ldw	r2,0(r16)
  809bb4:	800b883a 	mov	r5,r16
  809bb8:	a809883a 	mov	r4,r21
  809bbc:	10c5883a 	add	r2,r2,r3
  809bc0:	80800015 	stw	r2,0(r16)
  809bc4:	d8c00015 	stw	r3,0(sp)
  809bc8:	08050cc0 	call	8050cc <_fflush_r>
  809bcc:	d8c00017 	ldw	r3,0(sp)
  809bd0:	da000117 	ldw	r8,4(sp)
  809bd4:	103fc21e 	bne	r2,zero,809ae0 <__alt_data_end+0xff809ae0>
  809bd8:	182f883a 	mov	r23,r3
  809bdc:	9de7c83a 	sub	r19,r19,r23
  809be0:	983fe11e 	bne	r19,zero,809b68 <__alt_data_end+0xff809b68>
  809be4:	800b883a 	mov	r5,r16
  809be8:	a809883a 	mov	r4,r21
  809bec:	08050cc0 	call	8050cc <_fflush_r>
  809bf0:	103fbb1e 	bne	r2,zero,809ae0 <__alt_data_end+0xff809ae0>
  809bf4:	0011883a 	mov	r8,zero
  809bf8:	003fdb06 	br	809b68 <__alt_data_end+0xff809b68>
  809bfc:	94c0012e 	bgeu	r18,r19,809c04 <__sfvwrite_r+0x328>
  809c00:	9027883a 	mov	r19,r18
  809c04:	980d883a 	mov	r6,r19
  809c08:	e00b883a 	mov	r5,fp
  809c0c:	0809e580 	call	809e58 <memmove>
  809c10:	80800217 	ldw	r2,8(r16)
  809c14:	80c00017 	ldw	r3,0(r16)
  809c18:	14c5c83a 	sub	r2,r2,r19
  809c1c:	1cc7883a 	add	r3,r3,r19
  809c20:	80800215 	stw	r2,8(r16)
  809c24:	80c00015 	stw	r3,0(r16)
  809c28:	10004326 	beq	r2,zero,809d38 <__sfvwrite_r+0x45c>
  809c2c:	9805883a 	mov	r2,r19
  809c30:	003f8306 	br	809a40 <__alt_data_end+0xff809a40>
  809c34:	b00d883a 	mov	r6,r22
  809c38:	e00b883a 	mov	r5,fp
  809c3c:	da000115 	stw	r8,4(sp)
  809c40:	0809e580 	call	809e58 <memmove>
  809c44:	80800217 	ldw	r2,8(r16)
  809c48:	80c00017 	ldw	r3,0(r16)
  809c4c:	da000117 	ldw	r8,4(sp)
  809c50:	1585c83a 	sub	r2,r2,r22
  809c54:	1dad883a 	add	r22,r3,r22
  809c58:	80800215 	stw	r2,8(r16)
  809c5c:	85800015 	stw	r22,0(r16)
  809c60:	003fbf06 	br	809b60 <__alt_data_end+0xff809b60>
  809c64:	81000017 	ldw	r4,0(r16)
  809c68:	9027883a 	mov	r19,r18
  809c6c:	902f883a 	mov	r23,r18
  809c70:	003f6906 	br	809a18 <__alt_data_end+0xff809a18>
  809c74:	900d883a 	mov	r6,r18
  809c78:	01400284 	movi	r5,10
  809c7c:	e009883a 	mov	r4,fp
  809c80:	08065680 	call	806568 <memchr>
  809c84:	10003e26 	beq	r2,zero,809d80 <__sfvwrite_r+0x4a4>
  809c88:	10800044 	addi	r2,r2,1
  809c8c:	1727c83a 	sub	r19,r2,fp
  809c90:	02000044 	movi	r8,1
  809c94:	003f9d06 	br	809b0c <__alt_data_end+0xff809b0c>
  809c98:	80800517 	ldw	r2,20(r16)
  809c9c:	81400417 	ldw	r5,16(r16)
  809ca0:	81c00017 	ldw	r7,0(r16)
  809ca4:	10a7883a 	add	r19,r2,r2
  809ca8:	9885883a 	add	r2,r19,r2
  809cac:	1026d7fa 	srli	r19,r2,31
  809cb0:	396dc83a 	sub	r22,r7,r5
  809cb4:	b1000044 	addi	r4,r22,1
  809cb8:	9885883a 	add	r2,r19,r2
  809cbc:	1027d07a 	srai	r19,r2,1
  809cc0:	2485883a 	add	r2,r4,r18
  809cc4:	980d883a 	mov	r6,r19
  809cc8:	9880022e 	bgeu	r19,r2,809cd4 <__sfvwrite_r+0x3f8>
  809ccc:	1027883a 	mov	r19,r2
  809cd0:	100d883a 	mov	r6,r2
  809cd4:	18c1000c 	andi	r3,r3,1024
  809cd8:	18001c26 	beq	r3,zero,809d4c <__sfvwrite_r+0x470>
  809cdc:	300b883a 	mov	r5,r6
  809ce0:	a809883a 	mov	r4,r21
  809ce4:	0805d5c0 	call	805d5c <_malloc_r>
  809ce8:	102f883a 	mov	r23,r2
  809cec:	10002926 	beq	r2,zero,809d94 <__sfvwrite_r+0x4b8>
  809cf0:	81400417 	ldw	r5,16(r16)
  809cf4:	b00d883a 	mov	r6,r22
  809cf8:	1009883a 	mov	r4,r2
  809cfc:	080664c0 	call	80664c <memcpy>
  809d00:	8080030b 	ldhu	r2,12(r16)
  809d04:	00fedfc4 	movi	r3,-1153
  809d08:	10c4703a 	and	r2,r2,r3
  809d0c:	10802014 	ori	r2,r2,128
  809d10:	8080030d 	sth	r2,12(r16)
  809d14:	bd89883a 	add	r4,r23,r22
  809d18:	9d8fc83a 	sub	r7,r19,r22
  809d1c:	85c00415 	stw	r23,16(r16)
  809d20:	84c00515 	stw	r19,20(r16)
  809d24:	81000015 	stw	r4,0(r16)
  809d28:	9027883a 	mov	r19,r18
  809d2c:	81c00215 	stw	r7,8(r16)
  809d30:	902f883a 	mov	r23,r18
  809d34:	003f3806 	br	809a18 <__alt_data_end+0xff809a18>
  809d38:	800b883a 	mov	r5,r16
  809d3c:	a809883a 	mov	r4,r21
  809d40:	08050cc0 	call	8050cc <_fflush_r>
  809d44:	103fb926 	beq	r2,zero,809c2c <__alt_data_end+0xff809c2c>
  809d48:	003f6506 	br	809ae0 <__alt_data_end+0xff809ae0>
  809d4c:	a809883a 	mov	r4,r21
  809d50:	080a0140 	call	80a014 <_realloc_r>
  809d54:	102f883a 	mov	r23,r2
  809d58:	103fee1e 	bne	r2,zero,809d14 <__alt_data_end+0xff809d14>
  809d5c:	81400417 	ldw	r5,16(r16)
  809d60:	a809883a 	mov	r4,r21
  809d64:	080562c0 	call	80562c <_free_r>
  809d68:	8080030b 	ldhu	r2,12(r16)
  809d6c:	00ffdfc4 	movi	r3,-129
  809d70:	1884703a 	and	r2,r3,r2
  809d74:	00c00304 	movi	r3,12
  809d78:	a8c00015 	stw	r3,0(r21)
  809d7c:	003f5906 	br	809ae4 <__alt_data_end+0xff809ae4>
  809d80:	94c00044 	addi	r19,r18,1
  809d84:	02000044 	movi	r8,1
  809d88:	003f6006 	br	809b0c <__alt_data_end+0xff809b0c>
  809d8c:	00bfffc4 	movi	r2,-1
  809d90:	003f0006 	br	809994 <__alt_data_end+0xff809994>
  809d94:	00800304 	movi	r2,12
  809d98:	a8800015 	stw	r2,0(r21)
  809d9c:	8080030b 	ldhu	r2,12(r16)
  809da0:	003f5006 	br	809ae4 <__alt_data_end+0xff809ae4>

00809da4 <_isatty_r>:
  809da4:	defffd04 	addi	sp,sp,-12
  809da8:	dc000015 	stw	r16,0(sp)
  809dac:	04002074 	movhi	r16,129
  809db0:	dc400115 	stw	r17,4(sp)
  809db4:	8405f704 	addi	r16,r16,6108
  809db8:	2023883a 	mov	r17,r4
  809dbc:	2809883a 	mov	r4,r5
  809dc0:	dfc00215 	stw	ra,8(sp)
  809dc4:	80000015 	stw	zero,0(r16)
  809dc8:	080e0dc0 	call	80e0dc <isatty>
  809dcc:	00ffffc4 	movi	r3,-1
  809dd0:	10c00526 	beq	r2,r3,809de8 <_isatty_r+0x44>
  809dd4:	dfc00217 	ldw	ra,8(sp)
  809dd8:	dc400117 	ldw	r17,4(sp)
  809ddc:	dc000017 	ldw	r16,0(sp)
  809de0:	dec00304 	addi	sp,sp,12
  809de4:	f800283a 	ret
  809de8:	80c00017 	ldw	r3,0(r16)
  809dec:	183ff926 	beq	r3,zero,809dd4 <__alt_data_end+0xff809dd4>
  809df0:	88c00015 	stw	r3,0(r17)
  809df4:	003ff706 	br	809dd4 <__alt_data_end+0xff809dd4>

00809df8 <_lseek_r>:
  809df8:	defffd04 	addi	sp,sp,-12
  809dfc:	2805883a 	mov	r2,r5
  809e00:	dc000015 	stw	r16,0(sp)
  809e04:	04002074 	movhi	r16,129
  809e08:	dc400115 	stw	r17,4(sp)
  809e0c:	300b883a 	mov	r5,r6
  809e10:	8405f704 	addi	r16,r16,6108
  809e14:	2023883a 	mov	r17,r4
  809e18:	380d883a 	mov	r6,r7
  809e1c:	1009883a 	mov	r4,r2
  809e20:	dfc00215 	stw	ra,8(sp)
  809e24:	80000015 	stw	zero,0(r16)
  809e28:	080e2b00 	call	80e2b0 <lseek>
  809e2c:	00ffffc4 	movi	r3,-1
  809e30:	10c00526 	beq	r2,r3,809e48 <_lseek_r+0x50>
  809e34:	dfc00217 	ldw	ra,8(sp)
  809e38:	dc400117 	ldw	r17,4(sp)
  809e3c:	dc000017 	ldw	r16,0(sp)
  809e40:	dec00304 	addi	sp,sp,12
  809e44:	f800283a 	ret
  809e48:	80c00017 	ldw	r3,0(r16)
  809e4c:	183ff926 	beq	r3,zero,809e34 <__alt_data_end+0xff809e34>
  809e50:	88c00015 	stw	r3,0(r17)
  809e54:	003ff706 	br	809e34 <__alt_data_end+0xff809e34>

00809e58 <memmove>:
  809e58:	2005883a 	mov	r2,r4
  809e5c:	29000b2e 	bgeu	r5,r4,809e8c <memmove+0x34>
  809e60:	298f883a 	add	r7,r5,r6
  809e64:	21c0092e 	bgeu	r4,r7,809e8c <memmove+0x34>
  809e68:	2187883a 	add	r3,r4,r6
  809e6c:	198bc83a 	sub	r5,r3,r6
  809e70:	30004826 	beq	r6,zero,809f94 <memmove+0x13c>
  809e74:	39ffffc4 	addi	r7,r7,-1
  809e78:	39000003 	ldbu	r4,0(r7)
  809e7c:	18ffffc4 	addi	r3,r3,-1
  809e80:	19000005 	stb	r4,0(r3)
  809e84:	28fffb1e 	bne	r5,r3,809e74 <__alt_data_end+0xff809e74>
  809e88:	f800283a 	ret
  809e8c:	00c003c4 	movi	r3,15
  809e90:	1980412e 	bgeu	r3,r6,809f98 <memmove+0x140>
  809e94:	2886b03a 	or	r3,r5,r2
  809e98:	18c000cc 	andi	r3,r3,3
  809e9c:	1800401e 	bne	r3,zero,809fa0 <memmove+0x148>
  809ea0:	33fffc04 	addi	r15,r6,-16
  809ea4:	781ed13a 	srli	r15,r15,4
  809ea8:	28c00104 	addi	r3,r5,4
  809eac:	13400104 	addi	r13,r2,4
  809eb0:	781c913a 	slli	r14,r15,4
  809eb4:	2b000204 	addi	r12,r5,8
  809eb8:	12c00204 	addi	r11,r2,8
  809ebc:	73800504 	addi	r14,r14,20
  809ec0:	2a800304 	addi	r10,r5,12
  809ec4:	12400304 	addi	r9,r2,12
  809ec8:	2b9d883a 	add	r14,r5,r14
  809ecc:	2811883a 	mov	r8,r5
  809ed0:	100f883a 	mov	r7,r2
  809ed4:	41000017 	ldw	r4,0(r8)
  809ed8:	39c00404 	addi	r7,r7,16
  809edc:	18c00404 	addi	r3,r3,16
  809ee0:	393ffc15 	stw	r4,-16(r7)
  809ee4:	193ffc17 	ldw	r4,-16(r3)
  809ee8:	6b400404 	addi	r13,r13,16
  809eec:	5ac00404 	addi	r11,r11,16
  809ef0:	693ffc15 	stw	r4,-16(r13)
  809ef4:	61000017 	ldw	r4,0(r12)
  809ef8:	4a400404 	addi	r9,r9,16
  809efc:	42000404 	addi	r8,r8,16
  809f00:	593ffc15 	stw	r4,-16(r11)
  809f04:	51000017 	ldw	r4,0(r10)
  809f08:	63000404 	addi	r12,r12,16
  809f0c:	52800404 	addi	r10,r10,16
  809f10:	493ffc15 	stw	r4,-16(r9)
  809f14:	1bbfef1e 	bne	r3,r14,809ed4 <__alt_data_end+0xff809ed4>
  809f18:	79000044 	addi	r4,r15,1
  809f1c:	2008913a 	slli	r4,r4,4
  809f20:	328003cc 	andi	r10,r6,15
  809f24:	02c000c4 	movi	r11,3
  809f28:	1107883a 	add	r3,r2,r4
  809f2c:	290b883a 	add	r5,r5,r4
  809f30:	5a801e2e 	bgeu	r11,r10,809fac <memmove+0x154>
  809f34:	1813883a 	mov	r9,r3
  809f38:	2811883a 	mov	r8,r5
  809f3c:	500f883a 	mov	r7,r10
  809f40:	41000017 	ldw	r4,0(r8)
  809f44:	4a400104 	addi	r9,r9,4
  809f48:	39ffff04 	addi	r7,r7,-4
  809f4c:	493fff15 	stw	r4,-4(r9)
  809f50:	42000104 	addi	r8,r8,4
  809f54:	59fffa36 	bltu	r11,r7,809f40 <__alt_data_end+0xff809f40>
  809f58:	513fff04 	addi	r4,r10,-4
  809f5c:	2008d0ba 	srli	r4,r4,2
  809f60:	318000cc 	andi	r6,r6,3
  809f64:	21000044 	addi	r4,r4,1
  809f68:	2109883a 	add	r4,r4,r4
  809f6c:	2109883a 	add	r4,r4,r4
  809f70:	1907883a 	add	r3,r3,r4
  809f74:	290b883a 	add	r5,r5,r4
  809f78:	30000b26 	beq	r6,zero,809fa8 <memmove+0x150>
  809f7c:	198d883a 	add	r6,r3,r6
  809f80:	29c00003 	ldbu	r7,0(r5)
  809f84:	18c00044 	addi	r3,r3,1
  809f88:	29400044 	addi	r5,r5,1
  809f8c:	19ffffc5 	stb	r7,-1(r3)
  809f90:	19bffb1e 	bne	r3,r6,809f80 <__alt_data_end+0xff809f80>
  809f94:	f800283a 	ret
  809f98:	1007883a 	mov	r3,r2
  809f9c:	003ff606 	br	809f78 <__alt_data_end+0xff809f78>
  809fa0:	1007883a 	mov	r3,r2
  809fa4:	003ff506 	br	809f7c <__alt_data_end+0xff809f7c>
  809fa8:	f800283a 	ret
  809fac:	500d883a 	mov	r6,r10
  809fb0:	003ff106 	br	809f78 <__alt_data_end+0xff809f78>

00809fb4 <_read_r>:
  809fb4:	defffd04 	addi	sp,sp,-12
  809fb8:	2805883a 	mov	r2,r5
  809fbc:	dc000015 	stw	r16,0(sp)
  809fc0:	04002074 	movhi	r16,129
  809fc4:	dc400115 	stw	r17,4(sp)
  809fc8:	300b883a 	mov	r5,r6
  809fcc:	8405f704 	addi	r16,r16,6108
  809fd0:	2023883a 	mov	r17,r4
  809fd4:	380d883a 	mov	r6,r7
  809fd8:	1009883a 	mov	r4,r2
  809fdc:	dfc00215 	stw	ra,8(sp)
  809fe0:	80000015 	stw	zero,0(r16)
  809fe4:	080e4c80 	call	80e4c8 <read>
  809fe8:	00ffffc4 	movi	r3,-1
  809fec:	10c00526 	beq	r2,r3,80a004 <_read_r+0x50>
  809ff0:	dfc00217 	ldw	ra,8(sp)
  809ff4:	dc400117 	ldw	r17,4(sp)
  809ff8:	dc000017 	ldw	r16,0(sp)
  809ffc:	dec00304 	addi	sp,sp,12
  80a000:	f800283a 	ret
  80a004:	80c00017 	ldw	r3,0(r16)
  80a008:	183ff926 	beq	r3,zero,809ff0 <__alt_data_end+0xff809ff0>
  80a00c:	88c00015 	stw	r3,0(r17)
  80a010:	003ff706 	br	809ff0 <__alt_data_end+0xff809ff0>

0080a014 <_realloc_r>:
  80a014:	defff604 	addi	sp,sp,-40
  80a018:	dc800215 	stw	r18,8(sp)
  80a01c:	dfc00915 	stw	ra,36(sp)
  80a020:	df000815 	stw	fp,32(sp)
  80a024:	ddc00715 	stw	r23,28(sp)
  80a028:	dd800615 	stw	r22,24(sp)
  80a02c:	dd400515 	stw	r21,20(sp)
  80a030:	dd000415 	stw	r20,16(sp)
  80a034:	dcc00315 	stw	r19,12(sp)
  80a038:	dc400115 	stw	r17,4(sp)
  80a03c:	dc000015 	stw	r16,0(sp)
  80a040:	3025883a 	mov	r18,r6
  80a044:	2800b726 	beq	r5,zero,80a324 <_realloc_r+0x310>
  80a048:	282b883a 	mov	r21,r5
  80a04c:	2029883a 	mov	r20,r4
  80a050:	080e4080 	call	80e408 <__malloc_lock>
  80a054:	a8bfff17 	ldw	r2,-4(r21)
  80a058:	043fff04 	movi	r16,-4
  80a05c:	90c002c4 	addi	r3,r18,11
  80a060:	01000584 	movi	r4,22
  80a064:	acfffe04 	addi	r19,r21,-8
  80a068:	1420703a 	and	r16,r2,r16
  80a06c:	20c0332e 	bgeu	r4,r3,80a13c <_realloc_r+0x128>
  80a070:	047ffe04 	movi	r17,-8
  80a074:	1c62703a 	and	r17,r3,r17
  80a078:	8807883a 	mov	r3,r17
  80a07c:	88005816 	blt	r17,zero,80a1e0 <_realloc_r+0x1cc>
  80a080:	8c805736 	bltu	r17,r18,80a1e0 <_realloc_r+0x1cc>
  80a084:	80c0300e 	bge	r16,r3,80a148 <_realloc_r+0x134>
  80a088:	07002074 	movhi	fp,129
  80a08c:	e701bc04 	addi	fp,fp,1776
  80a090:	e1c00217 	ldw	r7,8(fp)
  80a094:	9c09883a 	add	r4,r19,r16
  80a098:	22000117 	ldw	r8,4(r4)
  80a09c:	21c06326 	beq	r4,r7,80a22c <_realloc_r+0x218>
  80a0a0:	017fff84 	movi	r5,-2
  80a0a4:	414a703a 	and	r5,r8,r5
  80a0a8:	214b883a 	add	r5,r4,r5
  80a0ac:	29800117 	ldw	r6,4(r5)
  80a0b0:	3180004c 	andi	r6,r6,1
  80a0b4:	30003f26 	beq	r6,zero,80a1b4 <_realloc_r+0x1a0>
  80a0b8:	1080004c 	andi	r2,r2,1
  80a0bc:	10008326 	beq	r2,zero,80a2cc <_realloc_r+0x2b8>
  80a0c0:	900b883a 	mov	r5,r18
  80a0c4:	a009883a 	mov	r4,r20
  80a0c8:	0805d5c0 	call	805d5c <_malloc_r>
  80a0cc:	1025883a 	mov	r18,r2
  80a0d0:	10011e26 	beq	r2,zero,80a54c <_realloc_r+0x538>
  80a0d4:	a93fff17 	ldw	r4,-4(r21)
  80a0d8:	10fffe04 	addi	r3,r2,-8
  80a0dc:	00bfff84 	movi	r2,-2
  80a0e0:	2084703a 	and	r2,r4,r2
  80a0e4:	9885883a 	add	r2,r19,r2
  80a0e8:	1880ee26 	beq	r3,r2,80a4a4 <_realloc_r+0x490>
  80a0ec:	81bfff04 	addi	r6,r16,-4
  80a0f0:	00800904 	movi	r2,36
  80a0f4:	1180b836 	bltu	r2,r6,80a3d8 <_realloc_r+0x3c4>
  80a0f8:	00c004c4 	movi	r3,19
  80a0fc:	19809636 	bltu	r3,r6,80a358 <_realloc_r+0x344>
  80a100:	9005883a 	mov	r2,r18
  80a104:	a807883a 	mov	r3,r21
  80a108:	19000017 	ldw	r4,0(r3)
  80a10c:	11000015 	stw	r4,0(r2)
  80a110:	19000117 	ldw	r4,4(r3)
  80a114:	11000115 	stw	r4,4(r2)
  80a118:	18c00217 	ldw	r3,8(r3)
  80a11c:	10c00215 	stw	r3,8(r2)
  80a120:	a80b883a 	mov	r5,r21
  80a124:	a009883a 	mov	r4,r20
  80a128:	080562c0 	call	80562c <_free_r>
  80a12c:	a009883a 	mov	r4,r20
  80a130:	080e42c0 	call	80e42c <__malloc_unlock>
  80a134:	9005883a 	mov	r2,r18
  80a138:	00001206 	br	80a184 <_realloc_r+0x170>
  80a13c:	00c00404 	movi	r3,16
  80a140:	1823883a 	mov	r17,r3
  80a144:	003fce06 	br	80a080 <__alt_data_end+0xff80a080>
  80a148:	a825883a 	mov	r18,r21
  80a14c:	8445c83a 	sub	r2,r16,r17
  80a150:	00c003c4 	movi	r3,15
  80a154:	18802636 	bltu	r3,r2,80a1f0 <_realloc_r+0x1dc>
  80a158:	99800117 	ldw	r6,4(r19)
  80a15c:	9c07883a 	add	r3,r19,r16
  80a160:	3180004c 	andi	r6,r6,1
  80a164:	3420b03a 	or	r16,r6,r16
  80a168:	9c000115 	stw	r16,4(r19)
  80a16c:	18800117 	ldw	r2,4(r3)
  80a170:	10800054 	ori	r2,r2,1
  80a174:	18800115 	stw	r2,4(r3)
  80a178:	a009883a 	mov	r4,r20
  80a17c:	080e42c0 	call	80e42c <__malloc_unlock>
  80a180:	9005883a 	mov	r2,r18
  80a184:	dfc00917 	ldw	ra,36(sp)
  80a188:	df000817 	ldw	fp,32(sp)
  80a18c:	ddc00717 	ldw	r23,28(sp)
  80a190:	dd800617 	ldw	r22,24(sp)
  80a194:	dd400517 	ldw	r21,20(sp)
  80a198:	dd000417 	ldw	r20,16(sp)
  80a19c:	dcc00317 	ldw	r19,12(sp)
  80a1a0:	dc800217 	ldw	r18,8(sp)
  80a1a4:	dc400117 	ldw	r17,4(sp)
  80a1a8:	dc000017 	ldw	r16,0(sp)
  80a1ac:	dec00a04 	addi	sp,sp,40
  80a1b0:	f800283a 	ret
  80a1b4:	017fff04 	movi	r5,-4
  80a1b8:	414a703a 	and	r5,r8,r5
  80a1bc:	814d883a 	add	r6,r16,r5
  80a1c0:	30c01f16 	blt	r6,r3,80a240 <_realloc_r+0x22c>
  80a1c4:	20800317 	ldw	r2,12(r4)
  80a1c8:	20c00217 	ldw	r3,8(r4)
  80a1cc:	a825883a 	mov	r18,r21
  80a1d0:	3021883a 	mov	r16,r6
  80a1d4:	18800315 	stw	r2,12(r3)
  80a1d8:	10c00215 	stw	r3,8(r2)
  80a1dc:	003fdb06 	br	80a14c <__alt_data_end+0xff80a14c>
  80a1e0:	00800304 	movi	r2,12
  80a1e4:	a0800015 	stw	r2,0(r20)
  80a1e8:	0005883a 	mov	r2,zero
  80a1ec:	003fe506 	br	80a184 <__alt_data_end+0xff80a184>
  80a1f0:	98c00117 	ldw	r3,4(r19)
  80a1f4:	9c4b883a 	add	r5,r19,r17
  80a1f8:	11000054 	ori	r4,r2,1
  80a1fc:	18c0004c 	andi	r3,r3,1
  80a200:	1c62b03a 	or	r17,r3,r17
  80a204:	9c400115 	stw	r17,4(r19)
  80a208:	29000115 	stw	r4,4(r5)
  80a20c:	2885883a 	add	r2,r5,r2
  80a210:	10c00117 	ldw	r3,4(r2)
  80a214:	29400204 	addi	r5,r5,8
  80a218:	a009883a 	mov	r4,r20
  80a21c:	18c00054 	ori	r3,r3,1
  80a220:	10c00115 	stw	r3,4(r2)
  80a224:	080562c0 	call	80562c <_free_r>
  80a228:	003fd306 	br	80a178 <__alt_data_end+0xff80a178>
  80a22c:	017fff04 	movi	r5,-4
  80a230:	414a703a 	and	r5,r8,r5
  80a234:	89800404 	addi	r6,r17,16
  80a238:	8151883a 	add	r8,r16,r5
  80a23c:	4180590e 	bge	r8,r6,80a3a4 <_realloc_r+0x390>
  80a240:	1080004c 	andi	r2,r2,1
  80a244:	103f9e1e 	bne	r2,zero,80a0c0 <__alt_data_end+0xff80a0c0>
  80a248:	adbffe17 	ldw	r22,-8(r21)
  80a24c:	00bfff04 	movi	r2,-4
  80a250:	9dadc83a 	sub	r22,r19,r22
  80a254:	b1800117 	ldw	r6,4(r22)
  80a258:	3084703a 	and	r2,r6,r2
  80a25c:	20002026 	beq	r4,zero,80a2e0 <_realloc_r+0x2cc>
  80a260:	80af883a 	add	r23,r16,r2
  80a264:	b96f883a 	add	r23,r23,r5
  80a268:	21c05f26 	beq	r4,r7,80a3e8 <_realloc_r+0x3d4>
  80a26c:	b8c01c16 	blt	r23,r3,80a2e0 <_realloc_r+0x2cc>
  80a270:	20800317 	ldw	r2,12(r4)
  80a274:	20c00217 	ldw	r3,8(r4)
  80a278:	81bfff04 	addi	r6,r16,-4
  80a27c:	01000904 	movi	r4,36
  80a280:	18800315 	stw	r2,12(r3)
  80a284:	10c00215 	stw	r3,8(r2)
  80a288:	b0c00217 	ldw	r3,8(r22)
  80a28c:	b0800317 	ldw	r2,12(r22)
  80a290:	b4800204 	addi	r18,r22,8
  80a294:	18800315 	stw	r2,12(r3)
  80a298:	10c00215 	stw	r3,8(r2)
  80a29c:	21801b36 	bltu	r4,r6,80a30c <_realloc_r+0x2f8>
  80a2a0:	008004c4 	movi	r2,19
  80a2a4:	1180352e 	bgeu	r2,r6,80a37c <_realloc_r+0x368>
  80a2a8:	a8800017 	ldw	r2,0(r21)
  80a2ac:	b0800215 	stw	r2,8(r22)
  80a2b0:	a8800117 	ldw	r2,4(r21)
  80a2b4:	b0800315 	stw	r2,12(r22)
  80a2b8:	008006c4 	movi	r2,27
  80a2bc:	11807f36 	bltu	r2,r6,80a4bc <_realloc_r+0x4a8>
  80a2c0:	b0800404 	addi	r2,r22,16
  80a2c4:	ad400204 	addi	r21,r21,8
  80a2c8:	00002d06 	br	80a380 <_realloc_r+0x36c>
  80a2cc:	adbffe17 	ldw	r22,-8(r21)
  80a2d0:	00bfff04 	movi	r2,-4
  80a2d4:	9dadc83a 	sub	r22,r19,r22
  80a2d8:	b1000117 	ldw	r4,4(r22)
  80a2dc:	2084703a 	and	r2,r4,r2
  80a2e0:	b03f7726 	beq	r22,zero,80a0c0 <__alt_data_end+0xff80a0c0>
  80a2e4:	80af883a 	add	r23,r16,r2
  80a2e8:	b8ff7516 	blt	r23,r3,80a0c0 <__alt_data_end+0xff80a0c0>
  80a2ec:	b0800317 	ldw	r2,12(r22)
  80a2f0:	b0c00217 	ldw	r3,8(r22)
  80a2f4:	81bfff04 	addi	r6,r16,-4
  80a2f8:	01000904 	movi	r4,36
  80a2fc:	18800315 	stw	r2,12(r3)
  80a300:	10c00215 	stw	r3,8(r2)
  80a304:	b4800204 	addi	r18,r22,8
  80a308:	21bfe52e 	bgeu	r4,r6,80a2a0 <__alt_data_end+0xff80a2a0>
  80a30c:	a80b883a 	mov	r5,r21
  80a310:	9009883a 	mov	r4,r18
  80a314:	0809e580 	call	809e58 <memmove>
  80a318:	b821883a 	mov	r16,r23
  80a31c:	b027883a 	mov	r19,r22
  80a320:	003f8a06 	br	80a14c <__alt_data_end+0xff80a14c>
  80a324:	300b883a 	mov	r5,r6
  80a328:	dfc00917 	ldw	ra,36(sp)
  80a32c:	df000817 	ldw	fp,32(sp)
  80a330:	ddc00717 	ldw	r23,28(sp)
  80a334:	dd800617 	ldw	r22,24(sp)
  80a338:	dd400517 	ldw	r21,20(sp)
  80a33c:	dd000417 	ldw	r20,16(sp)
  80a340:	dcc00317 	ldw	r19,12(sp)
  80a344:	dc800217 	ldw	r18,8(sp)
  80a348:	dc400117 	ldw	r17,4(sp)
  80a34c:	dc000017 	ldw	r16,0(sp)
  80a350:	dec00a04 	addi	sp,sp,40
  80a354:	0805d5c1 	jmpi	805d5c <_malloc_r>
  80a358:	a8c00017 	ldw	r3,0(r21)
  80a35c:	90c00015 	stw	r3,0(r18)
  80a360:	a8c00117 	ldw	r3,4(r21)
  80a364:	90c00115 	stw	r3,4(r18)
  80a368:	00c006c4 	movi	r3,27
  80a36c:	19804536 	bltu	r3,r6,80a484 <_realloc_r+0x470>
  80a370:	90800204 	addi	r2,r18,8
  80a374:	a8c00204 	addi	r3,r21,8
  80a378:	003f6306 	br	80a108 <__alt_data_end+0xff80a108>
  80a37c:	9005883a 	mov	r2,r18
  80a380:	a8c00017 	ldw	r3,0(r21)
  80a384:	b821883a 	mov	r16,r23
  80a388:	b027883a 	mov	r19,r22
  80a38c:	10c00015 	stw	r3,0(r2)
  80a390:	a8c00117 	ldw	r3,4(r21)
  80a394:	10c00115 	stw	r3,4(r2)
  80a398:	a8c00217 	ldw	r3,8(r21)
  80a39c:	10c00215 	stw	r3,8(r2)
  80a3a0:	003f6a06 	br	80a14c <__alt_data_end+0xff80a14c>
  80a3a4:	9c67883a 	add	r19,r19,r17
  80a3a8:	4445c83a 	sub	r2,r8,r17
  80a3ac:	e4c00215 	stw	r19,8(fp)
  80a3b0:	10800054 	ori	r2,r2,1
  80a3b4:	98800115 	stw	r2,4(r19)
  80a3b8:	a8bfff17 	ldw	r2,-4(r21)
  80a3bc:	a009883a 	mov	r4,r20
  80a3c0:	1080004c 	andi	r2,r2,1
  80a3c4:	1462b03a 	or	r17,r2,r17
  80a3c8:	ac7fff15 	stw	r17,-4(r21)
  80a3cc:	080e42c0 	call	80e42c <__malloc_unlock>
  80a3d0:	a805883a 	mov	r2,r21
  80a3d4:	003f6b06 	br	80a184 <__alt_data_end+0xff80a184>
  80a3d8:	a80b883a 	mov	r5,r21
  80a3dc:	9009883a 	mov	r4,r18
  80a3e0:	0809e580 	call	809e58 <memmove>
  80a3e4:	003f4e06 	br	80a120 <__alt_data_end+0xff80a120>
  80a3e8:	89000404 	addi	r4,r17,16
  80a3ec:	b93fbc16 	blt	r23,r4,80a2e0 <__alt_data_end+0xff80a2e0>
  80a3f0:	b0800317 	ldw	r2,12(r22)
  80a3f4:	b0c00217 	ldw	r3,8(r22)
  80a3f8:	81bfff04 	addi	r6,r16,-4
  80a3fc:	01000904 	movi	r4,36
  80a400:	18800315 	stw	r2,12(r3)
  80a404:	10c00215 	stw	r3,8(r2)
  80a408:	b4800204 	addi	r18,r22,8
  80a40c:	21804336 	bltu	r4,r6,80a51c <_realloc_r+0x508>
  80a410:	008004c4 	movi	r2,19
  80a414:	11803f2e 	bgeu	r2,r6,80a514 <_realloc_r+0x500>
  80a418:	a8800017 	ldw	r2,0(r21)
  80a41c:	b0800215 	stw	r2,8(r22)
  80a420:	a8800117 	ldw	r2,4(r21)
  80a424:	b0800315 	stw	r2,12(r22)
  80a428:	008006c4 	movi	r2,27
  80a42c:	11803f36 	bltu	r2,r6,80a52c <_realloc_r+0x518>
  80a430:	b0800404 	addi	r2,r22,16
  80a434:	ad400204 	addi	r21,r21,8
  80a438:	a8c00017 	ldw	r3,0(r21)
  80a43c:	10c00015 	stw	r3,0(r2)
  80a440:	a8c00117 	ldw	r3,4(r21)
  80a444:	10c00115 	stw	r3,4(r2)
  80a448:	a8c00217 	ldw	r3,8(r21)
  80a44c:	10c00215 	stw	r3,8(r2)
  80a450:	b447883a 	add	r3,r22,r17
  80a454:	bc45c83a 	sub	r2,r23,r17
  80a458:	e0c00215 	stw	r3,8(fp)
  80a45c:	10800054 	ori	r2,r2,1
  80a460:	18800115 	stw	r2,4(r3)
  80a464:	b0800117 	ldw	r2,4(r22)
  80a468:	a009883a 	mov	r4,r20
  80a46c:	1080004c 	andi	r2,r2,1
  80a470:	1462b03a 	or	r17,r2,r17
  80a474:	b4400115 	stw	r17,4(r22)
  80a478:	080e42c0 	call	80e42c <__malloc_unlock>
  80a47c:	9005883a 	mov	r2,r18
  80a480:	003f4006 	br	80a184 <__alt_data_end+0xff80a184>
  80a484:	a8c00217 	ldw	r3,8(r21)
  80a488:	90c00215 	stw	r3,8(r18)
  80a48c:	a8c00317 	ldw	r3,12(r21)
  80a490:	90c00315 	stw	r3,12(r18)
  80a494:	30801126 	beq	r6,r2,80a4dc <_realloc_r+0x4c8>
  80a498:	90800404 	addi	r2,r18,16
  80a49c:	a8c00404 	addi	r3,r21,16
  80a4a0:	003f1906 	br	80a108 <__alt_data_end+0xff80a108>
  80a4a4:	90ffff17 	ldw	r3,-4(r18)
  80a4a8:	00bfff04 	movi	r2,-4
  80a4ac:	a825883a 	mov	r18,r21
  80a4b0:	1884703a 	and	r2,r3,r2
  80a4b4:	80a1883a 	add	r16,r16,r2
  80a4b8:	003f2406 	br	80a14c <__alt_data_end+0xff80a14c>
  80a4bc:	a8800217 	ldw	r2,8(r21)
  80a4c0:	b0800415 	stw	r2,16(r22)
  80a4c4:	a8800317 	ldw	r2,12(r21)
  80a4c8:	b0800515 	stw	r2,20(r22)
  80a4cc:	31000a26 	beq	r6,r4,80a4f8 <_realloc_r+0x4e4>
  80a4d0:	b0800604 	addi	r2,r22,24
  80a4d4:	ad400404 	addi	r21,r21,16
  80a4d8:	003fa906 	br	80a380 <__alt_data_end+0xff80a380>
  80a4dc:	a9000417 	ldw	r4,16(r21)
  80a4e0:	90800604 	addi	r2,r18,24
  80a4e4:	a8c00604 	addi	r3,r21,24
  80a4e8:	91000415 	stw	r4,16(r18)
  80a4ec:	a9000517 	ldw	r4,20(r21)
  80a4f0:	91000515 	stw	r4,20(r18)
  80a4f4:	003f0406 	br	80a108 <__alt_data_end+0xff80a108>
  80a4f8:	a8c00417 	ldw	r3,16(r21)
  80a4fc:	ad400604 	addi	r21,r21,24
  80a500:	b0800804 	addi	r2,r22,32
  80a504:	b0c00615 	stw	r3,24(r22)
  80a508:	a8ffff17 	ldw	r3,-4(r21)
  80a50c:	b0c00715 	stw	r3,28(r22)
  80a510:	003f9b06 	br	80a380 <__alt_data_end+0xff80a380>
  80a514:	9005883a 	mov	r2,r18
  80a518:	003fc706 	br	80a438 <__alt_data_end+0xff80a438>
  80a51c:	a80b883a 	mov	r5,r21
  80a520:	9009883a 	mov	r4,r18
  80a524:	0809e580 	call	809e58 <memmove>
  80a528:	003fc906 	br	80a450 <__alt_data_end+0xff80a450>
  80a52c:	a8800217 	ldw	r2,8(r21)
  80a530:	b0800415 	stw	r2,16(r22)
  80a534:	a8800317 	ldw	r2,12(r21)
  80a538:	b0800515 	stw	r2,20(r22)
  80a53c:	31000726 	beq	r6,r4,80a55c <_realloc_r+0x548>
  80a540:	b0800604 	addi	r2,r22,24
  80a544:	ad400404 	addi	r21,r21,16
  80a548:	003fbb06 	br	80a438 <__alt_data_end+0xff80a438>
  80a54c:	a009883a 	mov	r4,r20
  80a550:	080e42c0 	call	80e42c <__malloc_unlock>
  80a554:	0005883a 	mov	r2,zero
  80a558:	003f0a06 	br	80a184 <__alt_data_end+0xff80a184>
  80a55c:	a8c00417 	ldw	r3,16(r21)
  80a560:	ad400604 	addi	r21,r21,24
  80a564:	b0800804 	addi	r2,r22,32
  80a568:	b0c00615 	stw	r3,24(r22)
  80a56c:	a8ffff17 	ldw	r3,-4(r21)
  80a570:	b0c00715 	stw	r3,28(r22)
  80a574:	003fb006 	br	80a438 <__alt_data_end+0xff80a438>

0080a578 <__swbuf_r>:
  80a578:	defffb04 	addi	sp,sp,-20
  80a57c:	dcc00315 	stw	r19,12(sp)
  80a580:	dc800215 	stw	r18,8(sp)
  80a584:	dc000015 	stw	r16,0(sp)
  80a588:	dfc00415 	stw	ra,16(sp)
  80a58c:	dc400115 	stw	r17,4(sp)
  80a590:	2025883a 	mov	r18,r4
  80a594:	2827883a 	mov	r19,r5
  80a598:	3021883a 	mov	r16,r6
  80a59c:	20000226 	beq	r4,zero,80a5a8 <__swbuf_r+0x30>
  80a5a0:	20800e17 	ldw	r2,56(r4)
  80a5a4:	10004226 	beq	r2,zero,80a6b0 <__swbuf_r+0x138>
  80a5a8:	80800617 	ldw	r2,24(r16)
  80a5ac:	8100030b 	ldhu	r4,12(r16)
  80a5b0:	80800215 	stw	r2,8(r16)
  80a5b4:	2080020c 	andi	r2,r4,8
  80a5b8:	10003626 	beq	r2,zero,80a694 <__swbuf_r+0x11c>
  80a5bc:	80c00417 	ldw	r3,16(r16)
  80a5c0:	18003426 	beq	r3,zero,80a694 <__swbuf_r+0x11c>
  80a5c4:	2088000c 	andi	r2,r4,8192
  80a5c8:	9c403fcc 	andi	r17,r19,255
  80a5cc:	10001a26 	beq	r2,zero,80a638 <__swbuf_r+0xc0>
  80a5d0:	80800017 	ldw	r2,0(r16)
  80a5d4:	81000517 	ldw	r4,20(r16)
  80a5d8:	10c7c83a 	sub	r3,r2,r3
  80a5dc:	1900200e 	bge	r3,r4,80a660 <__swbuf_r+0xe8>
  80a5e0:	18c00044 	addi	r3,r3,1
  80a5e4:	81000217 	ldw	r4,8(r16)
  80a5e8:	11400044 	addi	r5,r2,1
  80a5ec:	81400015 	stw	r5,0(r16)
  80a5f0:	213fffc4 	addi	r4,r4,-1
  80a5f4:	81000215 	stw	r4,8(r16)
  80a5f8:	14c00005 	stb	r19,0(r2)
  80a5fc:	80800517 	ldw	r2,20(r16)
  80a600:	10c01e26 	beq	r2,r3,80a67c <__swbuf_r+0x104>
  80a604:	8080030b 	ldhu	r2,12(r16)
  80a608:	1080004c 	andi	r2,r2,1
  80a60c:	10000226 	beq	r2,zero,80a618 <__swbuf_r+0xa0>
  80a610:	00800284 	movi	r2,10
  80a614:	88801926 	beq	r17,r2,80a67c <__swbuf_r+0x104>
  80a618:	8805883a 	mov	r2,r17
  80a61c:	dfc00417 	ldw	ra,16(sp)
  80a620:	dcc00317 	ldw	r19,12(sp)
  80a624:	dc800217 	ldw	r18,8(sp)
  80a628:	dc400117 	ldw	r17,4(sp)
  80a62c:	dc000017 	ldw	r16,0(sp)
  80a630:	dec00504 	addi	sp,sp,20
  80a634:	f800283a 	ret
  80a638:	81401917 	ldw	r5,100(r16)
  80a63c:	00b7ffc4 	movi	r2,-8193
  80a640:	21080014 	ori	r4,r4,8192
  80a644:	2884703a 	and	r2,r5,r2
  80a648:	80801915 	stw	r2,100(r16)
  80a64c:	80800017 	ldw	r2,0(r16)
  80a650:	8100030d 	sth	r4,12(r16)
  80a654:	81000517 	ldw	r4,20(r16)
  80a658:	10c7c83a 	sub	r3,r2,r3
  80a65c:	193fe016 	blt	r3,r4,80a5e0 <__alt_data_end+0xff80a5e0>
  80a660:	800b883a 	mov	r5,r16
  80a664:	9009883a 	mov	r4,r18
  80a668:	08050cc0 	call	8050cc <_fflush_r>
  80a66c:	1000071e 	bne	r2,zero,80a68c <__swbuf_r+0x114>
  80a670:	80800017 	ldw	r2,0(r16)
  80a674:	00c00044 	movi	r3,1
  80a678:	003fda06 	br	80a5e4 <__alt_data_end+0xff80a5e4>
  80a67c:	800b883a 	mov	r5,r16
  80a680:	9009883a 	mov	r4,r18
  80a684:	08050cc0 	call	8050cc <_fflush_r>
  80a688:	103fe326 	beq	r2,zero,80a618 <__alt_data_end+0xff80a618>
  80a68c:	00bfffc4 	movi	r2,-1
  80a690:	003fe206 	br	80a61c <__alt_data_end+0xff80a61c>
  80a694:	800b883a 	mov	r5,r16
  80a698:	9009883a 	mov	r4,r18
  80a69c:	08034ac0 	call	8034ac <__swsetup_r>
  80a6a0:	103ffa1e 	bne	r2,zero,80a68c <__alt_data_end+0xff80a68c>
  80a6a4:	8100030b 	ldhu	r4,12(r16)
  80a6a8:	80c00417 	ldw	r3,16(r16)
  80a6ac:	003fc506 	br	80a5c4 <__alt_data_end+0xff80a5c4>
  80a6b0:	08054b80 	call	8054b8 <__sinit>
  80a6b4:	003fbc06 	br	80a5a8 <__alt_data_end+0xff80a5a8>

0080a6b8 <__swbuf>:
  80a6b8:	00802074 	movhi	r2,129
  80a6bc:	10833404 	addi	r2,r2,3280
  80a6c0:	280d883a 	mov	r6,r5
  80a6c4:	200b883a 	mov	r5,r4
  80a6c8:	11000017 	ldw	r4,0(r2)
  80a6cc:	080a5781 	jmpi	80a578 <__swbuf_r>

0080a6d0 <_wcrtomb_r>:
  80a6d0:	defff604 	addi	sp,sp,-40
  80a6d4:	00802074 	movhi	r2,129
  80a6d8:	dc800815 	stw	r18,32(sp)
  80a6dc:	dc400715 	stw	r17,28(sp)
  80a6e0:	dc000615 	stw	r16,24(sp)
  80a6e4:	10833804 	addi	r2,r2,3296
  80a6e8:	dfc00915 	stw	ra,36(sp)
  80a6ec:	2021883a 	mov	r16,r4
  80a6f0:	3823883a 	mov	r17,r7
  80a6f4:	14800017 	ldw	r18,0(r2)
  80a6f8:	28001426 	beq	r5,zero,80a74c <_wcrtomb_r+0x7c>
  80a6fc:	d9400415 	stw	r5,16(sp)
  80a700:	d9800515 	stw	r6,20(sp)
  80a704:	0805b400 	call	805b40 <__locale_charset>
  80a708:	d9800517 	ldw	r6,20(sp)
  80a70c:	d9400417 	ldw	r5,16(sp)
  80a710:	100f883a 	mov	r7,r2
  80a714:	dc400015 	stw	r17,0(sp)
  80a718:	8009883a 	mov	r4,r16
  80a71c:	903ee83a 	callr	r18
  80a720:	00ffffc4 	movi	r3,-1
  80a724:	10c0031e 	bne	r2,r3,80a734 <_wcrtomb_r+0x64>
  80a728:	88000015 	stw	zero,0(r17)
  80a72c:	00c02284 	movi	r3,138
  80a730:	80c00015 	stw	r3,0(r16)
  80a734:	dfc00917 	ldw	ra,36(sp)
  80a738:	dc800817 	ldw	r18,32(sp)
  80a73c:	dc400717 	ldw	r17,28(sp)
  80a740:	dc000617 	ldw	r16,24(sp)
  80a744:	dec00a04 	addi	sp,sp,40
  80a748:	f800283a 	ret
  80a74c:	0805b400 	call	805b40 <__locale_charset>
  80a750:	100f883a 	mov	r7,r2
  80a754:	dc400015 	stw	r17,0(sp)
  80a758:	000d883a 	mov	r6,zero
  80a75c:	d9400104 	addi	r5,sp,4
  80a760:	8009883a 	mov	r4,r16
  80a764:	903ee83a 	callr	r18
  80a768:	003fed06 	br	80a720 <__alt_data_end+0xff80a720>

0080a76c <wcrtomb>:
  80a76c:	defff604 	addi	sp,sp,-40
  80a770:	00802074 	movhi	r2,129
  80a774:	dc800615 	stw	r18,24(sp)
  80a778:	dc400515 	stw	r17,20(sp)
  80a77c:	10833404 	addi	r2,r2,3280
  80a780:	dfc00915 	stw	ra,36(sp)
  80a784:	dd000815 	stw	r20,32(sp)
  80a788:	dcc00715 	stw	r19,28(sp)
  80a78c:	dc000415 	stw	r16,16(sp)
  80a790:	3025883a 	mov	r18,r6
  80a794:	14400017 	ldw	r17,0(r2)
  80a798:	20001926 	beq	r4,zero,80a800 <wcrtomb+0x94>
  80a79c:	00802074 	movhi	r2,129
  80a7a0:	10833804 	addi	r2,r2,3296
  80a7a4:	15000017 	ldw	r20,0(r2)
  80a7a8:	2021883a 	mov	r16,r4
  80a7ac:	2827883a 	mov	r19,r5
  80a7b0:	0805b400 	call	805b40 <__locale_charset>
  80a7b4:	100f883a 	mov	r7,r2
  80a7b8:	dc800015 	stw	r18,0(sp)
  80a7bc:	980d883a 	mov	r6,r19
  80a7c0:	800b883a 	mov	r5,r16
  80a7c4:	8809883a 	mov	r4,r17
  80a7c8:	a03ee83a 	callr	r20
  80a7cc:	00ffffc4 	movi	r3,-1
  80a7d0:	10c0031e 	bne	r2,r3,80a7e0 <wcrtomb+0x74>
  80a7d4:	90000015 	stw	zero,0(r18)
  80a7d8:	00c02284 	movi	r3,138
  80a7dc:	88c00015 	stw	r3,0(r17)
  80a7e0:	dfc00917 	ldw	ra,36(sp)
  80a7e4:	dd000817 	ldw	r20,32(sp)
  80a7e8:	dcc00717 	ldw	r19,28(sp)
  80a7ec:	dc800617 	ldw	r18,24(sp)
  80a7f0:	dc400517 	ldw	r17,20(sp)
  80a7f4:	dc000417 	ldw	r16,16(sp)
  80a7f8:	dec00a04 	addi	sp,sp,40
  80a7fc:	f800283a 	ret
  80a800:	00802074 	movhi	r2,129
  80a804:	10833804 	addi	r2,r2,3296
  80a808:	14000017 	ldw	r16,0(r2)
  80a80c:	0805b400 	call	805b40 <__locale_charset>
  80a810:	100f883a 	mov	r7,r2
  80a814:	dc800015 	stw	r18,0(sp)
  80a818:	000d883a 	mov	r6,zero
  80a81c:	d9400104 	addi	r5,sp,4
  80a820:	8809883a 	mov	r4,r17
  80a824:	803ee83a 	callr	r16
  80a828:	003fe806 	br	80a7cc <__alt_data_end+0xff80a7cc>

0080a82c <__ascii_wctomb>:
  80a82c:	28000526 	beq	r5,zero,80a844 <__ascii_wctomb+0x18>
  80a830:	00803fc4 	movi	r2,255
  80a834:	11800536 	bltu	r2,r6,80a84c <__ascii_wctomb+0x20>
  80a838:	29800005 	stb	r6,0(r5)
  80a83c:	00800044 	movi	r2,1
  80a840:	f800283a 	ret
  80a844:	0005883a 	mov	r2,zero
  80a848:	f800283a 	ret
  80a84c:	00802284 	movi	r2,138
  80a850:	20800015 	stw	r2,0(r4)
  80a854:	00bfffc4 	movi	r2,-1
  80a858:	f800283a 	ret

0080a85c <_wctomb_r>:
  80a85c:	00802074 	movhi	r2,129
  80a860:	defff904 	addi	sp,sp,-28
  80a864:	10833804 	addi	r2,r2,3296
  80a868:	dfc00615 	stw	ra,24(sp)
  80a86c:	dc400515 	stw	r17,20(sp)
  80a870:	dc000415 	stw	r16,16(sp)
  80a874:	3823883a 	mov	r17,r7
  80a878:	14000017 	ldw	r16,0(r2)
  80a87c:	d9000115 	stw	r4,4(sp)
  80a880:	d9400215 	stw	r5,8(sp)
  80a884:	d9800315 	stw	r6,12(sp)
  80a888:	0805b400 	call	805b40 <__locale_charset>
  80a88c:	d9800317 	ldw	r6,12(sp)
  80a890:	d9400217 	ldw	r5,8(sp)
  80a894:	d9000117 	ldw	r4,4(sp)
  80a898:	100f883a 	mov	r7,r2
  80a89c:	dc400015 	stw	r17,0(sp)
  80a8a0:	803ee83a 	callr	r16
  80a8a4:	dfc00617 	ldw	ra,24(sp)
  80a8a8:	dc400517 	ldw	r17,20(sp)
  80a8ac:	dc000417 	ldw	r16,16(sp)
  80a8b0:	dec00704 	addi	sp,sp,28
  80a8b4:	f800283a 	ret

0080a8b8 <__udivdi3>:
  80a8b8:	defff404 	addi	sp,sp,-48
  80a8bc:	dcc00515 	stw	r19,20(sp)
  80a8c0:	dc000215 	stw	r16,8(sp)
  80a8c4:	dfc00b15 	stw	ra,44(sp)
  80a8c8:	df000a15 	stw	fp,40(sp)
  80a8cc:	ddc00915 	stw	r23,36(sp)
  80a8d0:	dd800815 	stw	r22,32(sp)
  80a8d4:	dd400715 	stw	r21,28(sp)
  80a8d8:	dd000615 	stw	r20,24(sp)
  80a8dc:	dc800415 	stw	r18,16(sp)
  80a8e0:	dc400315 	stw	r17,12(sp)
  80a8e4:	2027883a 	mov	r19,r4
  80a8e8:	2821883a 	mov	r16,r5
  80a8ec:	3800461e 	bne	r7,zero,80aa08 <__udivdi3+0x150>
  80a8f0:	3023883a 	mov	r17,r6
  80a8f4:	2025883a 	mov	r18,r4
  80a8f8:	2980572e 	bgeu	r5,r6,80aa58 <__udivdi3+0x1a0>
  80a8fc:	00bfffd4 	movui	r2,65535
  80a900:	282d883a 	mov	r22,r5
  80a904:	1180b236 	bltu	r2,r6,80abd0 <__udivdi3+0x318>
  80a908:	00803fc4 	movi	r2,255
  80a90c:	1185803a 	cmpltu	r2,r2,r6
  80a910:	100490fa 	slli	r2,r2,3
  80a914:	3086d83a 	srl	r3,r6,r2
  80a918:	01002074 	movhi	r4,129
  80a91c:	213fd744 	addi	r4,r4,-163
  80a920:	20c7883a 	add	r3,r4,r3
  80a924:	18c00003 	ldbu	r3,0(r3)
  80a928:	1885883a 	add	r2,r3,r2
  80a92c:	00c00804 	movi	r3,32
  80a930:	1887c83a 	sub	r3,r3,r2
  80a934:	18000526 	beq	r3,zero,80a94c <__udivdi3+0x94>
  80a938:	80e0983a 	sll	r16,r16,r3
  80a93c:	9884d83a 	srl	r2,r19,r2
  80a940:	30e2983a 	sll	r17,r6,r3
  80a944:	98e4983a 	sll	r18,r19,r3
  80a948:	142cb03a 	or	r22,r2,r16
  80a94c:	882ad43a 	srli	r21,r17,16
  80a950:	b009883a 	mov	r4,r22
  80a954:	8d3fffcc 	andi	r20,r17,65535
  80a958:	a80b883a 	mov	r5,r21
  80a95c:	080b5d40 	call	80b5d4 <__umodsi3>
  80a960:	b009883a 	mov	r4,r22
  80a964:	a80b883a 	mov	r5,r21
  80a968:	1027883a 	mov	r19,r2
  80a96c:	080b5700 	call	80b570 <__udivsi3>
  80a970:	100b883a 	mov	r5,r2
  80a974:	a009883a 	mov	r4,r20
  80a978:	102d883a 	mov	r22,r2
  80a97c:	08005640 	call	800564 <__mulsi3>
  80a980:	9826943a 	slli	r19,r19,16
  80a984:	9006d43a 	srli	r3,r18,16
  80a988:	1cc6b03a 	or	r3,r3,r19
  80a98c:	1880052e 	bgeu	r3,r2,80a9a4 <__udivdi3+0xec>
  80a990:	1c47883a 	add	r3,r3,r17
  80a994:	b13fffc4 	addi	r4,r22,-1
  80a998:	1c400136 	bltu	r3,r17,80a9a0 <__udivdi3+0xe8>
  80a99c:	18814236 	bltu	r3,r2,80aea8 <__udivdi3+0x5f0>
  80a9a0:	202d883a 	mov	r22,r4
  80a9a4:	18a1c83a 	sub	r16,r3,r2
  80a9a8:	8009883a 	mov	r4,r16
  80a9ac:	a80b883a 	mov	r5,r21
  80a9b0:	080b5d40 	call	80b5d4 <__umodsi3>
  80a9b4:	1027883a 	mov	r19,r2
  80a9b8:	8009883a 	mov	r4,r16
  80a9bc:	a80b883a 	mov	r5,r21
  80a9c0:	9826943a 	slli	r19,r19,16
  80a9c4:	080b5700 	call	80b570 <__udivsi3>
  80a9c8:	100b883a 	mov	r5,r2
  80a9cc:	a009883a 	mov	r4,r20
  80a9d0:	94bfffcc 	andi	r18,r18,65535
  80a9d4:	1021883a 	mov	r16,r2
  80a9d8:	94e4b03a 	or	r18,r18,r19
  80a9dc:	08005640 	call	800564 <__mulsi3>
  80a9e0:	9080052e 	bgeu	r18,r2,80a9f8 <__udivdi3+0x140>
  80a9e4:	8ca5883a 	add	r18,r17,r18
  80a9e8:	80ffffc4 	addi	r3,r16,-1
  80a9ec:	94410c36 	bltu	r18,r17,80ae20 <__udivdi3+0x568>
  80a9f0:	90810b2e 	bgeu	r18,r2,80ae20 <__udivdi3+0x568>
  80a9f4:	843fff84 	addi	r16,r16,-2
  80a9f8:	b004943a 	slli	r2,r22,16
  80a9fc:	0007883a 	mov	r3,zero
  80aa00:	1404b03a 	or	r2,r2,r16
  80aa04:	00005e06 	br	80ab80 <__udivdi3+0x2c8>
  80aa08:	29c05b36 	bltu	r5,r7,80ab78 <__udivdi3+0x2c0>
  80aa0c:	00bfffd4 	movui	r2,65535
  80aa10:	11c0672e 	bgeu	r2,r7,80abb0 <__udivdi3+0x2f8>
  80aa14:	00804034 	movhi	r2,256
  80aa18:	10bfffc4 	addi	r2,r2,-1
  80aa1c:	11c10a36 	bltu	r2,r7,80ae48 <__udivdi3+0x590>
  80aa20:	00800404 	movi	r2,16
  80aa24:	3886d83a 	srl	r3,r7,r2
  80aa28:	01002074 	movhi	r4,129
  80aa2c:	213fd744 	addi	r4,r4,-163
  80aa30:	20c7883a 	add	r3,r4,r3
  80aa34:	18c00003 	ldbu	r3,0(r3)
  80aa38:	05c00804 	movi	r23,32
  80aa3c:	1885883a 	add	r2,r3,r2
  80aa40:	b8afc83a 	sub	r23,r23,r2
  80aa44:	b800671e 	bne	r23,zero,80abe4 <__udivdi3+0x32c>
  80aa48:	3c010536 	bltu	r7,r16,80ae60 <__udivdi3+0x5a8>
  80aa4c:	9985403a 	cmpgeu	r2,r19,r6
  80aa50:	0007883a 	mov	r3,zero
  80aa54:	00004a06 	br	80ab80 <__udivdi3+0x2c8>
  80aa58:	3000041e 	bne	r6,zero,80aa6c <__udivdi3+0x1b4>
  80aa5c:	000b883a 	mov	r5,zero
  80aa60:	01000044 	movi	r4,1
  80aa64:	080b5700 	call	80b570 <__udivsi3>
  80aa68:	1023883a 	mov	r17,r2
  80aa6c:	00bfffd4 	movui	r2,65535
  80aa70:	1440532e 	bgeu	r2,r17,80abc0 <__udivdi3+0x308>
  80aa74:	00804034 	movhi	r2,256
  80aa78:	10bfffc4 	addi	r2,r2,-1
  80aa7c:	1440f436 	bltu	r2,r17,80ae50 <__udivdi3+0x598>
  80aa80:	00800404 	movi	r2,16
  80aa84:	8886d83a 	srl	r3,r17,r2
  80aa88:	01002074 	movhi	r4,129
  80aa8c:	213fd744 	addi	r4,r4,-163
  80aa90:	20c7883a 	add	r3,r4,r3
  80aa94:	18c00003 	ldbu	r3,0(r3)
  80aa98:	1885883a 	add	r2,r3,r2
  80aa9c:	00c00804 	movi	r3,32
  80aaa0:	1887c83a 	sub	r3,r3,r2
  80aaa4:	1800a51e 	bne	r3,zero,80ad3c <__udivdi3+0x484>
  80aaa8:	882ad43a 	srli	r21,r17,16
  80aaac:	8461c83a 	sub	r16,r16,r17
  80aab0:	8d3fffcc 	andi	r20,r17,65535
  80aab4:	00c00044 	movi	r3,1
  80aab8:	a80b883a 	mov	r5,r21
  80aabc:	8009883a 	mov	r4,r16
  80aac0:	d8c00115 	stw	r3,4(sp)
  80aac4:	080b5d40 	call	80b5d4 <__umodsi3>
  80aac8:	a80b883a 	mov	r5,r21
  80aacc:	8009883a 	mov	r4,r16
  80aad0:	1027883a 	mov	r19,r2
  80aad4:	080b5700 	call	80b570 <__udivsi3>
  80aad8:	a00b883a 	mov	r5,r20
  80aadc:	1009883a 	mov	r4,r2
  80aae0:	102d883a 	mov	r22,r2
  80aae4:	08005640 	call	800564 <__mulsi3>
  80aae8:	9826943a 	slli	r19,r19,16
  80aaec:	900ed43a 	srli	r7,r18,16
  80aaf0:	d8c00117 	ldw	r3,4(sp)
  80aaf4:	3cceb03a 	or	r7,r7,r19
  80aaf8:	3880052e 	bgeu	r7,r2,80ab10 <__udivdi3+0x258>
  80aafc:	3c4f883a 	add	r7,r7,r17
  80ab00:	b13fffc4 	addi	r4,r22,-1
  80ab04:	3c400136 	bltu	r7,r17,80ab0c <__udivdi3+0x254>
  80ab08:	3880e436 	bltu	r7,r2,80ae9c <__udivdi3+0x5e4>
  80ab0c:	202d883a 	mov	r22,r4
  80ab10:	38a1c83a 	sub	r16,r7,r2
  80ab14:	8009883a 	mov	r4,r16
  80ab18:	a80b883a 	mov	r5,r21
  80ab1c:	d8c00115 	stw	r3,4(sp)
  80ab20:	080b5d40 	call	80b5d4 <__umodsi3>
  80ab24:	1027883a 	mov	r19,r2
  80ab28:	8009883a 	mov	r4,r16
  80ab2c:	a80b883a 	mov	r5,r21
  80ab30:	9826943a 	slli	r19,r19,16
  80ab34:	080b5700 	call	80b570 <__udivsi3>
  80ab38:	a00b883a 	mov	r5,r20
  80ab3c:	1009883a 	mov	r4,r2
  80ab40:	94bfffcc 	andi	r18,r18,65535
  80ab44:	1021883a 	mov	r16,r2
  80ab48:	94e4b03a 	or	r18,r18,r19
  80ab4c:	08005640 	call	800564 <__mulsi3>
  80ab50:	d8c00117 	ldw	r3,4(sp)
  80ab54:	9080052e 	bgeu	r18,r2,80ab6c <__udivdi3+0x2b4>
  80ab58:	8ca5883a 	add	r18,r17,r18
  80ab5c:	813fffc4 	addi	r4,r16,-1
  80ab60:	9440ad36 	bltu	r18,r17,80ae18 <__udivdi3+0x560>
  80ab64:	9080ac2e 	bgeu	r18,r2,80ae18 <__udivdi3+0x560>
  80ab68:	843fff84 	addi	r16,r16,-2
  80ab6c:	b004943a 	slli	r2,r22,16
  80ab70:	1404b03a 	or	r2,r2,r16
  80ab74:	00000206 	br	80ab80 <__udivdi3+0x2c8>
  80ab78:	0007883a 	mov	r3,zero
  80ab7c:	0005883a 	mov	r2,zero
  80ab80:	dfc00b17 	ldw	ra,44(sp)
  80ab84:	df000a17 	ldw	fp,40(sp)
  80ab88:	ddc00917 	ldw	r23,36(sp)
  80ab8c:	dd800817 	ldw	r22,32(sp)
  80ab90:	dd400717 	ldw	r21,28(sp)
  80ab94:	dd000617 	ldw	r20,24(sp)
  80ab98:	dcc00517 	ldw	r19,20(sp)
  80ab9c:	dc800417 	ldw	r18,16(sp)
  80aba0:	dc400317 	ldw	r17,12(sp)
  80aba4:	dc000217 	ldw	r16,8(sp)
  80aba8:	dec00c04 	addi	sp,sp,48
  80abac:	f800283a 	ret
  80abb0:	00803fc4 	movi	r2,255
  80abb4:	11c5803a 	cmpltu	r2,r2,r7
  80abb8:	100490fa 	slli	r2,r2,3
  80abbc:	003f9906 	br	80aa24 <__alt_data_end+0xff80aa24>
  80abc0:	00803fc4 	movi	r2,255
  80abc4:	1445803a 	cmpltu	r2,r2,r17
  80abc8:	100490fa 	slli	r2,r2,3
  80abcc:	003fad06 	br	80aa84 <__alt_data_end+0xff80aa84>
  80abd0:	00804034 	movhi	r2,256
  80abd4:	10bfffc4 	addi	r2,r2,-1
  80abd8:	11809f36 	bltu	r2,r6,80ae58 <__udivdi3+0x5a0>
  80abdc:	00800404 	movi	r2,16
  80abe0:	003f4c06 	br	80a914 <__alt_data_end+0xff80a914>
  80abe4:	3dce983a 	sll	r7,r7,r23
  80abe8:	30b8d83a 	srl	fp,r6,r2
  80abec:	80a2d83a 	srl	r17,r16,r2
  80abf0:	35cc983a 	sll	r6,r6,r23
  80abf4:	3f38b03a 	or	fp,r7,fp
  80abf8:	e024d43a 	srli	r18,fp,16
  80abfc:	9884d83a 	srl	r2,r19,r2
  80ac00:	85e0983a 	sll	r16,r16,r23
  80ac04:	8809883a 	mov	r4,r17
  80ac08:	900b883a 	mov	r5,r18
  80ac0c:	d9800015 	stw	r6,0(sp)
  80ac10:	1420b03a 	or	r16,r2,r16
  80ac14:	080b5d40 	call	80b5d4 <__umodsi3>
  80ac18:	900b883a 	mov	r5,r18
  80ac1c:	8809883a 	mov	r4,r17
  80ac20:	1029883a 	mov	r20,r2
  80ac24:	e5bfffcc 	andi	r22,fp,65535
  80ac28:	080b5700 	call	80b570 <__udivsi3>
  80ac2c:	100b883a 	mov	r5,r2
  80ac30:	b009883a 	mov	r4,r22
  80ac34:	102b883a 	mov	r21,r2
  80ac38:	08005640 	call	800564 <__mulsi3>
  80ac3c:	a028943a 	slli	r20,r20,16
  80ac40:	8006d43a 	srli	r3,r16,16
  80ac44:	1d06b03a 	or	r3,r3,r20
  80ac48:	1880042e 	bgeu	r3,r2,80ac5c <__udivdi3+0x3a4>
  80ac4c:	1f07883a 	add	r3,r3,fp
  80ac50:	a93fffc4 	addi	r4,r21,-1
  80ac54:	1f00892e 	bgeu	r3,fp,80ae7c <__udivdi3+0x5c4>
  80ac58:	202b883a 	mov	r21,r4
  80ac5c:	18a3c83a 	sub	r17,r3,r2
  80ac60:	8809883a 	mov	r4,r17
  80ac64:	900b883a 	mov	r5,r18
  80ac68:	080b5d40 	call	80b5d4 <__umodsi3>
  80ac6c:	1029883a 	mov	r20,r2
  80ac70:	8809883a 	mov	r4,r17
  80ac74:	900b883a 	mov	r5,r18
  80ac78:	a028943a 	slli	r20,r20,16
  80ac7c:	080b5700 	call	80b570 <__udivsi3>
  80ac80:	100b883a 	mov	r5,r2
  80ac84:	b009883a 	mov	r4,r22
  80ac88:	843fffcc 	andi	r16,r16,65535
  80ac8c:	1023883a 	mov	r17,r2
  80ac90:	8520b03a 	or	r16,r16,r20
  80ac94:	08005640 	call	800564 <__mulsi3>
  80ac98:	8080042e 	bgeu	r16,r2,80acac <__udivdi3+0x3f4>
  80ac9c:	8721883a 	add	r16,r16,fp
  80aca0:	88ffffc4 	addi	r3,r17,-1
  80aca4:	8700712e 	bgeu	r16,fp,80ae6c <__udivdi3+0x5b4>
  80aca8:	1823883a 	mov	r17,r3
  80acac:	a80e943a 	slli	r7,r21,16
  80acb0:	d8c00017 	ldw	r3,0(sp)
  80acb4:	80a1c83a 	sub	r16,r16,r2
  80acb8:	3c64b03a 	or	r18,r7,r17
  80acbc:	1d3fffcc 	andi	r20,r3,65535
  80acc0:	9022d43a 	srli	r17,r18,16
  80acc4:	95bfffcc 	andi	r22,r18,65535
  80acc8:	a00b883a 	mov	r5,r20
  80accc:	b009883a 	mov	r4,r22
  80acd0:	182ad43a 	srli	r21,r3,16
  80acd4:	08005640 	call	800564 <__mulsi3>
  80acd8:	a00b883a 	mov	r5,r20
  80acdc:	8809883a 	mov	r4,r17
  80ace0:	1039883a 	mov	fp,r2
  80ace4:	08005640 	call	800564 <__mulsi3>
  80ace8:	8809883a 	mov	r4,r17
  80acec:	a80b883a 	mov	r5,r21
  80acf0:	1029883a 	mov	r20,r2
  80acf4:	08005640 	call	800564 <__mulsi3>
  80acf8:	a80b883a 	mov	r5,r21
  80acfc:	b009883a 	mov	r4,r22
  80ad00:	1023883a 	mov	r17,r2
  80ad04:	08005640 	call	800564 <__mulsi3>
  80ad08:	e006d43a 	srli	r3,fp,16
  80ad0c:	1505883a 	add	r2,r2,r20
  80ad10:	1887883a 	add	r3,r3,r2
  80ad14:	1d00022e 	bgeu	r3,r20,80ad20 <__udivdi3+0x468>
  80ad18:	00800074 	movhi	r2,1
  80ad1c:	88a3883a 	add	r17,r17,r2
  80ad20:	1804d43a 	srli	r2,r3,16
  80ad24:	1463883a 	add	r17,r2,r17
  80ad28:	84404436 	bltu	r16,r17,80ae3c <__udivdi3+0x584>
  80ad2c:	84403e26 	beq	r16,r17,80ae28 <__udivdi3+0x570>
  80ad30:	9005883a 	mov	r2,r18
  80ad34:	0007883a 	mov	r3,zero
  80ad38:	003f9106 	br	80ab80 <__alt_data_end+0xff80ab80>
  80ad3c:	88e2983a 	sll	r17,r17,r3
  80ad40:	80aed83a 	srl	r23,r16,r2
  80ad44:	80e0983a 	sll	r16,r16,r3
  80ad48:	882ad43a 	srli	r21,r17,16
  80ad4c:	9884d83a 	srl	r2,r19,r2
  80ad50:	b809883a 	mov	r4,r23
  80ad54:	a80b883a 	mov	r5,r21
  80ad58:	98e4983a 	sll	r18,r19,r3
  80ad5c:	142cb03a 	or	r22,r2,r16
  80ad60:	080b5d40 	call	80b5d4 <__umodsi3>
  80ad64:	b809883a 	mov	r4,r23
  80ad68:	a80b883a 	mov	r5,r21
  80ad6c:	1027883a 	mov	r19,r2
  80ad70:	8d3fffcc 	andi	r20,r17,65535
  80ad74:	080b5700 	call	80b570 <__udivsi3>
  80ad78:	a009883a 	mov	r4,r20
  80ad7c:	100b883a 	mov	r5,r2
  80ad80:	102f883a 	mov	r23,r2
  80ad84:	08005640 	call	800564 <__mulsi3>
  80ad88:	9826943a 	slli	r19,r19,16
  80ad8c:	b008d43a 	srli	r4,r22,16
  80ad90:	24c8b03a 	or	r4,r4,r19
  80ad94:	2080062e 	bgeu	r4,r2,80adb0 <__udivdi3+0x4f8>
  80ad98:	2449883a 	add	r4,r4,r17
  80ad9c:	b8ffffc4 	addi	r3,r23,-1
  80ada0:	24403c36 	bltu	r4,r17,80ae94 <__udivdi3+0x5dc>
  80ada4:	20803b2e 	bgeu	r4,r2,80ae94 <__udivdi3+0x5dc>
  80ada8:	bdffff84 	addi	r23,r23,-2
  80adac:	2449883a 	add	r4,r4,r17
  80adb0:	20a1c83a 	sub	r16,r4,r2
  80adb4:	a80b883a 	mov	r5,r21
  80adb8:	8009883a 	mov	r4,r16
  80adbc:	080b5d40 	call	80b5d4 <__umodsi3>
  80adc0:	a80b883a 	mov	r5,r21
  80adc4:	8009883a 	mov	r4,r16
  80adc8:	1027883a 	mov	r19,r2
  80adcc:	080b5700 	call	80b570 <__udivsi3>
  80add0:	a009883a 	mov	r4,r20
  80add4:	100b883a 	mov	r5,r2
  80add8:	9826943a 	slli	r19,r19,16
  80addc:	1039883a 	mov	fp,r2
  80ade0:	08005640 	call	800564 <__mulsi3>
  80ade4:	b13fffcc 	andi	r4,r22,65535
  80ade8:	24c8b03a 	or	r4,r4,r19
  80adec:	2080062e 	bgeu	r4,r2,80ae08 <__udivdi3+0x550>
  80adf0:	2449883a 	add	r4,r4,r17
  80adf4:	e0ffffc4 	addi	r3,fp,-1
  80adf8:	24402436 	bltu	r4,r17,80ae8c <__udivdi3+0x5d4>
  80adfc:	2080232e 	bgeu	r4,r2,80ae8c <__udivdi3+0x5d4>
  80ae00:	e73fff84 	addi	fp,fp,-2
  80ae04:	2449883a 	add	r4,r4,r17
  80ae08:	b82e943a 	slli	r23,r23,16
  80ae0c:	20a1c83a 	sub	r16,r4,r2
  80ae10:	bf06b03a 	or	r3,r23,fp
  80ae14:	003f2806 	br	80aab8 <__alt_data_end+0xff80aab8>
  80ae18:	2021883a 	mov	r16,r4
  80ae1c:	003f5306 	br	80ab6c <__alt_data_end+0xff80ab6c>
  80ae20:	1821883a 	mov	r16,r3
  80ae24:	003ef406 	br	80a9f8 <__alt_data_end+0xff80a9f8>
  80ae28:	1806943a 	slli	r3,r3,16
  80ae2c:	9de6983a 	sll	r19,r19,r23
  80ae30:	e73fffcc 	andi	fp,fp,65535
  80ae34:	1f07883a 	add	r3,r3,fp
  80ae38:	98ffbd2e 	bgeu	r19,r3,80ad30 <__alt_data_end+0xff80ad30>
  80ae3c:	90bfffc4 	addi	r2,r18,-1
  80ae40:	0007883a 	mov	r3,zero
  80ae44:	003f4e06 	br	80ab80 <__alt_data_end+0xff80ab80>
  80ae48:	00800604 	movi	r2,24
  80ae4c:	003ef506 	br	80aa24 <__alt_data_end+0xff80aa24>
  80ae50:	00800604 	movi	r2,24
  80ae54:	003f0b06 	br	80aa84 <__alt_data_end+0xff80aa84>
  80ae58:	00800604 	movi	r2,24
  80ae5c:	003ead06 	br	80a914 <__alt_data_end+0xff80a914>
  80ae60:	0007883a 	mov	r3,zero
  80ae64:	00800044 	movi	r2,1
  80ae68:	003f4506 	br	80ab80 <__alt_data_end+0xff80ab80>
  80ae6c:	80bf8e2e 	bgeu	r16,r2,80aca8 <__alt_data_end+0xff80aca8>
  80ae70:	8c7fff84 	addi	r17,r17,-2
  80ae74:	8721883a 	add	r16,r16,fp
  80ae78:	003f8c06 	br	80acac <__alt_data_end+0xff80acac>
  80ae7c:	18bf762e 	bgeu	r3,r2,80ac58 <__alt_data_end+0xff80ac58>
  80ae80:	ad7fff84 	addi	r21,r21,-2
  80ae84:	1f07883a 	add	r3,r3,fp
  80ae88:	003f7406 	br	80ac5c <__alt_data_end+0xff80ac5c>
  80ae8c:	1839883a 	mov	fp,r3
  80ae90:	003fdd06 	br	80ae08 <__alt_data_end+0xff80ae08>
  80ae94:	182f883a 	mov	r23,r3
  80ae98:	003fc506 	br	80adb0 <__alt_data_end+0xff80adb0>
  80ae9c:	b5bfff84 	addi	r22,r22,-2
  80aea0:	3c4f883a 	add	r7,r7,r17
  80aea4:	003f1a06 	br	80ab10 <__alt_data_end+0xff80ab10>
  80aea8:	b5bfff84 	addi	r22,r22,-2
  80aeac:	1c47883a 	add	r3,r3,r17
  80aeb0:	003ebc06 	br	80a9a4 <__alt_data_end+0xff80a9a4>

0080aeb4 <__umoddi3>:
  80aeb4:	defff304 	addi	sp,sp,-52
  80aeb8:	df000b15 	stw	fp,44(sp)
  80aebc:	dc400415 	stw	r17,16(sp)
  80aec0:	dc000315 	stw	r16,12(sp)
  80aec4:	dfc00c15 	stw	ra,48(sp)
  80aec8:	ddc00a15 	stw	r23,40(sp)
  80aecc:	dd800915 	stw	r22,36(sp)
  80aed0:	dd400815 	stw	r21,32(sp)
  80aed4:	dd000715 	stw	r20,28(sp)
  80aed8:	dcc00615 	stw	r19,24(sp)
  80aedc:	dc800515 	stw	r18,20(sp)
  80aee0:	2021883a 	mov	r16,r4
  80aee4:	2823883a 	mov	r17,r5
  80aee8:	2839883a 	mov	fp,r5
  80aeec:	3800401e 	bne	r7,zero,80aff0 <__umoddi3+0x13c>
  80aef0:	3027883a 	mov	r19,r6
  80aef4:	2029883a 	mov	r20,r4
  80aef8:	2980552e 	bgeu	r5,r6,80b050 <__umoddi3+0x19c>
  80aefc:	00bfffd4 	movui	r2,65535
  80af00:	1180a236 	bltu	r2,r6,80b18c <__umoddi3+0x2d8>
  80af04:	01003fc4 	movi	r4,255
  80af08:	2189803a 	cmpltu	r4,r4,r6
  80af0c:	200890fa 	slli	r4,r4,3
  80af10:	3104d83a 	srl	r2,r6,r4
  80af14:	00c02074 	movhi	r3,129
  80af18:	18ffd744 	addi	r3,r3,-163
  80af1c:	1885883a 	add	r2,r3,r2
  80af20:	10c00003 	ldbu	r3,0(r2)
  80af24:	00800804 	movi	r2,32
  80af28:	1909883a 	add	r4,r3,r4
  80af2c:	1125c83a 	sub	r18,r2,r4
  80af30:	90000526 	beq	r18,zero,80af48 <__umoddi3+0x94>
  80af34:	8ca2983a 	sll	r17,r17,r18
  80af38:	8108d83a 	srl	r4,r16,r4
  80af3c:	34a6983a 	sll	r19,r6,r18
  80af40:	84a8983a 	sll	r20,r16,r18
  80af44:	2478b03a 	or	fp,r4,r17
  80af48:	982cd43a 	srli	r22,r19,16
  80af4c:	e009883a 	mov	r4,fp
  80af50:	9dffffcc 	andi	r23,r19,65535
  80af54:	b00b883a 	mov	r5,r22
  80af58:	080b5d40 	call	80b5d4 <__umodsi3>
  80af5c:	b00b883a 	mov	r5,r22
  80af60:	e009883a 	mov	r4,fp
  80af64:	102b883a 	mov	r21,r2
  80af68:	080b5700 	call	80b570 <__udivsi3>
  80af6c:	100b883a 	mov	r5,r2
  80af70:	b809883a 	mov	r4,r23
  80af74:	08005640 	call	800564 <__mulsi3>
  80af78:	a82a943a 	slli	r21,r21,16
  80af7c:	a006d43a 	srli	r3,r20,16
  80af80:	1d46b03a 	or	r3,r3,r21
  80af84:	1880032e 	bgeu	r3,r2,80af94 <__umoddi3+0xe0>
  80af88:	1cc7883a 	add	r3,r3,r19
  80af8c:	1cc00136 	bltu	r3,r19,80af94 <__umoddi3+0xe0>
  80af90:	18813136 	bltu	r3,r2,80b458 <__umoddi3+0x5a4>
  80af94:	18a1c83a 	sub	r16,r3,r2
  80af98:	b00b883a 	mov	r5,r22
  80af9c:	8009883a 	mov	r4,r16
  80afa0:	080b5d40 	call	80b5d4 <__umodsi3>
  80afa4:	b00b883a 	mov	r5,r22
  80afa8:	8009883a 	mov	r4,r16
  80afac:	1023883a 	mov	r17,r2
  80afb0:	080b5700 	call	80b570 <__udivsi3>
  80afb4:	100b883a 	mov	r5,r2
  80afb8:	b809883a 	mov	r4,r23
  80afbc:	8822943a 	slli	r17,r17,16
  80afc0:	08005640 	call	800564 <__mulsi3>
  80afc4:	a0ffffcc 	andi	r3,r20,65535
  80afc8:	1c46b03a 	or	r3,r3,r17
  80afcc:	1880042e 	bgeu	r3,r2,80afe0 <__umoddi3+0x12c>
  80afd0:	1cc7883a 	add	r3,r3,r19
  80afd4:	1cc00236 	bltu	r3,r19,80afe0 <__umoddi3+0x12c>
  80afd8:	1880012e 	bgeu	r3,r2,80afe0 <__umoddi3+0x12c>
  80afdc:	1cc7883a 	add	r3,r3,r19
  80afe0:	1885c83a 	sub	r2,r3,r2
  80afe4:	1484d83a 	srl	r2,r2,r18
  80afe8:	0007883a 	mov	r3,zero
  80afec:	00005306 	br	80b13c <__umoddi3+0x288>
  80aff0:	29c05036 	bltu	r5,r7,80b134 <__umoddi3+0x280>
  80aff4:	00bfffd4 	movui	r2,65535
  80aff8:	11c05c2e 	bgeu	r2,r7,80b16c <__umoddi3+0x2b8>
  80affc:	00804034 	movhi	r2,256
  80b000:	10bfffc4 	addi	r2,r2,-1
  80b004:	11c10636 	bltu	r2,r7,80b420 <__umoddi3+0x56c>
  80b008:	01000404 	movi	r4,16
  80b00c:	3904d83a 	srl	r2,r7,r4
  80b010:	00c02074 	movhi	r3,129
  80b014:	18ffd744 	addi	r3,r3,-163
  80b018:	1885883a 	add	r2,r3,r2
  80b01c:	14c00003 	ldbu	r19,0(r2)
  80b020:	00c00804 	movi	r3,32
  80b024:	9927883a 	add	r19,r19,r4
  80b028:	1ce9c83a 	sub	r20,r3,r19
  80b02c:	a0005c1e 	bne	r20,zero,80b1a0 <__umoddi3+0x2ec>
  80b030:	3c400136 	bltu	r7,r17,80b038 <__umoddi3+0x184>
  80b034:	81810a36 	bltu	r16,r6,80b460 <__umoddi3+0x5ac>
  80b038:	8185c83a 	sub	r2,r16,r6
  80b03c:	89e3c83a 	sub	r17,r17,r7
  80b040:	8089803a 	cmpltu	r4,r16,r2
  80b044:	8939c83a 	sub	fp,r17,r4
  80b048:	e007883a 	mov	r3,fp
  80b04c:	00003b06 	br	80b13c <__umoddi3+0x288>
  80b050:	3000041e 	bne	r6,zero,80b064 <__umoddi3+0x1b0>
  80b054:	000b883a 	mov	r5,zero
  80b058:	01000044 	movi	r4,1
  80b05c:	080b5700 	call	80b570 <__udivsi3>
  80b060:	1027883a 	mov	r19,r2
  80b064:	00bfffd4 	movui	r2,65535
  80b068:	14c0442e 	bgeu	r2,r19,80b17c <__umoddi3+0x2c8>
  80b06c:	00804034 	movhi	r2,256
  80b070:	10bfffc4 	addi	r2,r2,-1
  80b074:	14c0ec36 	bltu	r2,r19,80b428 <__umoddi3+0x574>
  80b078:	00800404 	movi	r2,16
  80b07c:	9886d83a 	srl	r3,r19,r2
  80b080:	01002074 	movhi	r4,129
  80b084:	213fd744 	addi	r4,r4,-163
  80b088:	20c7883a 	add	r3,r4,r3
  80b08c:	18c00003 	ldbu	r3,0(r3)
  80b090:	1887883a 	add	r3,r3,r2
  80b094:	00800804 	movi	r2,32
  80b098:	10e5c83a 	sub	r18,r2,r3
  80b09c:	9000ab1e 	bne	r18,zero,80b34c <__umoddi3+0x498>
  80b0a0:	982cd43a 	srli	r22,r19,16
  80b0a4:	8ce3c83a 	sub	r17,r17,r19
  80b0a8:	9dffffcc 	andi	r23,r19,65535
  80b0ac:	b00b883a 	mov	r5,r22
  80b0b0:	8809883a 	mov	r4,r17
  80b0b4:	080b5d40 	call	80b5d4 <__umodsi3>
  80b0b8:	b00b883a 	mov	r5,r22
  80b0bc:	8809883a 	mov	r4,r17
  80b0c0:	102b883a 	mov	r21,r2
  80b0c4:	080b5700 	call	80b570 <__udivsi3>
  80b0c8:	b80b883a 	mov	r5,r23
  80b0cc:	1009883a 	mov	r4,r2
  80b0d0:	08005640 	call	800564 <__mulsi3>
  80b0d4:	a82a943a 	slli	r21,r21,16
  80b0d8:	a006d43a 	srli	r3,r20,16
  80b0dc:	1d46b03a 	or	r3,r3,r21
  80b0e0:	1880042e 	bgeu	r3,r2,80b0f4 <__umoddi3+0x240>
  80b0e4:	1cc7883a 	add	r3,r3,r19
  80b0e8:	1cc00236 	bltu	r3,r19,80b0f4 <__umoddi3+0x240>
  80b0ec:	1880012e 	bgeu	r3,r2,80b0f4 <__umoddi3+0x240>
  80b0f0:	1cc7883a 	add	r3,r3,r19
  80b0f4:	18a1c83a 	sub	r16,r3,r2
  80b0f8:	b00b883a 	mov	r5,r22
  80b0fc:	8009883a 	mov	r4,r16
  80b100:	080b5d40 	call	80b5d4 <__umodsi3>
  80b104:	1023883a 	mov	r17,r2
  80b108:	b00b883a 	mov	r5,r22
  80b10c:	8009883a 	mov	r4,r16
  80b110:	080b5700 	call	80b570 <__udivsi3>
  80b114:	8822943a 	slli	r17,r17,16
  80b118:	b80b883a 	mov	r5,r23
  80b11c:	1009883a 	mov	r4,r2
  80b120:	08005640 	call	800564 <__mulsi3>
  80b124:	a53fffcc 	andi	r20,r20,65535
  80b128:	a446b03a 	or	r3,r20,r17
  80b12c:	18bfac2e 	bgeu	r3,r2,80afe0 <__alt_data_end+0xff80afe0>
  80b130:	003fa706 	br	80afd0 <__alt_data_end+0xff80afd0>
  80b134:	2005883a 	mov	r2,r4
  80b138:	2807883a 	mov	r3,r5
  80b13c:	dfc00c17 	ldw	ra,48(sp)
  80b140:	df000b17 	ldw	fp,44(sp)
  80b144:	ddc00a17 	ldw	r23,40(sp)
  80b148:	dd800917 	ldw	r22,36(sp)
  80b14c:	dd400817 	ldw	r21,32(sp)
  80b150:	dd000717 	ldw	r20,28(sp)
  80b154:	dcc00617 	ldw	r19,24(sp)
  80b158:	dc800517 	ldw	r18,20(sp)
  80b15c:	dc400417 	ldw	r17,16(sp)
  80b160:	dc000317 	ldw	r16,12(sp)
  80b164:	dec00d04 	addi	sp,sp,52
  80b168:	f800283a 	ret
  80b16c:	04c03fc4 	movi	r19,255
  80b170:	99c9803a 	cmpltu	r4,r19,r7
  80b174:	200890fa 	slli	r4,r4,3
  80b178:	003fa406 	br	80b00c <__alt_data_end+0xff80b00c>
  80b17c:	00803fc4 	movi	r2,255
  80b180:	14c5803a 	cmpltu	r2,r2,r19
  80b184:	100490fa 	slli	r2,r2,3
  80b188:	003fbc06 	br	80b07c <__alt_data_end+0xff80b07c>
  80b18c:	00804034 	movhi	r2,256
  80b190:	10bfffc4 	addi	r2,r2,-1
  80b194:	1180a636 	bltu	r2,r6,80b430 <__umoddi3+0x57c>
  80b198:	01000404 	movi	r4,16
  80b19c:	003f5c06 	br	80af10 <__alt_data_end+0xff80af10>
  80b1a0:	3d0e983a 	sll	r7,r7,r20
  80b1a4:	34ead83a 	srl	r21,r6,r19
  80b1a8:	8cc6d83a 	srl	r3,r17,r19
  80b1ac:	8d10983a 	sll	r8,r17,r20
  80b1b0:	3d6ab03a 	or	r21,r7,r21
  80b1b4:	a82cd43a 	srli	r22,r21,16
  80b1b8:	84e2d83a 	srl	r17,r16,r19
  80b1bc:	1809883a 	mov	r4,r3
  80b1c0:	b00b883a 	mov	r5,r22
  80b1c4:	8a22b03a 	or	r17,r17,r8
  80b1c8:	3524983a 	sll	r18,r6,r20
  80b1cc:	dc400015 	stw	r17,0(sp)
  80b1d0:	d8c00115 	stw	r3,4(sp)
  80b1d4:	080b5d40 	call	80b5d4 <__umodsi3>
  80b1d8:	d8c00117 	ldw	r3,4(sp)
  80b1dc:	b00b883a 	mov	r5,r22
  80b1e0:	1039883a 	mov	fp,r2
  80b1e4:	1809883a 	mov	r4,r3
  80b1e8:	080b5700 	call	80b570 <__udivsi3>
  80b1ec:	adffffcc 	andi	r23,r21,65535
  80b1f0:	100b883a 	mov	r5,r2
  80b1f4:	b809883a 	mov	r4,r23
  80b1f8:	1023883a 	mov	r17,r2
  80b1fc:	08005640 	call	800564 <__mulsi3>
  80b200:	d9400017 	ldw	r5,0(sp)
  80b204:	e008943a 	slli	r4,fp,16
  80b208:	8520983a 	sll	r16,r16,r20
  80b20c:	2806d43a 	srli	r3,r5,16
  80b210:	1906b03a 	or	r3,r3,r4
  80b214:	1880042e 	bgeu	r3,r2,80b228 <__umoddi3+0x374>
  80b218:	1d47883a 	add	r3,r3,r21
  80b21c:	893fffc4 	addi	r4,r17,-1
  80b220:	1d40892e 	bgeu	r3,r21,80b448 <__umoddi3+0x594>
  80b224:	2023883a 	mov	r17,r4
  80b228:	18b9c83a 	sub	fp,r3,r2
  80b22c:	b00b883a 	mov	r5,r22
  80b230:	e009883a 	mov	r4,fp
  80b234:	080b5d40 	call	80b5d4 <__umodsi3>
  80b238:	b00b883a 	mov	r5,r22
  80b23c:	e009883a 	mov	r4,fp
  80b240:	d8800215 	stw	r2,8(sp)
  80b244:	080b5700 	call	80b570 <__udivsi3>
  80b248:	100b883a 	mov	r5,r2
  80b24c:	b809883a 	mov	r4,r23
  80b250:	102d883a 	mov	r22,r2
  80b254:	08005640 	call	800564 <__mulsi3>
  80b258:	d9800217 	ldw	r6,8(sp)
  80b25c:	d8c00017 	ldw	r3,0(sp)
  80b260:	300c943a 	slli	r6,r6,16
  80b264:	1a3fffcc 	andi	r8,r3,65535
  80b268:	4190b03a 	or	r8,r8,r6
  80b26c:	4080042e 	bgeu	r8,r2,80b280 <__umoddi3+0x3cc>
  80b270:	4551883a 	add	r8,r8,r21
  80b274:	b0ffffc4 	addi	r3,r22,-1
  80b278:	45406f2e 	bgeu	r8,r21,80b438 <__umoddi3+0x584>
  80b27c:	182d883a 	mov	r22,r3
  80b280:	880e943a 	slli	r7,r17,16
  80b284:	9006d43a 	srli	r3,r18,16
  80b288:	91bfffcc 	andi	r6,r18,65535
  80b28c:	3dacb03a 	or	r22,r7,r22
  80b290:	b02ed43a 	srli	r23,r22,16
  80b294:	b5bfffcc 	andi	r22,r22,65535
  80b298:	300b883a 	mov	r5,r6
  80b29c:	b009883a 	mov	r4,r22
  80b2a0:	40a3c83a 	sub	r17,r8,r2
  80b2a4:	d8c00115 	stw	r3,4(sp)
  80b2a8:	d9800215 	stw	r6,8(sp)
  80b2ac:	08005640 	call	800564 <__mulsi3>
  80b2b0:	d9800217 	ldw	r6,8(sp)
  80b2b4:	b809883a 	mov	r4,r23
  80b2b8:	1039883a 	mov	fp,r2
  80b2bc:	300b883a 	mov	r5,r6
  80b2c0:	08005640 	call	800564 <__mulsi3>
  80b2c4:	d8c00117 	ldw	r3,4(sp)
  80b2c8:	b809883a 	mov	r4,r23
  80b2cc:	d8800215 	stw	r2,8(sp)
  80b2d0:	180b883a 	mov	r5,r3
  80b2d4:	08005640 	call	800564 <__mulsi3>
  80b2d8:	d8c00117 	ldw	r3,4(sp)
  80b2dc:	b009883a 	mov	r4,r22
  80b2e0:	102f883a 	mov	r23,r2
  80b2e4:	180b883a 	mov	r5,r3
  80b2e8:	08005640 	call	800564 <__mulsi3>
  80b2ec:	d9800217 	ldw	r6,8(sp)
  80b2f0:	e006d43a 	srli	r3,fp,16
  80b2f4:	1185883a 	add	r2,r2,r6
  80b2f8:	1885883a 	add	r2,r3,r2
  80b2fc:	1180022e 	bgeu	r2,r6,80b308 <__umoddi3+0x454>
  80b300:	00c00074 	movhi	r3,1
  80b304:	b8ef883a 	add	r23,r23,r3
  80b308:	1006d43a 	srli	r3,r2,16
  80b30c:	1004943a 	slli	r2,r2,16
  80b310:	e73fffcc 	andi	fp,fp,65535
  80b314:	1dc7883a 	add	r3,r3,r23
  80b318:	1739883a 	add	fp,r2,fp
  80b31c:	88c03a36 	bltu	r17,r3,80b408 <__umoddi3+0x554>
  80b320:	88c05126 	beq	r17,r3,80b468 <__umoddi3+0x5b4>
  80b324:	88c9c83a 	sub	r4,r17,r3
  80b328:	e00f883a 	mov	r7,fp
  80b32c:	81cfc83a 	sub	r7,r16,r7
  80b330:	81c7803a 	cmpltu	r3,r16,r7
  80b334:	20c7c83a 	sub	r3,r4,r3
  80b338:	1cc4983a 	sll	r2,r3,r19
  80b33c:	3d0ed83a 	srl	r7,r7,r20
  80b340:	1d06d83a 	srl	r3,r3,r20
  80b344:	11c4b03a 	or	r2,r2,r7
  80b348:	003f7c06 	br	80b13c <__alt_data_end+0xff80b13c>
  80b34c:	9ca6983a 	sll	r19,r19,r18
  80b350:	88f8d83a 	srl	fp,r17,r3
  80b354:	80c4d83a 	srl	r2,r16,r3
  80b358:	982cd43a 	srli	r22,r19,16
  80b35c:	8ca2983a 	sll	r17,r17,r18
  80b360:	e009883a 	mov	r4,fp
  80b364:	b00b883a 	mov	r5,r22
  80b368:	146ab03a 	or	r21,r2,r17
  80b36c:	080b5d40 	call	80b5d4 <__umodsi3>
  80b370:	b00b883a 	mov	r5,r22
  80b374:	e009883a 	mov	r4,fp
  80b378:	1029883a 	mov	r20,r2
  80b37c:	9dffffcc 	andi	r23,r19,65535
  80b380:	080b5700 	call	80b570 <__udivsi3>
  80b384:	b809883a 	mov	r4,r23
  80b388:	100b883a 	mov	r5,r2
  80b38c:	08005640 	call	800564 <__mulsi3>
  80b390:	a008943a 	slli	r4,r20,16
  80b394:	a806d43a 	srli	r3,r21,16
  80b398:	84a8983a 	sll	r20,r16,r18
  80b39c:	1906b03a 	or	r3,r3,r4
  80b3a0:	1880042e 	bgeu	r3,r2,80b3b4 <__umoddi3+0x500>
  80b3a4:	1cc7883a 	add	r3,r3,r19
  80b3a8:	1cc00236 	bltu	r3,r19,80b3b4 <__umoddi3+0x500>
  80b3ac:	1880012e 	bgeu	r3,r2,80b3b4 <__umoddi3+0x500>
  80b3b0:	1cc7883a 	add	r3,r3,r19
  80b3b4:	18a3c83a 	sub	r17,r3,r2
  80b3b8:	b00b883a 	mov	r5,r22
  80b3bc:	8809883a 	mov	r4,r17
  80b3c0:	080b5d40 	call	80b5d4 <__umodsi3>
  80b3c4:	b00b883a 	mov	r5,r22
  80b3c8:	8809883a 	mov	r4,r17
  80b3cc:	1021883a 	mov	r16,r2
  80b3d0:	080b5700 	call	80b570 <__udivsi3>
  80b3d4:	100b883a 	mov	r5,r2
  80b3d8:	b809883a 	mov	r4,r23
  80b3dc:	8020943a 	slli	r16,r16,16
  80b3e0:	08005640 	call	800564 <__mulsi3>
  80b3e4:	a8ffffcc 	andi	r3,r21,65535
  80b3e8:	1c06b03a 	or	r3,r3,r16
  80b3ec:	1880042e 	bgeu	r3,r2,80b400 <__umoddi3+0x54c>
  80b3f0:	1cc7883a 	add	r3,r3,r19
  80b3f4:	1cc00236 	bltu	r3,r19,80b400 <__umoddi3+0x54c>
  80b3f8:	1880012e 	bgeu	r3,r2,80b400 <__umoddi3+0x54c>
  80b3fc:	1cc7883a 	add	r3,r3,r19
  80b400:	18a3c83a 	sub	r17,r3,r2
  80b404:	003f2906 	br	80b0ac <__alt_data_end+0xff80b0ac>
  80b408:	e48fc83a 	sub	r7,fp,r18
  80b40c:	1d49c83a 	sub	r4,r3,r21
  80b410:	e1f9803a 	cmpltu	fp,fp,r7
  80b414:	2739c83a 	sub	fp,r4,fp
  80b418:	8f09c83a 	sub	r4,r17,fp
  80b41c:	003fc306 	br	80b32c <__alt_data_end+0xff80b32c>
  80b420:	01000604 	movi	r4,24
  80b424:	003ef906 	br	80b00c <__alt_data_end+0xff80b00c>
  80b428:	00800604 	movi	r2,24
  80b42c:	003f1306 	br	80b07c <__alt_data_end+0xff80b07c>
  80b430:	01000604 	movi	r4,24
  80b434:	003eb606 	br	80af10 <__alt_data_end+0xff80af10>
  80b438:	40bf902e 	bgeu	r8,r2,80b27c <__alt_data_end+0xff80b27c>
  80b43c:	b5bfff84 	addi	r22,r22,-2
  80b440:	4551883a 	add	r8,r8,r21
  80b444:	003f8e06 	br	80b280 <__alt_data_end+0xff80b280>
  80b448:	18bf762e 	bgeu	r3,r2,80b224 <__alt_data_end+0xff80b224>
  80b44c:	8c7fff84 	addi	r17,r17,-2
  80b450:	1d47883a 	add	r3,r3,r21
  80b454:	003f7406 	br	80b228 <__alt_data_end+0xff80b228>
  80b458:	1cc7883a 	add	r3,r3,r19
  80b45c:	003ecd06 	br	80af94 <__alt_data_end+0xff80af94>
  80b460:	8005883a 	mov	r2,r16
  80b464:	003ef806 	br	80b048 <__alt_data_end+0xff80b048>
  80b468:	873fe736 	bltu	r16,fp,80b408 <__alt_data_end+0xff80b408>
  80b46c:	e00f883a 	mov	r7,fp
  80b470:	0009883a 	mov	r4,zero
  80b474:	003fad06 	br	80b32c <__alt_data_end+0xff80b32c>

0080b478 <__divsi3>:
  80b478:	20001b16 	blt	r4,zero,80b4e8 <__divsi3+0x70>
  80b47c:	000f883a 	mov	r7,zero
  80b480:	28001616 	blt	r5,zero,80b4dc <__divsi3+0x64>
  80b484:	200d883a 	mov	r6,r4
  80b488:	29001a2e 	bgeu	r5,r4,80b4f4 <__divsi3+0x7c>
  80b48c:	00800804 	movi	r2,32
  80b490:	00c00044 	movi	r3,1
  80b494:	00000106 	br	80b49c <__divsi3+0x24>
  80b498:	10000d26 	beq	r2,zero,80b4d0 <__divsi3+0x58>
  80b49c:	294b883a 	add	r5,r5,r5
  80b4a0:	10bfffc4 	addi	r2,r2,-1
  80b4a4:	18c7883a 	add	r3,r3,r3
  80b4a8:	293ffb36 	bltu	r5,r4,80b498 <__alt_data_end+0xff80b498>
  80b4ac:	0005883a 	mov	r2,zero
  80b4b0:	18000726 	beq	r3,zero,80b4d0 <__divsi3+0x58>
  80b4b4:	0005883a 	mov	r2,zero
  80b4b8:	31400236 	bltu	r6,r5,80b4c4 <__divsi3+0x4c>
  80b4bc:	314dc83a 	sub	r6,r6,r5
  80b4c0:	10c4b03a 	or	r2,r2,r3
  80b4c4:	1806d07a 	srli	r3,r3,1
  80b4c8:	280ad07a 	srli	r5,r5,1
  80b4cc:	183ffa1e 	bne	r3,zero,80b4b8 <__alt_data_end+0xff80b4b8>
  80b4d0:	38000126 	beq	r7,zero,80b4d8 <__divsi3+0x60>
  80b4d4:	0085c83a 	sub	r2,zero,r2
  80b4d8:	f800283a 	ret
  80b4dc:	014bc83a 	sub	r5,zero,r5
  80b4e0:	39c0005c 	xori	r7,r7,1
  80b4e4:	003fe706 	br	80b484 <__alt_data_end+0xff80b484>
  80b4e8:	0109c83a 	sub	r4,zero,r4
  80b4ec:	01c00044 	movi	r7,1
  80b4f0:	003fe306 	br	80b480 <__alt_data_end+0xff80b480>
  80b4f4:	00c00044 	movi	r3,1
  80b4f8:	003fee06 	br	80b4b4 <__alt_data_end+0xff80b4b4>

0080b4fc <__modsi3>:
  80b4fc:	20001716 	blt	r4,zero,80b55c <__modsi3+0x60>
  80b500:	000f883a 	mov	r7,zero
  80b504:	2005883a 	mov	r2,r4
  80b508:	28001216 	blt	r5,zero,80b554 <__modsi3+0x58>
  80b50c:	2900162e 	bgeu	r5,r4,80b568 <__modsi3+0x6c>
  80b510:	01800804 	movi	r6,32
  80b514:	00c00044 	movi	r3,1
  80b518:	00000106 	br	80b520 <__modsi3+0x24>
  80b51c:	30000a26 	beq	r6,zero,80b548 <__modsi3+0x4c>
  80b520:	294b883a 	add	r5,r5,r5
  80b524:	31bfffc4 	addi	r6,r6,-1
  80b528:	18c7883a 	add	r3,r3,r3
  80b52c:	293ffb36 	bltu	r5,r4,80b51c <__alt_data_end+0xff80b51c>
  80b530:	18000526 	beq	r3,zero,80b548 <__modsi3+0x4c>
  80b534:	1806d07a 	srli	r3,r3,1
  80b538:	11400136 	bltu	r2,r5,80b540 <__modsi3+0x44>
  80b53c:	1145c83a 	sub	r2,r2,r5
  80b540:	280ad07a 	srli	r5,r5,1
  80b544:	183ffb1e 	bne	r3,zero,80b534 <__alt_data_end+0xff80b534>
  80b548:	38000126 	beq	r7,zero,80b550 <__modsi3+0x54>
  80b54c:	0085c83a 	sub	r2,zero,r2
  80b550:	f800283a 	ret
  80b554:	014bc83a 	sub	r5,zero,r5
  80b558:	003fec06 	br	80b50c <__alt_data_end+0xff80b50c>
  80b55c:	0109c83a 	sub	r4,zero,r4
  80b560:	01c00044 	movi	r7,1
  80b564:	003fe706 	br	80b504 <__alt_data_end+0xff80b504>
  80b568:	00c00044 	movi	r3,1
  80b56c:	003ff106 	br	80b534 <__alt_data_end+0xff80b534>

0080b570 <__udivsi3>:
  80b570:	200d883a 	mov	r6,r4
  80b574:	2900152e 	bgeu	r5,r4,80b5cc <__udivsi3+0x5c>
  80b578:	28001416 	blt	r5,zero,80b5cc <__udivsi3+0x5c>
  80b57c:	00800804 	movi	r2,32
  80b580:	00c00044 	movi	r3,1
  80b584:	00000206 	br	80b590 <__udivsi3+0x20>
  80b588:	10000e26 	beq	r2,zero,80b5c4 <__udivsi3+0x54>
  80b58c:	28000516 	blt	r5,zero,80b5a4 <__udivsi3+0x34>
  80b590:	294b883a 	add	r5,r5,r5
  80b594:	10bfffc4 	addi	r2,r2,-1
  80b598:	18c7883a 	add	r3,r3,r3
  80b59c:	293ffa36 	bltu	r5,r4,80b588 <__alt_data_end+0xff80b588>
  80b5a0:	18000826 	beq	r3,zero,80b5c4 <__udivsi3+0x54>
  80b5a4:	0005883a 	mov	r2,zero
  80b5a8:	31400236 	bltu	r6,r5,80b5b4 <__udivsi3+0x44>
  80b5ac:	314dc83a 	sub	r6,r6,r5
  80b5b0:	10c4b03a 	or	r2,r2,r3
  80b5b4:	1806d07a 	srli	r3,r3,1
  80b5b8:	280ad07a 	srli	r5,r5,1
  80b5bc:	183ffa1e 	bne	r3,zero,80b5a8 <__alt_data_end+0xff80b5a8>
  80b5c0:	f800283a 	ret
  80b5c4:	0005883a 	mov	r2,zero
  80b5c8:	f800283a 	ret
  80b5cc:	00c00044 	movi	r3,1
  80b5d0:	003ff406 	br	80b5a4 <__alt_data_end+0xff80b5a4>

0080b5d4 <__umodsi3>:
  80b5d4:	2005883a 	mov	r2,r4
  80b5d8:	2900122e 	bgeu	r5,r4,80b624 <__umodsi3+0x50>
  80b5dc:	28001116 	blt	r5,zero,80b624 <__umodsi3+0x50>
  80b5e0:	01800804 	movi	r6,32
  80b5e4:	00c00044 	movi	r3,1
  80b5e8:	00000206 	br	80b5f4 <__umodsi3+0x20>
  80b5ec:	30000c26 	beq	r6,zero,80b620 <__umodsi3+0x4c>
  80b5f0:	28000516 	blt	r5,zero,80b608 <__umodsi3+0x34>
  80b5f4:	294b883a 	add	r5,r5,r5
  80b5f8:	31bfffc4 	addi	r6,r6,-1
  80b5fc:	18c7883a 	add	r3,r3,r3
  80b600:	293ffa36 	bltu	r5,r4,80b5ec <__alt_data_end+0xff80b5ec>
  80b604:	18000626 	beq	r3,zero,80b620 <__umodsi3+0x4c>
  80b608:	1806d07a 	srli	r3,r3,1
  80b60c:	11400136 	bltu	r2,r5,80b614 <__umodsi3+0x40>
  80b610:	1145c83a 	sub	r2,r2,r5
  80b614:	280ad07a 	srli	r5,r5,1
  80b618:	183ffb1e 	bne	r3,zero,80b608 <__alt_data_end+0xff80b608>
  80b61c:	f800283a 	ret
  80b620:	f800283a 	ret
  80b624:	00c00044 	movi	r3,1
  80b628:	003ff706 	br	80b608 <__alt_data_end+0xff80b608>

0080b62c <__adddf3>:
  80b62c:	02c00434 	movhi	r11,16
  80b630:	5affffc4 	addi	r11,r11,-1
  80b634:	2806d7fa 	srli	r3,r5,31
  80b638:	2ad4703a 	and	r10,r5,r11
  80b63c:	3ad2703a 	and	r9,r7,r11
  80b640:	3804d53a 	srli	r2,r7,20
  80b644:	3018d77a 	srli	r12,r6,29
  80b648:	280ad53a 	srli	r5,r5,20
  80b64c:	501490fa 	slli	r10,r10,3
  80b650:	2010d77a 	srli	r8,r4,29
  80b654:	481290fa 	slli	r9,r9,3
  80b658:	380ed7fa 	srli	r7,r7,31
  80b65c:	defffb04 	addi	sp,sp,-20
  80b660:	dc800215 	stw	r18,8(sp)
  80b664:	dc400115 	stw	r17,4(sp)
  80b668:	dc000015 	stw	r16,0(sp)
  80b66c:	dfc00415 	stw	ra,16(sp)
  80b670:	dcc00315 	stw	r19,12(sp)
  80b674:	1c803fcc 	andi	r18,r3,255
  80b678:	2c01ffcc 	andi	r16,r5,2047
  80b67c:	5210b03a 	or	r8,r10,r8
  80b680:	202290fa 	slli	r17,r4,3
  80b684:	1081ffcc 	andi	r2,r2,2047
  80b688:	4b12b03a 	or	r9,r9,r12
  80b68c:	300c90fa 	slli	r6,r6,3
  80b690:	91c07526 	beq	r18,r7,80b868 <__adddf3+0x23c>
  80b694:	8087c83a 	sub	r3,r16,r2
  80b698:	00c0ab0e 	bge	zero,r3,80b948 <__adddf3+0x31c>
  80b69c:	10002a1e 	bne	r2,zero,80b748 <__adddf3+0x11c>
  80b6a0:	4984b03a 	or	r2,r9,r6
  80b6a4:	1000961e 	bne	r2,zero,80b900 <__adddf3+0x2d4>
  80b6a8:	888001cc 	andi	r2,r17,7
  80b6ac:	10000726 	beq	r2,zero,80b6cc <__adddf3+0xa0>
  80b6b0:	888003cc 	andi	r2,r17,15
  80b6b4:	00c00104 	movi	r3,4
  80b6b8:	10c00426 	beq	r2,r3,80b6cc <__adddf3+0xa0>
  80b6bc:	88c7883a 	add	r3,r17,r3
  80b6c0:	1c63803a 	cmpltu	r17,r3,r17
  80b6c4:	4451883a 	add	r8,r8,r17
  80b6c8:	1823883a 	mov	r17,r3
  80b6cc:	4080202c 	andhi	r2,r8,128
  80b6d0:	10005926 	beq	r2,zero,80b838 <__adddf3+0x20c>
  80b6d4:	84000044 	addi	r16,r16,1
  80b6d8:	0081ffc4 	movi	r2,2047
  80b6dc:	8080ba26 	beq	r16,r2,80b9c8 <__adddf3+0x39c>
  80b6e0:	00bfe034 	movhi	r2,65408
  80b6e4:	10bfffc4 	addi	r2,r2,-1
  80b6e8:	4090703a 	and	r8,r8,r2
  80b6ec:	4004977a 	slli	r2,r8,29
  80b6f0:	4010927a 	slli	r8,r8,9
  80b6f4:	8822d0fa 	srli	r17,r17,3
  80b6f8:	8401ffcc 	andi	r16,r16,2047
  80b6fc:	4010d33a 	srli	r8,r8,12
  80b700:	9007883a 	mov	r3,r18
  80b704:	1444b03a 	or	r2,r2,r17
  80b708:	8401ffcc 	andi	r16,r16,2047
  80b70c:	8020953a 	slli	r16,r16,20
  80b710:	18c03fcc 	andi	r3,r3,255
  80b714:	01000434 	movhi	r4,16
  80b718:	213fffc4 	addi	r4,r4,-1
  80b71c:	180697fa 	slli	r3,r3,31
  80b720:	4110703a 	and	r8,r8,r4
  80b724:	4410b03a 	or	r8,r8,r16
  80b728:	40c6b03a 	or	r3,r8,r3
  80b72c:	dfc00417 	ldw	ra,16(sp)
  80b730:	dcc00317 	ldw	r19,12(sp)
  80b734:	dc800217 	ldw	r18,8(sp)
  80b738:	dc400117 	ldw	r17,4(sp)
  80b73c:	dc000017 	ldw	r16,0(sp)
  80b740:	dec00504 	addi	sp,sp,20
  80b744:	f800283a 	ret
  80b748:	0081ffc4 	movi	r2,2047
  80b74c:	80bfd626 	beq	r16,r2,80b6a8 <__alt_data_end+0xff80b6a8>
  80b750:	4a402034 	orhi	r9,r9,128
  80b754:	00800e04 	movi	r2,56
  80b758:	10c09f16 	blt	r2,r3,80b9d8 <__adddf3+0x3ac>
  80b75c:	008007c4 	movi	r2,31
  80b760:	10c0c216 	blt	r2,r3,80ba6c <__adddf3+0x440>
  80b764:	00800804 	movi	r2,32
  80b768:	10c5c83a 	sub	r2,r2,r3
  80b76c:	488a983a 	sll	r5,r9,r2
  80b770:	30c8d83a 	srl	r4,r6,r3
  80b774:	3084983a 	sll	r2,r6,r2
  80b778:	48c6d83a 	srl	r3,r9,r3
  80b77c:	290cb03a 	or	r6,r5,r4
  80b780:	1004c03a 	cmpne	r2,r2,zero
  80b784:	308cb03a 	or	r6,r6,r2
  80b788:	898dc83a 	sub	r6,r17,r6
  80b78c:	89a3803a 	cmpltu	r17,r17,r6
  80b790:	40d1c83a 	sub	r8,r8,r3
  80b794:	4451c83a 	sub	r8,r8,r17
  80b798:	3023883a 	mov	r17,r6
  80b79c:	4080202c 	andhi	r2,r8,128
  80b7a0:	10002326 	beq	r2,zero,80b830 <__adddf3+0x204>
  80b7a4:	04c02034 	movhi	r19,128
  80b7a8:	9cffffc4 	addi	r19,r19,-1
  80b7ac:	44e6703a 	and	r19,r8,r19
  80b7b0:	98007626 	beq	r19,zero,80b98c <__adddf3+0x360>
  80b7b4:	9809883a 	mov	r4,r19
  80b7b8:	08010280 	call	801028 <__clzsi2>
  80b7bc:	10fffe04 	addi	r3,r2,-8
  80b7c0:	010007c4 	movi	r4,31
  80b7c4:	20c07716 	blt	r4,r3,80b9a4 <__adddf3+0x378>
  80b7c8:	00800804 	movi	r2,32
  80b7cc:	10c5c83a 	sub	r2,r2,r3
  80b7d0:	8884d83a 	srl	r2,r17,r2
  80b7d4:	98d0983a 	sll	r8,r19,r3
  80b7d8:	88e2983a 	sll	r17,r17,r3
  80b7dc:	1204b03a 	or	r2,r2,r8
  80b7e0:	1c007416 	blt	r3,r16,80b9b4 <__adddf3+0x388>
  80b7e4:	1c21c83a 	sub	r16,r3,r16
  80b7e8:	82000044 	addi	r8,r16,1
  80b7ec:	00c007c4 	movi	r3,31
  80b7f0:	1a009116 	blt	r3,r8,80ba38 <__adddf3+0x40c>
  80b7f4:	00c00804 	movi	r3,32
  80b7f8:	1a07c83a 	sub	r3,r3,r8
  80b7fc:	8a08d83a 	srl	r4,r17,r8
  80b800:	88e2983a 	sll	r17,r17,r3
  80b804:	10c6983a 	sll	r3,r2,r3
  80b808:	1210d83a 	srl	r8,r2,r8
  80b80c:	8804c03a 	cmpne	r2,r17,zero
  80b810:	1906b03a 	or	r3,r3,r4
  80b814:	18a2b03a 	or	r17,r3,r2
  80b818:	0021883a 	mov	r16,zero
  80b81c:	003fa206 	br	80b6a8 <__alt_data_end+0xff80b6a8>
  80b820:	1890b03a 	or	r8,r3,r2
  80b824:	40017d26 	beq	r8,zero,80be1c <__adddf3+0x7f0>
  80b828:	1011883a 	mov	r8,r2
  80b82c:	1823883a 	mov	r17,r3
  80b830:	888001cc 	andi	r2,r17,7
  80b834:	103f9e1e 	bne	r2,zero,80b6b0 <__alt_data_end+0xff80b6b0>
  80b838:	4004977a 	slli	r2,r8,29
  80b83c:	8822d0fa 	srli	r17,r17,3
  80b840:	4010d0fa 	srli	r8,r8,3
  80b844:	9007883a 	mov	r3,r18
  80b848:	1444b03a 	or	r2,r2,r17
  80b84c:	0101ffc4 	movi	r4,2047
  80b850:	81002426 	beq	r16,r4,80b8e4 <__adddf3+0x2b8>
  80b854:	8120703a 	and	r16,r16,r4
  80b858:	01000434 	movhi	r4,16
  80b85c:	213fffc4 	addi	r4,r4,-1
  80b860:	4110703a 	and	r8,r8,r4
  80b864:	003fa806 	br	80b708 <__alt_data_end+0xff80b708>
  80b868:	8089c83a 	sub	r4,r16,r2
  80b86c:	01005e0e 	bge	zero,r4,80b9e8 <__adddf3+0x3bc>
  80b870:	10002b26 	beq	r2,zero,80b920 <__adddf3+0x2f4>
  80b874:	0081ffc4 	movi	r2,2047
  80b878:	80bf8b26 	beq	r16,r2,80b6a8 <__alt_data_end+0xff80b6a8>
  80b87c:	4a402034 	orhi	r9,r9,128
  80b880:	00800e04 	movi	r2,56
  80b884:	1100a40e 	bge	r2,r4,80bb18 <__adddf3+0x4ec>
  80b888:	498cb03a 	or	r6,r9,r6
  80b88c:	300ac03a 	cmpne	r5,r6,zero
  80b890:	0013883a 	mov	r9,zero
  80b894:	2c4b883a 	add	r5,r5,r17
  80b898:	2c63803a 	cmpltu	r17,r5,r17
  80b89c:	4a11883a 	add	r8,r9,r8
  80b8a0:	8a11883a 	add	r8,r17,r8
  80b8a4:	2823883a 	mov	r17,r5
  80b8a8:	4080202c 	andhi	r2,r8,128
  80b8ac:	103fe026 	beq	r2,zero,80b830 <__alt_data_end+0xff80b830>
  80b8b0:	84000044 	addi	r16,r16,1
  80b8b4:	0081ffc4 	movi	r2,2047
  80b8b8:	8080d226 	beq	r16,r2,80bc04 <__adddf3+0x5d8>
  80b8bc:	00bfe034 	movhi	r2,65408
  80b8c0:	10bfffc4 	addi	r2,r2,-1
  80b8c4:	4090703a 	and	r8,r8,r2
  80b8c8:	880ad07a 	srli	r5,r17,1
  80b8cc:	400897fa 	slli	r4,r8,31
  80b8d0:	88c0004c 	andi	r3,r17,1
  80b8d4:	28e2b03a 	or	r17,r5,r3
  80b8d8:	4010d07a 	srli	r8,r8,1
  80b8dc:	2462b03a 	or	r17,r4,r17
  80b8e0:	003f7106 	br	80b6a8 <__alt_data_end+0xff80b6a8>
  80b8e4:	4088b03a 	or	r4,r8,r2
  80b8e8:	20014526 	beq	r4,zero,80be00 <__adddf3+0x7d4>
  80b8ec:	01000434 	movhi	r4,16
  80b8f0:	42000234 	orhi	r8,r8,8
  80b8f4:	213fffc4 	addi	r4,r4,-1
  80b8f8:	4110703a 	and	r8,r8,r4
  80b8fc:	003f8206 	br	80b708 <__alt_data_end+0xff80b708>
  80b900:	18ffffc4 	addi	r3,r3,-1
  80b904:	1800491e 	bne	r3,zero,80ba2c <__adddf3+0x400>
  80b908:	898bc83a 	sub	r5,r17,r6
  80b90c:	8963803a 	cmpltu	r17,r17,r5
  80b910:	4251c83a 	sub	r8,r8,r9
  80b914:	4451c83a 	sub	r8,r8,r17
  80b918:	2823883a 	mov	r17,r5
  80b91c:	003f9f06 	br	80b79c <__alt_data_end+0xff80b79c>
  80b920:	4984b03a 	or	r2,r9,r6
  80b924:	103f6026 	beq	r2,zero,80b6a8 <__alt_data_end+0xff80b6a8>
  80b928:	213fffc4 	addi	r4,r4,-1
  80b92c:	2000931e 	bne	r4,zero,80bb7c <__adddf3+0x550>
  80b930:	898d883a 	add	r6,r17,r6
  80b934:	3463803a 	cmpltu	r17,r6,r17
  80b938:	4251883a 	add	r8,r8,r9
  80b93c:	8a11883a 	add	r8,r17,r8
  80b940:	3023883a 	mov	r17,r6
  80b944:	003fd806 	br	80b8a8 <__alt_data_end+0xff80b8a8>
  80b948:	1800541e 	bne	r3,zero,80ba9c <__adddf3+0x470>
  80b94c:	80800044 	addi	r2,r16,1
  80b950:	1081ffcc 	andi	r2,r2,2047
  80b954:	00c00044 	movi	r3,1
  80b958:	1880a00e 	bge	r3,r2,80bbdc <__adddf3+0x5b0>
  80b95c:	8989c83a 	sub	r4,r17,r6
  80b960:	8905803a 	cmpltu	r2,r17,r4
  80b964:	4267c83a 	sub	r19,r8,r9
  80b968:	98a7c83a 	sub	r19,r19,r2
  80b96c:	9880202c 	andhi	r2,r19,128
  80b970:	10006326 	beq	r2,zero,80bb00 <__adddf3+0x4d4>
  80b974:	3463c83a 	sub	r17,r6,r17
  80b978:	4a07c83a 	sub	r3,r9,r8
  80b97c:	344d803a 	cmpltu	r6,r6,r17
  80b980:	19a7c83a 	sub	r19,r3,r6
  80b984:	3825883a 	mov	r18,r7
  80b988:	983f8a1e 	bne	r19,zero,80b7b4 <__alt_data_end+0xff80b7b4>
  80b98c:	8809883a 	mov	r4,r17
  80b990:	08010280 	call	801028 <__clzsi2>
  80b994:	10800804 	addi	r2,r2,32
  80b998:	10fffe04 	addi	r3,r2,-8
  80b99c:	010007c4 	movi	r4,31
  80b9a0:	20ff890e 	bge	r4,r3,80b7c8 <__alt_data_end+0xff80b7c8>
  80b9a4:	10bff604 	addi	r2,r2,-40
  80b9a8:	8884983a 	sll	r2,r17,r2
  80b9ac:	0023883a 	mov	r17,zero
  80b9b0:	1c3f8c0e 	bge	r3,r16,80b7e4 <__alt_data_end+0xff80b7e4>
  80b9b4:	023fe034 	movhi	r8,65408
  80b9b8:	423fffc4 	addi	r8,r8,-1
  80b9bc:	80e1c83a 	sub	r16,r16,r3
  80b9c0:	1210703a 	and	r8,r2,r8
  80b9c4:	003f3806 	br	80b6a8 <__alt_data_end+0xff80b6a8>
  80b9c8:	9007883a 	mov	r3,r18
  80b9cc:	0011883a 	mov	r8,zero
  80b9d0:	0005883a 	mov	r2,zero
  80b9d4:	003f4c06 	br	80b708 <__alt_data_end+0xff80b708>
  80b9d8:	498cb03a 	or	r6,r9,r6
  80b9dc:	300cc03a 	cmpne	r6,r6,zero
  80b9e0:	0007883a 	mov	r3,zero
  80b9e4:	003f6806 	br	80b788 <__alt_data_end+0xff80b788>
  80b9e8:	20009c1e 	bne	r4,zero,80bc5c <__adddf3+0x630>
  80b9ec:	80800044 	addi	r2,r16,1
  80b9f0:	1141ffcc 	andi	r5,r2,2047
  80b9f4:	01000044 	movi	r4,1
  80b9f8:	2140670e 	bge	r4,r5,80bb98 <__adddf3+0x56c>
  80b9fc:	0101ffc4 	movi	r4,2047
  80ba00:	11007f26 	beq	r2,r4,80bc00 <__adddf3+0x5d4>
  80ba04:	898d883a 	add	r6,r17,r6
  80ba08:	4247883a 	add	r3,r8,r9
  80ba0c:	3451803a 	cmpltu	r8,r6,r17
  80ba10:	40d1883a 	add	r8,r8,r3
  80ba14:	402297fa 	slli	r17,r8,31
  80ba18:	300cd07a 	srli	r6,r6,1
  80ba1c:	4010d07a 	srli	r8,r8,1
  80ba20:	1021883a 	mov	r16,r2
  80ba24:	89a2b03a 	or	r17,r17,r6
  80ba28:	003f1f06 	br	80b6a8 <__alt_data_end+0xff80b6a8>
  80ba2c:	0081ffc4 	movi	r2,2047
  80ba30:	80bf481e 	bne	r16,r2,80b754 <__alt_data_end+0xff80b754>
  80ba34:	003f1c06 	br	80b6a8 <__alt_data_end+0xff80b6a8>
  80ba38:	843ff844 	addi	r16,r16,-31
  80ba3c:	01000804 	movi	r4,32
  80ba40:	1406d83a 	srl	r3,r2,r16
  80ba44:	41005026 	beq	r8,r4,80bb88 <__adddf3+0x55c>
  80ba48:	01001004 	movi	r4,64
  80ba4c:	2211c83a 	sub	r8,r4,r8
  80ba50:	1204983a 	sll	r2,r2,r8
  80ba54:	88a2b03a 	or	r17,r17,r2
  80ba58:	8822c03a 	cmpne	r17,r17,zero
  80ba5c:	1c62b03a 	or	r17,r3,r17
  80ba60:	0011883a 	mov	r8,zero
  80ba64:	0021883a 	mov	r16,zero
  80ba68:	003f7106 	br	80b830 <__alt_data_end+0xff80b830>
  80ba6c:	193ff804 	addi	r4,r3,-32
  80ba70:	00800804 	movi	r2,32
  80ba74:	4908d83a 	srl	r4,r9,r4
  80ba78:	18804526 	beq	r3,r2,80bb90 <__adddf3+0x564>
  80ba7c:	00801004 	movi	r2,64
  80ba80:	10c5c83a 	sub	r2,r2,r3
  80ba84:	4886983a 	sll	r3,r9,r2
  80ba88:	198cb03a 	or	r6,r3,r6
  80ba8c:	300cc03a 	cmpne	r6,r6,zero
  80ba90:	218cb03a 	or	r6,r4,r6
  80ba94:	0007883a 	mov	r3,zero
  80ba98:	003f3b06 	br	80b788 <__alt_data_end+0xff80b788>
  80ba9c:	80002a26 	beq	r16,zero,80bb48 <__adddf3+0x51c>
  80baa0:	0101ffc4 	movi	r4,2047
  80baa4:	11006826 	beq	r2,r4,80bc48 <__adddf3+0x61c>
  80baa8:	00c7c83a 	sub	r3,zero,r3
  80baac:	42002034 	orhi	r8,r8,128
  80bab0:	01000e04 	movi	r4,56
  80bab4:	20c07c16 	blt	r4,r3,80bca8 <__adddf3+0x67c>
  80bab8:	010007c4 	movi	r4,31
  80babc:	20c0da16 	blt	r4,r3,80be28 <__adddf3+0x7fc>
  80bac0:	01000804 	movi	r4,32
  80bac4:	20c9c83a 	sub	r4,r4,r3
  80bac8:	4114983a 	sll	r10,r8,r4
  80bacc:	88cad83a 	srl	r5,r17,r3
  80bad0:	8908983a 	sll	r4,r17,r4
  80bad4:	40c6d83a 	srl	r3,r8,r3
  80bad8:	5162b03a 	or	r17,r10,r5
  80badc:	2008c03a 	cmpne	r4,r4,zero
  80bae0:	8922b03a 	or	r17,r17,r4
  80bae4:	3463c83a 	sub	r17,r6,r17
  80bae8:	48c7c83a 	sub	r3,r9,r3
  80baec:	344d803a 	cmpltu	r6,r6,r17
  80baf0:	1991c83a 	sub	r8,r3,r6
  80baf4:	1021883a 	mov	r16,r2
  80baf8:	3825883a 	mov	r18,r7
  80bafc:	003f2706 	br	80b79c <__alt_data_end+0xff80b79c>
  80bb00:	24d0b03a 	or	r8,r4,r19
  80bb04:	40001b1e 	bne	r8,zero,80bb74 <__adddf3+0x548>
  80bb08:	0005883a 	mov	r2,zero
  80bb0c:	0007883a 	mov	r3,zero
  80bb10:	0021883a 	mov	r16,zero
  80bb14:	003f4d06 	br	80b84c <__alt_data_end+0xff80b84c>
  80bb18:	008007c4 	movi	r2,31
  80bb1c:	11003c16 	blt	r2,r4,80bc10 <__adddf3+0x5e4>
  80bb20:	00800804 	movi	r2,32
  80bb24:	1105c83a 	sub	r2,r2,r4
  80bb28:	488e983a 	sll	r7,r9,r2
  80bb2c:	310ad83a 	srl	r5,r6,r4
  80bb30:	3084983a 	sll	r2,r6,r2
  80bb34:	4912d83a 	srl	r9,r9,r4
  80bb38:	394ab03a 	or	r5,r7,r5
  80bb3c:	1004c03a 	cmpne	r2,r2,zero
  80bb40:	288ab03a 	or	r5,r5,r2
  80bb44:	003f5306 	br	80b894 <__alt_data_end+0xff80b894>
  80bb48:	4448b03a 	or	r4,r8,r17
  80bb4c:	20003e26 	beq	r4,zero,80bc48 <__adddf3+0x61c>
  80bb50:	00c6303a 	nor	r3,zero,r3
  80bb54:	18003a1e 	bne	r3,zero,80bc40 <__adddf3+0x614>
  80bb58:	3463c83a 	sub	r17,r6,r17
  80bb5c:	4a07c83a 	sub	r3,r9,r8
  80bb60:	344d803a 	cmpltu	r6,r6,r17
  80bb64:	1991c83a 	sub	r8,r3,r6
  80bb68:	1021883a 	mov	r16,r2
  80bb6c:	3825883a 	mov	r18,r7
  80bb70:	003f0a06 	br	80b79c <__alt_data_end+0xff80b79c>
  80bb74:	2023883a 	mov	r17,r4
  80bb78:	003f0d06 	br	80b7b0 <__alt_data_end+0xff80b7b0>
  80bb7c:	0081ffc4 	movi	r2,2047
  80bb80:	80bf3f1e 	bne	r16,r2,80b880 <__alt_data_end+0xff80b880>
  80bb84:	003ec806 	br	80b6a8 <__alt_data_end+0xff80b6a8>
  80bb88:	0005883a 	mov	r2,zero
  80bb8c:	003fb106 	br	80ba54 <__alt_data_end+0xff80ba54>
  80bb90:	0007883a 	mov	r3,zero
  80bb94:	003fbc06 	br	80ba88 <__alt_data_end+0xff80ba88>
  80bb98:	4444b03a 	or	r2,r8,r17
  80bb9c:	8000871e 	bne	r16,zero,80bdbc <__adddf3+0x790>
  80bba0:	1000ba26 	beq	r2,zero,80be8c <__adddf3+0x860>
  80bba4:	4984b03a 	or	r2,r9,r6
  80bba8:	103ebf26 	beq	r2,zero,80b6a8 <__alt_data_end+0xff80b6a8>
  80bbac:	8985883a 	add	r2,r17,r6
  80bbb0:	4247883a 	add	r3,r8,r9
  80bbb4:	1451803a 	cmpltu	r8,r2,r17
  80bbb8:	40d1883a 	add	r8,r8,r3
  80bbbc:	40c0202c 	andhi	r3,r8,128
  80bbc0:	1023883a 	mov	r17,r2
  80bbc4:	183f1a26 	beq	r3,zero,80b830 <__alt_data_end+0xff80b830>
  80bbc8:	00bfe034 	movhi	r2,65408
  80bbcc:	10bfffc4 	addi	r2,r2,-1
  80bbd0:	2021883a 	mov	r16,r4
  80bbd4:	4090703a 	and	r8,r8,r2
  80bbd8:	003eb306 	br	80b6a8 <__alt_data_end+0xff80b6a8>
  80bbdc:	4444b03a 	or	r2,r8,r17
  80bbe0:	8000291e 	bne	r16,zero,80bc88 <__adddf3+0x65c>
  80bbe4:	10004b1e 	bne	r2,zero,80bd14 <__adddf3+0x6e8>
  80bbe8:	4990b03a 	or	r8,r9,r6
  80bbec:	40008b26 	beq	r8,zero,80be1c <__adddf3+0x7f0>
  80bbf0:	4811883a 	mov	r8,r9
  80bbf4:	3023883a 	mov	r17,r6
  80bbf8:	3825883a 	mov	r18,r7
  80bbfc:	003eaa06 	br	80b6a8 <__alt_data_end+0xff80b6a8>
  80bc00:	1021883a 	mov	r16,r2
  80bc04:	0011883a 	mov	r8,zero
  80bc08:	0005883a 	mov	r2,zero
  80bc0c:	003f0f06 	br	80b84c <__alt_data_end+0xff80b84c>
  80bc10:	217ff804 	addi	r5,r4,-32
  80bc14:	00800804 	movi	r2,32
  80bc18:	494ad83a 	srl	r5,r9,r5
  80bc1c:	20807d26 	beq	r4,r2,80be14 <__adddf3+0x7e8>
  80bc20:	00801004 	movi	r2,64
  80bc24:	1109c83a 	sub	r4,r2,r4
  80bc28:	4912983a 	sll	r9,r9,r4
  80bc2c:	498cb03a 	or	r6,r9,r6
  80bc30:	300cc03a 	cmpne	r6,r6,zero
  80bc34:	298ab03a 	or	r5,r5,r6
  80bc38:	0013883a 	mov	r9,zero
  80bc3c:	003f1506 	br	80b894 <__alt_data_end+0xff80b894>
  80bc40:	0101ffc4 	movi	r4,2047
  80bc44:	113f9a1e 	bne	r2,r4,80bab0 <__alt_data_end+0xff80bab0>
  80bc48:	4811883a 	mov	r8,r9
  80bc4c:	3023883a 	mov	r17,r6
  80bc50:	1021883a 	mov	r16,r2
  80bc54:	3825883a 	mov	r18,r7
  80bc58:	003e9306 	br	80b6a8 <__alt_data_end+0xff80b6a8>
  80bc5c:	8000161e 	bne	r16,zero,80bcb8 <__adddf3+0x68c>
  80bc60:	444ab03a 	or	r5,r8,r17
  80bc64:	28005126 	beq	r5,zero,80bdac <__adddf3+0x780>
  80bc68:	0108303a 	nor	r4,zero,r4
  80bc6c:	20004d1e 	bne	r4,zero,80bda4 <__adddf3+0x778>
  80bc70:	89a3883a 	add	r17,r17,r6
  80bc74:	4253883a 	add	r9,r8,r9
  80bc78:	898d803a 	cmpltu	r6,r17,r6
  80bc7c:	3251883a 	add	r8,r6,r9
  80bc80:	1021883a 	mov	r16,r2
  80bc84:	003f0806 	br	80b8a8 <__alt_data_end+0xff80b8a8>
  80bc88:	1000301e 	bne	r2,zero,80bd4c <__adddf3+0x720>
  80bc8c:	4984b03a 	or	r2,r9,r6
  80bc90:	10007126 	beq	r2,zero,80be58 <__adddf3+0x82c>
  80bc94:	4811883a 	mov	r8,r9
  80bc98:	3023883a 	mov	r17,r6
  80bc9c:	3825883a 	mov	r18,r7
  80bca0:	0401ffc4 	movi	r16,2047
  80bca4:	003e8006 	br	80b6a8 <__alt_data_end+0xff80b6a8>
  80bca8:	4462b03a 	or	r17,r8,r17
  80bcac:	8822c03a 	cmpne	r17,r17,zero
  80bcb0:	0007883a 	mov	r3,zero
  80bcb4:	003f8b06 	br	80bae4 <__alt_data_end+0xff80bae4>
  80bcb8:	0141ffc4 	movi	r5,2047
  80bcbc:	11403b26 	beq	r2,r5,80bdac <__adddf3+0x780>
  80bcc0:	0109c83a 	sub	r4,zero,r4
  80bcc4:	42002034 	orhi	r8,r8,128
  80bcc8:	01400e04 	movi	r5,56
  80bccc:	29006716 	blt	r5,r4,80be6c <__adddf3+0x840>
  80bcd0:	014007c4 	movi	r5,31
  80bcd4:	29007016 	blt	r5,r4,80be98 <__adddf3+0x86c>
  80bcd8:	01400804 	movi	r5,32
  80bcdc:	290bc83a 	sub	r5,r5,r4
  80bce0:	4154983a 	sll	r10,r8,r5
  80bce4:	890ed83a 	srl	r7,r17,r4
  80bce8:	894a983a 	sll	r5,r17,r5
  80bcec:	4108d83a 	srl	r4,r8,r4
  80bcf0:	51e2b03a 	or	r17,r10,r7
  80bcf4:	280ac03a 	cmpne	r5,r5,zero
  80bcf8:	8962b03a 	or	r17,r17,r5
  80bcfc:	89a3883a 	add	r17,r17,r6
  80bd00:	2253883a 	add	r9,r4,r9
  80bd04:	898d803a 	cmpltu	r6,r17,r6
  80bd08:	3251883a 	add	r8,r6,r9
  80bd0c:	1021883a 	mov	r16,r2
  80bd10:	003ee506 	br	80b8a8 <__alt_data_end+0xff80b8a8>
  80bd14:	4984b03a 	or	r2,r9,r6
  80bd18:	103e6326 	beq	r2,zero,80b6a8 <__alt_data_end+0xff80b6a8>
  80bd1c:	8987c83a 	sub	r3,r17,r6
  80bd20:	88c9803a 	cmpltu	r4,r17,r3
  80bd24:	4245c83a 	sub	r2,r8,r9
  80bd28:	1105c83a 	sub	r2,r2,r4
  80bd2c:	1100202c 	andhi	r4,r2,128
  80bd30:	203ebb26 	beq	r4,zero,80b820 <__alt_data_end+0xff80b820>
  80bd34:	3463c83a 	sub	r17,r6,r17
  80bd38:	4a07c83a 	sub	r3,r9,r8
  80bd3c:	344d803a 	cmpltu	r6,r6,r17
  80bd40:	1991c83a 	sub	r8,r3,r6
  80bd44:	3825883a 	mov	r18,r7
  80bd48:	003e5706 	br	80b6a8 <__alt_data_end+0xff80b6a8>
  80bd4c:	4984b03a 	or	r2,r9,r6
  80bd50:	10002e26 	beq	r2,zero,80be0c <__adddf3+0x7e0>
  80bd54:	4004d0fa 	srli	r2,r8,3
  80bd58:	8822d0fa 	srli	r17,r17,3
  80bd5c:	4010977a 	slli	r8,r8,29
  80bd60:	10c0022c 	andhi	r3,r2,8
  80bd64:	4462b03a 	or	r17,r8,r17
  80bd68:	18000826 	beq	r3,zero,80bd8c <__adddf3+0x760>
  80bd6c:	4808d0fa 	srli	r4,r9,3
  80bd70:	20c0022c 	andhi	r3,r4,8
  80bd74:	1800051e 	bne	r3,zero,80bd8c <__adddf3+0x760>
  80bd78:	300cd0fa 	srli	r6,r6,3
  80bd7c:	4806977a 	slli	r3,r9,29
  80bd80:	2005883a 	mov	r2,r4
  80bd84:	3825883a 	mov	r18,r7
  80bd88:	19a2b03a 	or	r17,r3,r6
  80bd8c:	8810d77a 	srli	r8,r17,29
  80bd90:	100490fa 	slli	r2,r2,3
  80bd94:	882290fa 	slli	r17,r17,3
  80bd98:	0401ffc4 	movi	r16,2047
  80bd9c:	4090b03a 	or	r8,r8,r2
  80bda0:	003e4106 	br	80b6a8 <__alt_data_end+0xff80b6a8>
  80bda4:	0141ffc4 	movi	r5,2047
  80bda8:	117fc71e 	bne	r2,r5,80bcc8 <__alt_data_end+0xff80bcc8>
  80bdac:	4811883a 	mov	r8,r9
  80bdb0:	3023883a 	mov	r17,r6
  80bdb4:	1021883a 	mov	r16,r2
  80bdb8:	003e3b06 	br	80b6a8 <__alt_data_end+0xff80b6a8>
  80bdbc:	10002f26 	beq	r2,zero,80be7c <__adddf3+0x850>
  80bdc0:	4984b03a 	or	r2,r9,r6
  80bdc4:	10001126 	beq	r2,zero,80be0c <__adddf3+0x7e0>
  80bdc8:	4004d0fa 	srli	r2,r8,3
  80bdcc:	8822d0fa 	srli	r17,r17,3
  80bdd0:	4010977a 	slli	r8,r8,29
  80bdd4:	10c0022c 	andhi	r3,r2,8
  80bdd8:	4462b03a 	or	r17,r8,r17
  80bddc:	183feb26 	beq	r3,zero,80bd8c <__alt_data_end+0xff80bd8c>
  80bde0:	4808d0fa 	srli	r4,r9,3
  80bde4:	20c0022c 	andhi	r3,r4,8
  80bde8:	183fe81e 	bne	r3,zero,80bd8c <__alt_data_end+0xff80bd8c>
  80bdec:	300cd0fa 	srli	r6,r6,3
  80bdf0:	4806977a 	slli	r3,r9,29
  80bdf4:	2005883a 	mov	r2,r4
  80bdf8:	19a2b03a 	or	r17,r3,r6
  80bdfc:	003fe306 	br	80bd8c <__alt_data_end+0xff80bd8c>
  80be00:	0011883a 	mov	r8,zero
  80be04:	0005883a 	mov	r2,zero
  80be08:	003e3f06 	br	80b708 <__alt_data_end+0xff80b708>
  80be0c:	0401ffc4 	movi	r16,2047
  80be10:	003e2506 	br	80b6a8 <__alt_data_end+0xff80b6a8>
  80be14:	0013883a 	mov	r9,zero
  80be18:	003f8406 	br	80bc2c <__alt_data_end+0xff80bc2c>
  80be1c:	0005883a 	mov	r2,zero
  80be20:	0007883a 	mov	r3,zero
  80be24:	003e8906 	br	80b84c <__alt_data_end+0xff80b84c>
  80be28:	197ff804 	addi	r5,r3,-32
  80be2c:	01000804 	movi	r4,32
  80be30:	414ad83a 	srl	r5,r8,r5
  80be34:	19002426 	beq	r3,r4,80bec8 <__adddf3+0x89c>
  80be38:	01001004 	movi	r4,64
  80be3c:	20c7c83a 	sub	r3,r4,r3
  80be40:	40c6983a 	sll	r3,r8,r3
  80be44:	1c46b03a 	or	r3,r3,r17
  80be48:	1806c03a 	cmpne	r3,r3,zero
  80be4c:	28e2b03a 	or	r17,r5,r3
  80be50:	0007883a 	mov	r3,zero
  80be54:	003f2306 	br	80bae4 <__alt_data_end+0xff80bae4>
  80be58:	0007883a 	mov	r3,zero
  80be5c:	5811883a 	mov	r8,r11
  80be60:	00bfffc4 	movi	r2,-1
  80be64:	0401ffc4 	movi	r16,2047
  80be68:	003e7806 	br	80b84c <__alt_data_end+0xff80b84c>
  80be6c:	4462b03a 	or	r17,r8,r17
  80be70:	8822c03a 	cmpne	r17,r17,zero
  80be74:	0009883a 	mov	r4,zero
  80be78:	003fa006 	br	80bcfc <__alt_data_end+0xff80bcfc>
  80be7c:	4811883a 	mov	r8,r9
  80be80:	3023883a 	mov	r17,r6
  80be84:	0401ffc4 	movi	r16,2047
  80be88:	003e0706 	br	80b6a8 <__alt_data_end+0xff80b6a8>
  80be8c:	4811883a 	mov	r8,r9
  80be90:	3023883a 	mov	r17,r6
  80be94:	003e0406 	br	80b6a8 <__alt_data_end+0xff80b6a8>
  80be98:	21fff804 	addi	r7,r4,-32
  80be9c:	01400804 	movi	r5,32
  80bea0:	41ced83a 	srl	r7,r8,r7
  80bea4:	21400a26 	beq	r4,r5,80bed0 <__adddf3+0x8a4>
  80bea8:	01401004 	movi	r5,64
  80beac:	2909c83a 	sub	r4,r5,r4
  80beb0:	4108983a 	sll	r4,r8,r4
  80beb4:	2448b03a 	or	r4,r4,r17
  80beb8:	2008c03a 	cmpne	r4,r4,zero
  80bebc:	3922b03a 	or	r17,r7,r4
  80bec0:	0009883a 	mov	r4,zero
  80bec4:	003f8d06 	br	80bcfc <__alt_data_end+0xff80bcfc>
  80bec8:	0007883a 	mov	r3,zero
  80becc:	003fdd06 	br	80be44 <__alt_data_end+0xff80be44>
  80bed0:	0009883a 	mov	r4,zero
  80bed4:	003ff706 	br	80beb4 <__alt_data_end+0xff80beb4>

0080bed8 <__divdf3>:
  80bed8:	defff004 	addi	sp,sp,-64
  80bedc:	dc800815 	stw	r18,32(sp)
  80bee0:	2824d53a 	srli	r18,r5,20
  80bee4:	dd800c15 	stw	r22,48(sp)
  80bee8:	282cd7fa 	srli	r22,r5,31
  80beec:	dc000615 	stw	r16,24(sp)
  80bef0:	04000434 	movhi	r16,16
  80bef4:	843fffc4 	addi	r16,r16,-1
  80bef8:	dfc00f15 	stw	ra,60(sp)
  80befc:	df000e15 	stw	fp,56(sp)
  80bf00:	ddc00d15 	stw	r23,52(sp)
  80bf04:	dd400b15 	stw	r21,44(sp)
  80bf08:	dd000a15 	stw	r20,40(sp)
  80bf0c:	dcc00915 	stw	r19,36(sp)
  80bf10:	dc400715 	stw	r17,28(sp)
  80bf14:	9481ffcc 	andi	r18,r18,2047
  80bf18:	2c20703a 	and	r16,r5,r16
  80bf1c:	b2003fcc 	andi	r8,r22,255
  80bf20:	90006126 	beq	r18,zero,80c0a8 <__divdf3+0x1d0>
  80bf24:	0081ffc4 	movi	r2,2047
  80bf28:	202b883a 	mov	r21,r4
  80bf2c:	90803726 	beq	r18,r2,80c00c <__divdf3+0x134>
  80bf30:	80800434 	orhi	r2,r16,16
  80bf34:	100490fa 	slli	r2,r2,3
  80bf38:	2020d77a 	srli	r16,r4,29
  80bf3c:	202a90fa 	slli	r21,r4,3
  80bf40:	94bf0044 	addi	r18,r18,-1023
  80bf44:	80a0b03a 	or	r16,r16,r2
  80bf48:	0013883a 	mov	r9,zero
  80bf4c:	000b883a 	mov	r5,zero
  80bf50:	3806d53a 	srli	r3,r7,20
  80bf54:	382ed7fa 	srli	r23,r7,31
  80bf58:	04400434 	movhi	r17,16
  80bf5c:	8c7fffc4 	addi	r17,r17,-1
  80bf60:	18c1ffcc 	andi	r3,r3,2047
  80bf64:	3029883a 	mov	r20,r6
  80bf68:	3c62703a 	and	r17,r7,r17
  80bf6c:	bf003fcc 	andi	fp,r23,255
  80bf70:	18006e26 	beq	r3,zero,80c12c <__divdf3+0x254>
  80bf74:	0081ffc4 	movi	r2,2047
  80bf78:	18806626 	beq	r3,r2,80c114 <__divdf3+0x23c>
  80bf7c:	88800434 	orhi	r2,r17,16
  80bf80:	100490fa 	slli	r2,r2,3
  80bf84:	3022d77a 	srli	r17,r6,29
  80bf88:	302890fa 	slli	r20,r6,3
  80bf8c:	18ff0044 	addi	r3,r3,-1023
  80bf90:	88a2b03a 	or	r17,r17,r2
  80bf94:	000f883a 	mov	r7,zero
  80bf98:	b5e6f03a 	xor	r19,r22,r23
  80bf9c:	3a4cb03a 	or	r6,r7,r9
  80bfa0:	008003c4 	movi	r2,15
  80bfa4:	9809883a 	mov	r4,r19
  80bfa8:	90c7c83a 	sub	r3,r18,r3
  80bfac:	9cc03fcc 	andi	r19,r19,255
  80bfb0:	11809636 	bltu	r2,r6,80c20c <__divdf3+0x334>
  80bfb4:	300c90ba 	slli	r6,r6,2
  80bfb8:	00802074 	movhi	r2,129
  80bfbc:	10aff304 	addi	r2,r2,-16436
  80bfc0:	308d883a 	add	r6,r6,r2
  80bfc4:	30800017 	ldw	r2,0(r6)
  80bfc8:	1000683a 	jmp	r2
  80bfcc:	0080c20c 	andi	r2,zero,776
  80bfd0:	0080c044 	movi	r2,769
  80bfd4:	0080c1fc 	xorhi	r2,zero,775
  80bfd8:	0080c038 	rdprs	r2,zero,768
  80bfdc:	0080c1fc 	xorhi	r2,zero,775
  80bfe0:	0080c1d0 	cmplti	r2,zero,775
  80bfe4:	0080c1fc 	xorhi	r2,zero,775
  80bfe8:	0080c038 	rdprs	r2,zero,768
  80bfec:	0080c044 	movi	r2,769
  80bff0:	0080c044 	movi	r2,769
  80bff4:	0080c1d0 	cmplti	r2,zero,775
  80bff8:	0080c038 	rdprs	r2,zero,768
  80bffc:	0080c028 	cmpgeui	r2,zero,768
  80c000:	0080c028 	cmpgeui	r2,zero,768
  80c004:	0080c028 	cmpgeui	r2,zero,768
  80c008:	0080c594 	movui	r2,790
  80c00c:	2404b03a 	or	r2,r4,r16
  80c010:	10006c1e 	bne	r2,zero,80c1c4 <__divdf3+0x2ec>
  80c014:	02400204 	movi	r9,8
  80c018:	0021883a 	mov	r16,zero
  80c01c:	002b883a 	mov	r21,zero
  80c020:	01400084 	movi	r5,2
  80c024:	003fca06 	br	80bf50 <__alt_data_end+0xff80bf50>
  80c028:	8023883a 	mov	r17,r16
  80c02c:	a829883a 	mov	r20,r21
  80c030:	4039883a 	mov	fp,r8
  80c034:	280f883a 	mov	r7,r5
  80c038:	00800084 	movi	r2,2
  80c03c:	3881601e 	bne	r7,r2,80c5c0 <__divdf3+0x6e8>
  80c040:	e027883a 	mov	r19,fp
  80c044:	9900004c 	andi	r4,r19,1
  80c048:	0081ffc4 	movi	r2,2047
  80c04c:	0021883a 	mov	r16,zero
  80c050:	002b883a 	mov	r21,zero
  80c054:	1004953a 	slli	r2,r2,20
  80c058:	20c03fcc 	andi	r3,r4,255
  80c05c:	01400434 	movhi	r5,16
  80c060:	297fffc4 	addi	r5,r5,-1
  80c064:	180697fa 	slli	r3,r3,31
  80c068:	8160703a 	and	r16,r16,r5
  80c06c:	80a0b03a 	or	r16,r16,r2
  80c070:	80c6b03a 	or	r3,r16,r3
  80c074:	a805883a 	mov	r2,r21
  80c078:	dfc00f17 	ldw	ra,60(sp)
  80c07c:	df000e17 	ldw	fp,56(sp)
  80c080:	ddc00d17 	ldw	r23,52(sp)
  80c084:	dd800c17 	ldw	r22,48(sp)
  80c088:	dd400b17 	ldw	r21,44(sp)
  80c08c:	dd000a17 	ldw	r20,40(sp)
  80c090:	dcc00917 	ldw	r19,36(sp)
  80c094:	dc800817 	ldw	r18,32(sp)
  80c098:	dc400717 	ldw	r17,28(sp)
  80c09c:	dc000617 	ldw	r16,24(sp)
  80c0a0:	dec01004 	addi	sp,sp,64
  80c0a4:	f800283a 	ret
  80c0a8:	2404b03a 	or	r2,r4,r16
  80c0ac:	2023883a 	mov	r17,r4
  80c0b0:	10003f26 	beq	r2,zero,80c1b0 <__divdf3+0x2d8>
  80c0b4:	80015e26 	beq	r16,zero,80c630 <__divdf3+0x758>
  80c0b8:	8009883a 	mov	r4,r16
  80c0bc:	d9800215 	stw	r6,8(sp)
  80c0c0:	d9c00515 	stw	r7,20(sp)
  80c0c4:	da000415 	stw	r8,16(sp)
  80c0c8:	08010280 	call	801028 <__clzsi2>
  80c0cc:	d9800217 	ldw	r6,8(sp)
  80c0d0:	d9c00517 	ldw	r7,20(sp)
  80c0d4:	da000417 	ldw	r8,16(sp)
  80c0d8:	113ffd44 	addi	r4,r2,-11
  80c0dc:	00c00704 	movi	r3,28
  80c0e0:	19014f16 	blt	r3,r4,80c620 <__divdf3+0x748>
  80c0e4:	00c00744 	movi	r3,29
  80c0e8:	157ffe04 	addi	r21,r2,-8
  80c0ec:	1907c83a 	sub	r3,r3,r4
  80c0f0:	8560983a 	sll	r16,r16,r21
  80c0f4:	88c6d83a 	srl	r3,r17,r3
  80c0f8:	8d6a983a 	sll	r21,r17,r21
  80c0fc:	1c20b03a 	or	r16,r3,r16
  80c100:	1080fcc4 	addi	r2,r2,1011
  80c104:	00a5c83a 	sub	r18,zero,r2
  80c108:	0013883a 	mov	r9,zero
  80c10c:	000b883a 	mov	r5,zero
  80c110:	003f8f06 	br	80bf50 <__alt_data_end+0xff80bf50>
  80c114:	3444b03a 	or	r2,r6,r17
  80c118:	1000231e 	bne	r2,zero,80c1a8 <__divdf3+0x2d0>
  80c11c:	0023883a 	mov	r17,zero
  80c120:	0029883a 	mov	r20,zero
  80c124:	01c00084 	movi	r7,2
  80c128:	003f9b06 	br	80bf98 <__alt_data_end+0xff80bf98>
  80c12c:	3444b03a 	or	r2,r6,r17
  80c130:	10001926 	beq	r2,zero,80c198 <__divdf3+0x2c0>
  80c134:	88014b26 	beq	r17,zero,80c664 <__divdf3+0x78c>
  80c138:	8809883a 	mov	r4,r17
  80c13c:	d9400115 	stw	r5,4(sp)
  80c140:	d9800215 	stw	r6,8(sp)
  80c144:	da000415 	stw	r8,16(sp)
  80c148:	da400315 	stw	r9,12(sp)
  80c14c:	08010280 	call	801028 <__clzsi2>
  80c150:	d9400117 	ldw	r5,4(sp)
  80c154:	d9800217 	ldw	r6,8(sp)
  80c158:	da000417 	ldw	r8,16(sp)
  80c15c:	da400317 	ldw	r9,12(sp)
  80c160:	113ffd44 	addi	r4,r2,-11
  80c164:	00c00704 	movi	r3,28
  80c168:	19013a16 	blt	r3,r4,80c654 <__divdf3+0x77c>
  80c16c:	00c00744 	movi	r3,29
  80c170:	153ffe04 	addi	r20,r2,-8
  80c174:	1907c83a 	sub	r3,r3,r4
  80c178:	8d22983a 	sll	r17,r17,r20
  80c17c:	30c6d83a 	srl	r3,r6,r3
  80c180:	3528983a 	sll	r20,r6,r20
  80c184:	1c62b03a 	or	r17,r3,r17
  80c188:	1080fcc4 	addi	r2,r2,1011
  80c18c:	0087c83a 	sub	r3,zero,r2
  80c190:	000f883a 	mov	r7,zero
  80c194:	003f8006 	br	80bf98 <__alt_data_end+0xff80bf98>
  80c198:	0023883a 	mov	r17,zero
  80c19c:	0029883a 	mov	r20,zero
  80c1a0:	01c00044 	movi	r7,1
  80c1a4:	003f7c06 	br	80bf98 <__alt_data_end+0xff80bf98>
  80c1a8:	01c000c4 	movi	r7,3
  80c1ac:	003f7a06 	br	80bf98 <__alt_data_end+0xff80bf98>
  80c1b0:	02400104 	movi	r9,4
  80c1b4:	0021883a 	mov	r16,zero
  80c1b8:	002b883a 	mov	r21,zero
  80c1bc:	01400044 	movi	r5,1
  80c1c0:	003f6306 	br	80bf50 <__alt_data_end+0xff80bf50>
  80c1c4:	02400304 	movi	r9,12
  80c1c8:	014000c4 	movi	r5,3
  80c1cc:	003f6006 	br	80bf50 <__alt_data_end+0xff80bf50>
  80c1d0:	04000434 	movhi	r16,16
  80c1d4:	0009883a 	mov	r4,zero
  80c1d8:	843fffc4 	addi	r16,r16,-1
  80c1dc:	057fffc4 	movi	r21,-1
  80c1e0:	0081ffc4 	movi	r2,2047
  80c1e4:	003f9b06 	br	80c054 <__alt_data_end+0xff80c054>
  80c1e8:	00c00044 	movi	r3,1
  80c1ec:	1887c83a 	sub	r3,r3,r2
  80c1f0:	01000e04 	movi	r4,56
  80c1f4:	20c1530e 	bge	r4,r3,80c744 <__divdf3+0x86c>
  80c1f8:	9900004c 	andi	r4,r19,1
  80c1fc:	0005883a 	mov	r2,zero
  80c200:	0021883a 	mov	r16,zero
  80c204:	002b883a 	mov	r21,zero
  80c208:	003f9206 	br	80c054 <__alt_data_end+0xff80c054>
  80c20c:	8c012e36 	bltu	r17,r16,80c6c8 <__divdf3+0x7f0>
  80c210:	84412c26 	beq	r16,r17,80c6c4 <__divdf3+0x7ec>
  80c214:	a82f883a 	mov	r23,r21
  80c218:	18ffffc4 	addi	r3,r3,-1
  80c21c:	002b883a 	mov	r21,zero
  80c220:	a004d63a 	srli	r2,r20,24
  80c224:	8822923a 	slli	r17,r17,8
  80c228:	a028923a 	slli	r20,r20,8
  80c22c:	8009883a 	mov	r4,r16
  80c230:	88acb03a 	or	r22,r17,r2
  80c234:	dd000015 	stw	r20,0(sp)
  80c238:	b028d43a 	srli	r20,r22,16
  80c23c:	d8c00215 	stw	r3,8(sp)
  80c240:	b4bfffcc 	andi	r18,r22,65535
  80c244:	a00b883a 	mov	r5,r20
  80c248:	080b5700 	call	80b570 <__udivsi3>
  80c24c:	100b883a 	mov	r5,r2
  80c250:	9009883a 	mov	r4,r18
  80c254:	1023883a 	mov	r17,r2
  80c258:	08005640 	call	800564 <__mulsi3>
  80c25c:	8009883a 	mov	r4,r16
  80c260:	a00b883a 	mov	r5,r20
  80c264:	1039883a 	mov	fp,r2
  80c268:	080b5d40 	call	80b5d4 <__umodsi3>
  80c26c:	1004943a 	slli	r2,r2,16
  80c270:	b808d43a 	srli	r4,r23,16
  80c274:	d8c00217 	ldw	r3,8(sp)
  80c278:	2084b03a 	or	r2,r4,r2
  80c27c:	1700062e 	bgeu	r2,fp,80c298 <__divdf3+0x3c0>
  80c280:	1585883a 	add	r2,r2,r22
  80c284:	893fffc4 	addi	r4,r17,-1
  80c288:	15811d36 	bltu	r2,r22,80c700 <__divdf3+0x828>
  80c28c:	17011c2e 	bgeu	r2,fp,80c700 <__divdf3+0x828>
  80c290:	8c7fff84 	addi	r17,r17,-2
  80c294:	1585883a 	add	r2,r2,r22
  80c298:	1739c83a 	sub	fp,r2,fp
  80c29c:	a00b883a 	mov	r5,r20
  80c2a0:	e009883a 	mov	r4,fp
  80c2a4:	d8c00215 	stw	r3,8(sp)
  80c2a8:	080b5700 	call	80b570 <__udivsi3>
  80c2ac:	100b883a 	mov	r5,r2
  80c2b0:	9009883a 	mov	r4,r18
  80c2b4:	1021883a 	mov	r16,r2
  80c2b8:	08005640 	call	800564 <__mulsi3>
  80c2bc:	a00b883a 	mov	r5,r20
  80c2c0:	e009883a 	mov	r4,fp
  80c2c4:	d8800415 	stw	r2,16(sp)
  80c2c8:	080b5d40 	call	80b5d4 <__umodsi3>
  80c2cc:	1004943a 	slli	r2,r2,16
  80c2d0:	da000417 	ldw	r8,16(sp)
  80c2d4:	bdffffcc 	andi	r23,r23,65535
  80c2d8:	b884b03a 	or	r2,r23,r2
  80c2dc:	d8c00217 	ldw	r3,8(sp)
  80c2e0:	1200062e 	bgeu	r2,r8,80c2fc <__divdf3+0x424>
  80c2e4:	1585883a 	add	r2,r2,r22
  80c2e8:	813fffc4 	addi	r4,r16,-1
  80c2ec:	15810236 	bltu	r2,r22,80c6f8 <__divdf3+0x820>
  80c2f0:	1201012e 	bgeu	r2,r8,80c6f8 <__divdf3+0x820>
  80c2f4:	843fff84 	addi	r16,r16,-2
  80c2f8:	1585883a 	add	r2,r2,r22
  80c2fc:	8822943a 	slli	r17,r17,16
  80c300:	d9800017 	ldw	r6,0(sp)
  80c304:	1211c83a 	sub	r8,r2,r8
  80c308:	8c22b03a 	or	r17,r17,r16
  80c30c:	373fffcc 	andi	fp,r6,65535
  80c310:	8abfffcc 	andi	r10,r17,65535
  80c314:	8820d43a 	srli	r16,r17,16
  80c318:	5009883a 	mov	r4,r10
  80c31c:	e00b883a 	mov	r5,fp
  80c320:	302ed43a 	srli	r23,r6,16
  80c324:	d8c00215 	stw	r3,8(sp)
  80c328:	da000415 	stw	r8,16(sp)
  80c32c:	da800115 	stw	r10,4(sp)
  80c330:	08005640 	call	800564 <__mulsi3>
  80c334:	800b883a 	mov	r5,r16
  80c338:	e009883a 	mov	r4,fp
  80c33c:	d8800515 	stw	r2,20(sp)
  80c340:	08005640 	call	800564 <__mulsi3>
  80c344:	8009883a 	mov	r4,r16
  80c348:	b80b883a 	mov	r5,r23
  80c34c:	d8800315 	stw	r2,12(sp)
  80c350:	08005640 	call	800564 <__mulsi3>
  80c354:	da800117 	ldw	r10,4(sp)
  80c358:	b80b883a 	mov	r5,r23
  80c35c:	1021883a 	mov	r16,r2
  80c360:	5009883a 	mov	r4,r10
  80c364:	08005640 	call	800564 <__mulsi3>
  80c368:	d9c00517 	ldw	r7,20(sp)
  80c36c:	da400317 	ldw	r9,12(sp)
  80c370:	d8c00217 	ldw	r3,8(sp)
  80c374:	3808d43a 	srli	r4,r7,16
  80c378:	1245883a 	add	r2,r2,r9
  80c37c:	da000417 	ldw	r8,16(sp)
  80c380:	2085883a 	add	r2,r4,r2
  80c384:	1240022e 	bgeu	r2,r9,80c390 <__divdf3+0x4b8>
  80c388:	01000074 	movhi	r4,1
  80c38c:	8121883a 	add	r16,r16,r4
  80c390:	1008d43a 	srli	r4,r2,16
  80c394:	1004943a 	slli	r2,r2,16
  80c398:	39ffffcc 	andi	r7,r7,65535
  80c39c:	2409883a 	add	r4,r4,r16
  80c3a0:	11c5883a 	add	r2,r2,r7
  80c3a4:	4100bb36 	bltu	r8,r4,80c694 <__divdf3+0x7bc>
  80c3a8:	4100d726 	beq	r8,r4,80c708 <__divdf3+0x830>
  80c3ac:	4109c83a 	sub	r4,r8,r4
  80c3b0:	a8a1c83a 	sub	r16,r21,r2
  80c3b4:	ac2b803a 	cmpltu	r21,r21,r16
  80c3b8:	256bc83a 	sub	r21,r4,r21
  80c3bc:	b540d926 	beq	r22,r21,80c724 <__divdf3+0x84c>
  80c3c0:	a00b883a 	mov	r5,r20
  80c3c4:	a809883a 	mov	r4,r21
  80c3c8:	d8c00215 	stw	r3,8(sp)
  80c3cc:	080b5700 	call	80b570 <__udivsi3>
  80c3d0:	100b883a 	mov	r5,r2
  80c3d4:	9009883a 	mov	r4,r18
  80c3d8:	d8800515 	stw	r2,20(sp)
  80c3dc:	08005640 	call	800564 <__mulsi3>
  80c3e0:	a809883a 	mov	r4,r21
  80c3e4:	a00b883a 	mov	r5,r20
  80c3e8:	d8800415 	stw	r2,16(sp)
  80c3ec:	080b5d40 	call	80b5d4 <__umodsi3>
  80c3f0:	1004943a 	slli	r2,r2,16
  80c3f4:	8008d43a 	srli	r4,r16,16
  80c3f8:	da000417 	ldw	r8,16(sp)
  80c3fc:	d8c00217 	ldw	r3,8(sp)
  80c400:	2084b03a 	or	r2,r4,r2
  80c404:	d9c00517 	ldw	r7,20(sp)
  80c408:	1200062e 	bgeu	r2,r8,80c424 <__divdf3+0x54c>
  80c40c:	1585883a 	add	r2,r2,r22
  80c410:	393fffc4 	addi	r4,r7,-1
  80c414:	1580c536 	bltu	r2,r22,80c72c <__divdf3+0x854>
  80c418:	1200c42e 	bgeu	r2,r8,80c72c <__divdf3+0x854>
  80c41c:	39ffff84 	addi	r7,r7,-2
  80c420:	1585883a 	add	r2,r2,r22
  80c424:	122bc83a 	sub	r21,r2,r8
  80c428:	a00b883a 	mov	r5,r20
  80c42c:	a809883a 	mov	r4,r21
  80c430:	d8c00215 	stw	r3,8(sp)
  80c434:	d9c00515 	stw	r7,20(sp)
  80c438:	080b5700 	call	80b570 <__udivsi3>
  80c43c:	9009883a 	mov	r4,r18
  80c440:	100b883a 	mov	r5,r2
  80c444:	d8800415 	stw	r2,16(sp)
  80c448:	08005640 	call	800564 <__mulsi3>
  80c44c:	a809883a 	mov	r4,r21
  80c450:	a00b883a 	mov	r5,r20
  80c454:	1025883a 	mov	r18,r2
  80c458:	080b5d40 	call	80b5d4 <__umodsi3>
  80c45c:	1004943a 	slli	r2,r2,16
  80c460:	813fffcc 	andi	r4,r16,65535
  80c464:	d8c00217 	ldw	r3,8(sp)
  80c468:	20a0b03a 	or	r16,r4,r2
  80c46c:	d9c00517 	ldw	r7,20(sp)
  80c470:	da000417 	ldw	r8,16(sp)
  80c474:	8480062e 	bgeu	r16,r18,80c490 <__divdf3+0x5b8>
  80c478:	85a1883a 	add	r16,r16,r22
  80c47c:	40bfffc4 	addi	r2,r8,-1
  80c480:	8580ac36 	bltu	r16,r22,80c734 <__divdf3+0x85c>
  80c484:	8480ab2e 	bgeu	r16,r18,80c734 <__divdf3+0x85c>
  80c488:	423fff84 	addi	r8,r8,-2
  80c48c:	85a1883a 	add	r16,r16,r22
  80c490:	3804943a 	slli	r2,r7,16
  80c494:	84a1c83a 	sub	r16,r16,r18
  80c498:	e009883a 	mov	r4,fp
  80c49c:	1228b03a 	or	r20,r2,r8
  80c4a0:	a1ffffcc 	andi	r7,r20,65535
  80c4a4:	a024d43a 	srli	r18,r20,16
  80c4a8:	380b883a 	mov	r5,r7
  80c4ac:	d8c00215 	stw	r3,8(sp)
  80c4b0:	d9c00515 	stw	r7,20(sp)
  80c4b4:	08005640 	call	800564 <__mulsi3>
  80c4b8:	900b883a 	mov	r5,r18
  80c4bc:	e009883a 	mov	r4,fp
  80c4c0:	102b883a 	mov	r21,r2
  80c4c4:	08005640 	call	800564 <__mulsi3>
  80c4c8:	900b883a 	mov	r5,r18
  80c4cc:	b809883a 	mov	r4,r23
  80c4d0:	1039883a 	mov	fp,r2
  80c4d4:	08005640 	call	800564 <__mulsi3>
  80c4d8:	d9c00517 	ldw	r7,20(sp)
  80c4dc:	b80b883a 	mov	r5,r23
  80c4e0:	1025883a 	mov	r18,r2
  80c4e4:	3809883a 	mov	r4,r7
  80c4e8:	08005640 	call	800564 <__mulsi3>
  80c4ec:	a808d43a 	srli	r4,r21,16
  80c4f0:	1705883a 	add	r2,r2,fp
  80c4f4:	d8c00217 	ldw	r3,8(sp)
  80c4f8:	2085883a 	add	r2,r4,r2
  80c4fc:	1700022e 	bgeu	r2,fp,80c508 <__divdf3+0x630>
  80c500:	01000074 	movhi	r4,1
  80c504:	9125883a 	add	r18,r18,r4
  80c508:	1008d43a 	srli	r4,r2,16
  80c50c:	1004943a 	slli	r2,r2,16
  80c510:	ad7fffcc 	andi	r21,r21,65535
  80c514:	2489883a 	add	r4,r4,r18
  80c518:	1545883a 	add	r2,r2,r21
  80c51c:	81003836 	bltu	r16,r4,80c600 <__divdf3+0x728>
  80c520:	81003626 	beq	r16,r4,80c5fc <__divdf3+0x724>
  80c524:	a5000054 	ori	r20,r20,1
  80c528:	1880ffc4 	addi	r2,r3,1023
  80c52c:	00bf2e0e 	bge	zero,r2,80c1e8 <__alt_data_end+0xff80c1e8>
  80c530:	a10001cc 	andi	r4,r20,7
  80c534:	20000726 	beq	r4,zero,80c554 <__divdf3+0x67c>
  80c538:	a10003cc 	andi	r4,r20,15
  80c53c:	01400104 	movi	r5,4
  80c540:	21400426 	beq	r4,r5,80c554 <__divdf3+0x67c>
  80c544:	a149883a 	add	r4,r20,r5
  80c548:	2529803a 	cmpltu	r20,r4,r20
  80c54c:	8d23883a 	add	r17,r17,r20
  80c550:	2029883a 	mov	r20,r4
  80c554:	8900402c 	andhi	r4,r17,256
  80c558:	20000426 	beq	r4,zero,80c56c <__divdf3+0x694>
  80c55c:	18810004 	addi	r2,r3,1024
  80c560:	00ffc034 	movhi	r3,65280
  80c564:	18ffffc4 	addi	r3,r3,-1
  80c568:	88e2703a 	and	r17,r17,r3
  80c56c:	00c1ff84 	movi	r3,2046
  80c570:	18beb416 	blt	r3,r2,80c044 <__alt_data_end+0xff80c044>
  80c574:	a028d0fa 	srli	r20,r20,3
  80c578:	882a977a 	slli	r21,r17,29
  80c57c:	8820927a 	slli	r16,r17,9
  80c580:	1081ffcc 	andi	r2,r2,2047
  80c584:	ad2ab03a 	or	r21,r21,r20
  80c588:	8020d33a 	srli	r16,r16,12
  80c58c:	9900004c 	andi	r4,r19,1
  80c590:	003eb006 	br	80c054 <__alt_data_end+0xff80c054>
  80c594:	8080022c 	andhi	r2,r16,8
  80c598:	10001226 	beq	r2,zero,80c5e4 <__divdf3+0x70c>
  80c59c:	8880022c 	andhi	r2,r17,8
  80c5a0:	1000101e 	bne	r2,zero,80c5e4 <__divdf3+0x70c>
  80c5a4:	00800434 	movhi	r2,16
  80c5a8:	8c000234 	orhi	r16,r17,8
  80c5ac:	10bfffc4 	addi	r2,r2,-1
  80c5b0:	b809883a 	mov	r4,r23
  80c5b4:	80a0703a 	and	r16,r16,r2
  80c5b8:	a02b883a 	mov	r21,r20
  80c5bc:	003f0806 	br	80c1e0 <__alt_data_end+0xff80c1e0>
  80c5c0:	008000c4 	movi	r2,3
  80c5c4:	3880b126 	beq	r7,r2,80c88c <__divdf3+0x9b4>
  80c5c8:	00800044 	movi	r2,1
  80c5cc:	38805b1e 	bne	r7,r2,80c73c <__divdf3+0x864>
  80c5d0:	e009883a 	mov	r4,fp
  80c5d4:	0005883a 	mov	r2,zero
  80c5d8:	0021883a 	mov	r16,zero
  80c5dc:	002b883a 	mov	r21,zero
  80c5e0:	003e9c06 	br	80c054 <__alt_data_end+0xff80c054>
  80c5e4:	00800434 	movhi	r2,16
  80c5e8:	84000234 	orhi	r16,r16,8
  80c5ec:	10bfffc4 	addi	r2,r2,-1
  80c5f0:	b009883a 	mov	r4,r22
  80c5f4:	80a0703a 	and	r16,r16,r2
  80c5f8:	003ef906 	br	80c1e0 <__alt_data_end+0xff80c1e0>
  80c5fc:	103fca26 	beq	r2,zero,80c528 <__alt_data_end+0xff80c528>
  80c600:	b421883a 	add	r16,r22,r16
  80c604:	a17fffc4 	addi	r5,r20,-1
  80c608:	8580422e 	bgeu	r16,r22,80c714 <__divdf3+0x83c>
  80c60c:	2829883a 	mov	r20,r5
  80c610:	813fc41e 	bne	r16,r4,80c524 <__alt_data_end+0xff80c524>
  80c614:	d9800017 	ldw	r6,0(sp)
  80c618:	30bfc21e 	bne	r6,r2,80c524 <__alt_data_end+0xff80c524>
  80c61c:	003fc206 	br	80c528 <__alt_data_end+0xff80c528>
  80c620:	143ff604 	addi	r16,r2,-40
  80c624:	8c20983a 	sll	r16,r17,r16
  80c628:	002b883a 	mov	r21,zero
  80c62c:	003eb406 	br	80c100 <__alt_data_end+0xff80c100>
  80c630:	d9800215 	stw	r6,8(sp)
  80c634:	d9c00515 	stw	r7,20(sp)
  80c638:	da000415 	stw	r8,16(sp)
  80c63c:	08010280 	call	801028 <__clzsi2>
  80c640:	10800804 	addi	r2,r2,32
  80c644:	da000417 	ldw	r8,16(sp)
  80c648:	d9c00517 	ldw	r7,20(sp)
  80c64c:	d9800217 	ldw	r6,8(sp)
  80c650:	003ea106 	br	80c0d8 <__alt_data_end+0xff80c0d8>
  80c654:	147ff604 	addi	r17,r2,-40
  80c658:	3462983a 	sll	r17,r6,r17
  80c65c:	0029883a 	mov	r20,zero
  80c660:	003ec906 	br	80c188 <__alt_data_end+0xff80c188>
  80c664:	3009883a 	mov	r4,r6
  80c668:	d9400115 	stw	r5,4(sp)
  80c66c:	d9800215 	stw	r6,8(sp)
  80c670:	da000415 	stw	r8,16(sp)
  80c674:	da400315 	stw	r9,12(sp)
  80c678:	08010280 	call	801028 <__clzsi2>
  80c67c:	10800804 	addi	r2,r2,32
  80c680:	da400317 	ldw	r9,12(sp)
  80c684:	da000417 	ldw	r8,16(sp)
  80c688:	d9800217 	ldw	r6,8(sp)
  80c68c:	d9400117 	ldw	r5,4(sp)
  80c690:	003eb306 	br	80c160 <__alt_data_end+0xff80c160>
  80c694:	d9800017 	ldw	r6,0(sp)
  80c698:	a9ab883a 	add	r21,r21,r6
  80c69c:	a98b803a 	cmpltu	r5,r21,r6
  80c6a0:	2d8b883a 	add	r5,r5,r22
  80c6a4:	2a11883a 	add	r8,r5,r8
  80c6a8:	897fffc4 	addi	r5,r17,-1
  80c6ac:	b2000c2e 	bgeu	r22,r8,80c6e0 <__divdf3+0x808>
  80c6b0:	41003f36 	bltu	r8,r4,80c7b0 <__divdf3+0x8d8>
  80c6b4:	22006c26 	beq	r4,r8,80c868 <__divdf3+0x990>
  80c6b8:	4109c83a 	sub	r4,r8,r4
  80c6bc:	2823883a 	mov	r17,r5
  80c6c0:	003f3b06 	br	80c3b0 <__alt_data_end+0xff80c3b0>
  80c6c4:	ad3ed336 	bltu	r21,r20,80c214 <__alt_data_end+0xff80c214>
  80c6c8:	a804d07a 	srli	r2,r21,1
  80c6cc:	802e97fa 	slli	r23,r16,31
  80c6d0:	a82a97fa 	slli	r21,r21,31
  80c6d4:	8020d07a 	srli	r16,r16,1
  80c6d8:	b8aeb03a 	or	r23,r23,r2
  80c6dc:	003ed006 	br	80c220 <__alt_data_end+0xff80c220>
  80c6e0:	b23ff51e 	bne	r22,r8,80c6b8 <__alt_data_end+0xff80c6b8>
  80c6e4:	d9800017 	ldw	r6,0(sp)
  80c6e8:	a9bff12e 	bgeu	r21,r6,80c6b0 <__alt_data_end+0xff80c6b0>
  80c6ec:	b109c83a 	sub	r4,r22,r4
  80c6f0:	2823883a 	mov	r17,r5
  80c6f4:	003f2e06 	br	80c3b0 <__alt_data_end+0xff80c3b0>
  80c6f8:	2021883a 	mov	r16,r4
  80c6fc:	003eff06 	br	80c2fc <__alt_data_end+0xff80c2fc>
  80c700:	2023883a 	mov	r17,r4
  80c704:	003ee406 	br	80c298 <__alt_data_end+0xff80c298>
  80c708:	a8bfe236 	bltu	r21,r2,80c694 <__alt_data_end+0xff80c694>
  80c70c:	0009883a 	mov	r4,zero
  80c710:	003f2706 	br	80c3b0 <__alt_data_end+0xff80c3b0>
  80c714:	81002d36 	bltu	r16,r4,80c7cc <__divdf3+0x8f4>
  80c718:	24005626 	beq	r4,r16,80c874 <__divdf3+0x99c>
  80c71c:	2829883a 	mov	r20,r5
  80c720:	003f8006 	br	80c524 <__alt_data_end+0xff80c524>
  80c724:	053fffc4 	movi	r20,-1
  80c728:	003f7f06 	br	80c528 <__alt_data_end+0xff80c528>
  80c72c:	200f883a 	mov	r7,r4
  80c730:	003f3c06 	br	80c424 <__alt_data_end+0xff80c424>
  80c734:	1011883a 	mov	r8,r2
  80c738:	003f5506 	br	80c490 <__alt_data_end+0xff80c490>
  80c73c:	e027883a 	mov	r19,fp
  80c740:	003f7906 	br	80c528 <__alt_data_end+0xff80c528>
  80c744:	010007c4 	movi	r4,31
  80c748:	20c02816 	blt	r4,r3,80c7ec <__divdf3+0x914>
  80c74c:	00800804 	movi	r2,32
  80c750:	10c5c83a 	sub	r2,r2,r3
  80c754:	888a983a 	sll	r5,r17,r2
  80c758:	a0c8d83a 	srl	r4,r20,r3
  80c75c:	a084983a 	sll	r2,r20,r2
  80c760:	88e2d83a 	srl	r17,r17,r3
  80c764:	2906b03a 	or	r3,r5,r4
  80c768:	1004c03a 	cmpne	r2,r2,zero
  80c76c:	1886b03a 	or	r3,r3,r2
  80c770:	188001cc 	andi	r2,r3,7
  80c774:	10000726 	beq	r2,zero,80c794 <__divdf3+0x8bc>
  80c778:	188003cc 	andi	r2,r3,15
  80c77c:	01000104 	movi	r4,4
  80c780:	11000426 	beq	r2,r4,80c794 <__divdf3+0x8bc>
  80c784:	1805883a 	mov	r2,r3
  80c788:	10c00104 	addi	r3,r2,4
  80c78c:	1885803a 	cmpltu	r2,r3,r2
  80c790:	88a3883a 	add	r17,r17,r2
  80c794:	8880202c 	andhi	r2,r17,128
  80c798:	10002926 	beq	r2,zero,80c840 <__divdf3+0x968>
  80c79c:	9900004c 	andi	r4,r19,1
  80c7a0:	00800044 	movi	r2,1
  80c7a4:	0021883a 	mov	r16,zero
  80c7a8:	002b883a 	mov	r21,zero
  80c7ac:	003e2906 	br	80c054 <__alt_data_end+0xff80c054>
  80c7b0:	d9800017 	ldw	r6,0(sp)
  80c7b4:	8c7fff84 	addi	r17,r17,-2
  80c7b8:	a9ab883a 	add	r21,r21,r6
  80c7bc:	a98b803a 	cmpltu	r5,r21,r6
  80c7c0:	2d8b883a 	add	r5,r5,r22
  80c7c4:	2a11883a 	add	r8,r5,r8
  80c7c8:	003ef806 	br	80c3ac <__alt_data_end+0xff80c3ac>
  80c7cc:	d9800017 	ldw	r6,0(sp)
  80c7d0:	318f883a 	add	r7,r6,r6
  80c7d4:	398b803a 	cmpltu	r5,r7,r6
  80c7d8:	2d8d883a 	add	r6,r5,r22
  80c7dc:	81a1883a 	add	r16,r16,r6
  80c7e0:	a17fff84 	addi	r5,r20,-2
  80c7e4:	d9c00015 	stw	r7,0(sp)
  80c7e8:	003f8806 	br	80c60c <__alt_data_end+0xff80c60c>
  80c7ec:	013ff844 	movi	r4,-31
  80c7f0:	2085c83a 	sub	r2,r4,r2
  80c7f4:	8888d83a 	srl	r4,r17,r2
  80c7f8:	00800804 	movi	r2,32
  80c7fc:	18802126 	beq	r3,r2,80c884 <__divdf3+0x9ac>
  80c800:	04001004 	movi	r16,64
  80c804:	80c7c83a 	sub	r3,r16,r3
  80c808:	88e0983a 	sll	r16,r17,r3
  80c80c:	8504b03a 	or	r2,r16,r20
  80c810:	1004c03a 	cmpne	r2,r2,zero
  80c814:	2084b03a 	or	r2,r4,r2
  80c818:	144001cc 	andi	r17,r2,7
  80c81c:	88000d1e 	bne	r17,zero,80c854 <__divdf3+0x97c>
  80c820:	0021883a 	mov	r16,zero
  80c824:	102ad0fa 	srli	r21,r2,3
  80c828:	9900004c 	andi	r4,r19,1
  80c82c:	0005883a 	mov	r2,zero
  80c830:	ac6ab03a 	or	r21,r21,r17
  80c834:	003e0706 	br	80c054 <__alt_data_end+0xff80c054>
  80c838:	1007883a 	mov	r3,r2
  80c83c:	0023883a 	mov	r17,zero
  80c840:	8820927a 	slli	r16,r17,9
  80c844:	1805883a 	mov	r2,r3
  80c848:	8822977a 	slli	r17,r17,29
  80c84c:	8020d33a 	srli	r16,r16,12
  80c850:	003ff406 	br	80c824 <__alt_data_end+0xff80c824>
  80c854:	10c003cc 	andi	r3,r2,15
  80c858:	01000104 	movi	r4,4
  80c85c:	193ff626 	beq	r3,r4,80c838 <__alt_data_end+0xff80c838>
  80c860:	0023883a 	mov	r17,zero
  80c864:	003fc806 	br	80c788 <__alt_data_end+0xff80c788>
  80c868:	a8bfd136 	bltu	r21,r2,80c7b0 <__alt_data_end+0xff80c7b0>
  80c86c:	2823883a 	mov	r17,r5
  80c870:	003fa606 	br	80c70c <__alt_data_end+0xff80c70c>
  80c874:	d9800017 	ldw	r6,0(sp)
  80c878:	30bfd436 	bltu	r6,r2,80c7cc <__alt_data_end+0xff80c7cc>
  80c87c:	2829883a 	mov	r20,r5
  80c880:	003f6406 	br	80c614 <__alt_data_end+0xff80c614>
  80c884:	0021883a 	mov	r16,zero
  80c888:	003fe006 	br	80c80c <__alt_data_end+0xff80c80c>
  80c88c:	00800434 	movhi	r2,16
  80c890:	8c000234 	orhi	r16,r17,8
  80c894:	10bfffc4 	addi	r2,r2,-1
  80c898:	e009883a 	mov	r4,fp
  80c89c:	80a0703a 	and	r16,r16,r2
  80c8a0:	a02b883a 	mov	r21,r20
  80c8a4:	003e4e06 	br	80c1e0 <__alt_data_end+0xff80c1e0>

0080c8a8 <__eqdf2>:
  80c8a8:	2804d53a 	srli	r2,r5,20
  80c8ac:	3806d53a 	srli	r3,r7,20
  80c8b0:	02000434 	movhi	r8,16
  80c8b4:	423fffc4 	addi	r8,r8,-1
  80c8b8:	1081ffcc 	andi	r2,r2,2047
  80c8bc:	0281ffc4 	movi	r10,2047
  80c8c0:	2a12703a 	and	r9,r5,r8
  80c8c4:	18c1ffcc 	andi	r3,r3,2047
  80c8c8:	3a10703a 	and	r8,r7,r8
  80c8cc:	280ad7fa 	srli	r5,r5,31
  80c8d0:	380ed7fa 	srli	r7,r7,31
  80c8d4:	12801026 	beq	r2,r10,80c918 <__eqdf2+0x70>
  80c8d8:	0281ffc4 	movi	r10,2047
  80c8dc:	1a800a26 	beq	r3,r10,80c908 <__eqdf2+0x60>
  80c8e0:	10c00226 	beq	r2,r3,80c8ec <__eqdf2+0x44>
  80c8e4:	00800044 	movi	r2,1
  80c8e8:	f800283a 	ret
  80c8ec:	4a3ffd1e 	bne	r9,r8,80c8e4 <__alt_data_end+0xff80c8e4>
  80c8f0:	21bffc1e 	bne	r4,r6,80c8e4 <__alt_data_end+0xff80c8e4>
  80c8f4:	29c00c26 	beq	r5,r7,80c928 <__eqdf2+0x80>
  80c8f8:	103ffa1e 	bne	r2,zero,80c8e4 <__alt_data_end+0xff80c8e4>
  80c8fc:	2244b03a 	or	r2,r4,r9
  80c900:	1004c03a 	cmpne	r2,r2,zero
  80c904:	f800283a 	ret
  80c908:	3214b03a 	or	r10,r6,r8
  80c90c:	503ff426 	beq	r10,zero,80c8e0 <__alt_data_end+0xff80c8e0>
  80c910:	00800044 	movi	r2,1
  80c914:	f800283a 	ret
  80c918:	2254b03a 	or	r10,r4,r9
  80c91c:	503fee26 	beq	r10,zero,80c8d8 <__alt_data_end+0xff80c8d8>
  80c920:	00800044 	movi	r2,1
  80c924:	f800283a 	ret
  80c928:	0005883a 	mov	r2,zero
  80c92c:	f800283a 	ret

0080c930 <__gedf2>:
  80c930:	2804d53a 	srli	r2,r5,20
  80c934:	3806d53a 	srli	r3,r7,20
  80c938:	02000434 	movhi	r8,16
  80c93c:	423fffc4 	addi	r8,r8,-1
  80c940:	1081ffcc 	andi	r2,r2,2047
  80c944:	0241ffc4 	movi	r9,2047
  80c948:	2a14703a 	and	r10,r5,r8
  80c94c:	18c1ffcc 	andi	r3,r3,2047
  80c950:	3a10703a 	and	r8,r7,r8
  80c954:	280ad7fa 	srli	r5,r5,31
  80c958:	380ed7fa 	srli	r7,r7,31
  80c95c:	12401d26 	beq	r2,r9,80c9d4 <__gedf2+0xa4>
  80c960:	0241ffc4 	movi	r9,2047
  80c964:	1a401226 	beq	r3,r9,80c9b0 <__gedf2+0x80>
  80c968:	1000081e 	bne	r2,zero,80c98c <__gedf2+0x5c>
  80c96c:	2296b03a 	or	r11,r4,r10
  80c970:	5813003a 	cmpeq	r9,r11,zero
  80c974:	1800091e 	bne	r3,zero,80c99c <__gedf2+0x6c>
  80c978:	3218b03a 	or	r12,r6,r8
  80c97c:	6000071e 	bne	r12,zero,80c99c <__gedf2+0x6c>
  80c980:	0005883a 	mov	r2,zero
  80c984:	5800101e 	bne	r11,zero,80c9c8 <__gedf2+0x98>
  80c988:	f800283a 	ret
  80c98c:	18000c1e 	bne	r3,zero,80c9c0 <__gedf2+0x90>
  80c990:	3212b03a 	or	r9,r6,r8
  80c994:	48000c26 	beq	r9,zero,80c9c8 <__gedf2+0x98>
  80c998:	0013883a 	mov	r9,zero
  80c99c:	39c03fcc 	andi	r7,r7,255
  80c9a0:	48000826 	beq	r9,zero,80c9c4 <__gedf2+0x94>
  80c9a4:	38000926 	beq	r7,zero,80c9cc <__gedf2+0x9c>
  80c9a8:	00800044 	movi	r2,1
  80c9ac:	f800283a 	ret
  80c9b0:	3212b03a 	or	r9,r6,r8
  80c9b4:	483fec26 	beq	r9,zero,80c968 <__alt_data_end+0xff80c968>
  80c9b8:	00bfff84 	movi	r2,-2
  80c9bc:	f800283a 	ret
  80c9c0:	39c03fcc 	andi	r7,r7,255
  80c9c4:	29c00626 	beq	r5,r7,80c9e0 <__gedf2+0xb0>
  80c9c8:	283ff726 	beq	r5,zero,80c9a8 <__alt_data_end+0xff80c9a8>
  80c9cc:	00bfffc4 	movi	r2,-1
  80c9d0:	f800283a 	ret
  80c9d4:	2292b03a 	or	r9,r4,r10
  80c9d8:	483fe126 	beq	r9,zero,80c960 <__alt_data_end+0xff80c960>
  80c9dc:	003ff606 	br	80c9b8 <__alt_data_end+0xff80c9b8>
  80c9e0:	18bff916 	blt	r3,r2,80c9c8 <__alt_data_end+0xff80c9c8>
  80c9e4:	10c00316 	blt	r2,r3,80c9f4 <__gedf2+0xc4>
  80c9e8:	42bff736 	bltu	r8,r10,80c9c8 <__alt_data_end+0xff80c9c8>
  80c9ec:	52000326 	beq	r10,r8,80c9fc <__gedf2+0xcc>
  80c9f0:	5200042e 	bgeu	r10,r8,80ca04 <__gedf2+0xd4>
  80c9f4:	283fec1e 	bne	r5,zero,80c9a8 <__alt_data_end+0xff80c9a8>
  80c9f8:	003ff406 	br	80c9cc <__alt_data_end+0xff80c9cc>
  80c9fc:	313ff236 	bltu	r6,r4,80c9c8 <__alt_data_end+0xff80c9c8>
  80ca00:	21bffc36 	bltu	r4,r6,80c9f4 <__alt_data_end+0xff80c9f4>
  80ca04:	0005883a 	mov	r2,zero
  80ca08:	f800283a 	ret

0080ca0c <__ledf2>:
  80ca0c:	2804d53a 	srli	r2,r5,20
  80ca10:	3810d53a 	srli	r8,r7,20
  80ca14:	00c00434 	movhi	r3,16
  80ca18:	18ffffc4 	addi	r3,r3,-1
  80ca1c:	1081ffcc 	andi	r2,r2,2047
  80ca20:	0241ffc4 	movi	r9,2047
  80ca24:	28d4703a 	and	r10,r5,r3
  80ca28:	4201ffcc 	andi	r8,r8,2047
  80ca2c:	38c6703a 	and	r3,r7,r3
  80ca30:	280ad7fa 	srli	r5,r5,31
  80ca34:	380ed7fa 	srli	r7,r7,31
  80ca38:	12401f26 	beq	r2,r9,80cab8 <__ledf2+0xac>
  80ca3c:	0241ffc4 	movi	r9,2047
  80ca40:	42401426 	beq	r8,r9,80ca94 <__ledf2+0x88>
  80ca44:	1000091e 	bne	r2,zero,80ca6c <__ledf2+0x60>
  80ca48:	2296b03a 	or	r11,r4,r10
  80ca4c:	5813003a 	cmpeq	r9,r11,zero
  80ca50:	29403fcc 	andi	r5,r5,255
  80ca54:	40000a1e 	bne	r8,zero,80ca80 <__ledf2+0x74>
  80ca58:	30d8b03a 	or	r12,r6,r3
  80ca5c:	6000081e 	bne	r12,zero,80ca80 <__ledf2+0x74>
  80ca60:	0005883a 	mov	r2,zero
  80ca64:	5800111e 	bne	r11,zero,80caac <__ledf2+0xa0>
  80ca68:	f800283a 	ret
  80ca6c:	29403fcc 	andi	r5,r5,255
  80ca70:	40000c1e 	bne	r8,zero,80caa4 <__ledf2+0x98>
  80ca74:	30d2b03a 	or	r9,r6,r3
  80ca78:	48000c26 	beq	r9,zero,80caac <__ledf2+0xa0>
  80ca7c:	0013883a 	mov	r9,zero
  80ca80:	39c03fcc 	andi	r7,r7,255
  80ca84:	48000826 	beq	r9,zero,80caa8 <__ledf2+0x9c>
  80ca88:	38001126 	beq	r7,zero,80cad0 <__ledf2+0xc4>
  80ca8c:	00800044 	movi	r2,1
  80ca90:	f800283a 	ret
  80ca94:	30d2b03a 	or	r9,r6,r3
  80ca98:	483fea26 	beq	r9,zero,80ca44 <__alt_data_end+0xff80ca44>
  80ca9c:	00800084 	movi	r2,2
  80caa0:	f800283a 	ret
  80caa4:	39c03fcc 	andi	r7,r7,255
  80caa8:	39400726 	beq	r7,r5,80cac8 <__ledf2+0xbc>
  80caac:	2800081e 	bne	r5,zero,80cad0 <__ledf2+0xc4>
  80cab0:	00800044 	movi	r2,1
  80cab4:	f800283a 	ret
  80cab8:	2292b03a 	or	r9,r4,r10
  80cabc:	483fdf26 	beq	r9,zero,80ca3c <__alt_data_end+0xff80ca3c>
  80cac0:	00800084 	movi	r2,2
  80cac4:	f800283a 	ret
  80cac8:	4080030e 	bge	r8,r2,80cad8 <__ledf2+0xcc>
  80cacc:	383fef26 	beq	r7,zero,80ca8c <__alt_data_end+0xff80ca8c>
  80cad0:	00bfffc4 	movi	r2,-1
  80cad4:	f800283a 	ret
  80cad8:	123feb16 	blt	r2,r8,80ca88 <__alt_data_end+0xff80ca88>
  80cadc:	1abff336 	bltu	r3,r10,80caac <__alt_data_end+0xff80caac>
  80cae0:	50c00326 	beq	r10,r3,80caf0 <__ledf2+0xe4>
  80cae4:	50c0042e 	bgeu	r10,r3,80caf8 <__ledf2+0xec>
  80cae8:	283fe81e 	bne	r5,zero,80ca8c <__alt_data_end+0xff80ca8c>
  80caec:	003ff806 	br	80cad0 <__alt_data_end+0xff80cad0>
  80caf0:	313fee36 	bltu	r6,r4,80caac <__alt_data_end+0xff80caac>
  80caf4:	21bffc36 	bltu	r4,r6,80cae8 <__alt_data_end+0xff80cae8>
  80caf8:	0005883a 	mov	r2,zero
  80cafc:	f800283a 	ret

0080cb00 <__muldf3>:
  80cb00:	deffee04 	addi	sp,sp,-72
  80cb04:	dd000c15 	stw	r20,48(sp)
  80cb08:	2828d53a 	srli	r20,r5,20
  80cb0c:	ddc00f15 	stw	r23,60(sp)
  80cb10:	282ed7fa 	srli	r23,r5,31
  80cb14:	dc000815 	stw	r16,32(sp)
  80cb18:	04000434 	movhi	r16,16
  80cb1c:	dcc00b15 	stw	r19,44(sp)
  80cb20:	843fffc4 	addi	r16,r16,-1
  80cb24:	dfc01115 	stw	ra,68(sp)
  80cb28:	df001015 	stw	fp,64(sp)
  80cb2c:	dd800e15 	stw	r22,56(sp)
  80cb30:	dd400d15 	stw	r21,52(sp)
  80cb34:	dc800a15 	stw	r18,40(sp)
  80cb38:	dc400915 	stw	r17,36(sp)
  80cb3c:	a501ffcc 	andi	r20,r20,2047
  80cb40:	2c20703a 	and	r16,r5,r16
  80cb44:	b827883a 	mov	r19,r23
  80cb48:	ba403fcc 	andi	r9,r23,255
  80cb4c:	a0006026 	beq	r20,zero,80ccd0 <__muldf3+0x1d0>
  80cb50:	0081ffc4 	movi	r2,2047
  80cb54:	202d883a 	mov	r22,r4
  80cb58:	a0803626 	beq	r20,r2,80cc34 <__muldf3+0x134>
  80cb5c:	84000434 	orhi	r16,r16,16
  80cb60:	200ad77a 	srli	r5,r4,29
  80cb64:	800490fa 	slli	r2,r16,3
  80cb68:	202c90fa 	slli	r22,r4,3
  80cb6c:	a53f0044 	addi	r20,r20,-1023
  80cb70:	28a0b03a 	or	r16,r5,r2
  80cb74:	002b883a 	mov	r21,zero
  80cb78:	000b883a 	mov	r5,zero
  80cb7c:	3804d53a 	srli	r2,r7,20
  80cb80:	3838d7fa 	srli	fp,r7,31
  80cb84:	04400434 	movhi	r17,16
  80cb88:	8c7fffc4 	addi	r17,r17,-1
  80cb8c:	1081ffcc 	andi	r2,r2,2047
  80cb90:	3025883a 	mov	r18,r6
  80cb94:	3c62703a 	and	r17,r7,r17
  80cb98:	e2803fcc 	andi	r10,fp,255
  80cb9c:	10006d26 	beq	r2,zero,80cd54 <__muldf3+0x254>
  80cba0:	00c1ffc4 	movi	r3,2047
  80cba4:	10c06526 	beq	r2,r3,80cd3c <__muldf3+0x23c>
  80cba8:	8c400434 	orhi	r17,r17,16
  80cbac:	300ed77a 	srli	r7,r6,29
  80cbb0:	880690fa 	slli	r3,r17,3
  80cbb4:	302490fa 	slli	r18,r6,3
  80cbb8:	10bf0044 	addi	r2,r2,-1023
  80cbbc:	38e2b03a 	or	r17,r7,r3
  80cbc0:	000f883a 	mov	r7,zero
  80cbc4:	a087883a 	add	r3,r20,r2
  80cbc8:	010003c4 	movi	r4,15
  80cbcc:	3d44b03a 	or	r2,r7,r21
  80cbd0:	e5ccf03a 	xor	r6,fp,r23
  80cbd4:	1a000044 	addi	r8,r3,1
  80cbd8:	20809b36 	bltu	r4,r2,80ce48 <__muldf3+0x348>
  80cbdc:	100490ba 	slli	r2,r2,2
  80cbe0:	01002074 	movhi	r4,129
  80cbe4:	2132fd04 	addi	r4,r4,-13324
  80cbe8:	1105883a 	add	r2,r2,r4
  80cbec:	10800017 	ldw	r2,0(r2)
  80cbf0:	1000683a 	jmp	r2
  80cbf4:	0080ce48 	cmpgei	r2,zero,825
  80cbf8:	0080cc54 	movui	r2,817
  80cbfc:	0080cc54 	movui	r2,817
  80cc00:	0080cc50 	cmplti	r2,zero,817
  80cc04:	0080ce24 	muli	r2,zero,824
  80cc08:	0080ce24 	muli	r2,zero,824
  80cc0c:	0080ce0c 	andi	r2,zero,824
  80cc10:	0080cc50 	cmplti	r2,zero,817
  80cc14:	0080ce24 	muli	r2,zero,824
  80cc18:	0080ce0c 	andi	r2,zero,824
  80cc1c:	0080ce24 	muli	r2,zero,824
  80cc20:	0080cc50 	cmplti	r2,zero,817
  80cc24:	0080ce34 	movhi	r2,824
  80cc28:	0080ce34 	movhi	r2,824
  80cc2c:	0080ce34 	movhi	r2,824
  80cc30:	0080d194 	movui	r2,838
  80cc34:	2404b03a 	or	r2,r4,r16
  80cc38:	1000711e 	bne	r2,zero,80ce00 <__muldf3+0x300>
  80cc3c:	05400204 	movi	r21,8
  80cc40:	0021883a 	mov	r16,zero
  80cc44:	002d883a 	mov	r22,zero
  80cc48:	01400084 	movi	r5,2
  80cc4c:	003fcb06 	br	80cb7c <__alt_data_end+0xff80cb7c>
  80cc50:	500d883a 	mov	r6,r10
  80cc54:	00800084 	movi	r2,2
  80cc58:	38805926 	beq	r7,r2,80cdc0 <__muldf3+0x2c0>
  80cc5c:	008000c4 	movi	r2,3
  80cc60:	3881bb26 	beq	r7,r2,80d350 <__muldf3+0x850>
  80cc64:	00800044 	movi	r2,1
  80cc68:	3881961e 	bne	r7,r2,80d2c4 <__muldf3+0x7c4>
  80cc6c:	3027883a 	mov	r19,r6
  80cc70:	0005883a 	mov	r2,zero
  80cc74:	0021883a 	mov	r16,zero
  80cc78:	002d883a 	mov	r22,zero
  80cc7c:	1004953a 	slli	r2,r2,20
  80cc80:	98c03fcc 	andi	r3,r19,255
  80cc84:	04400434 	movhi	r17,16
  80cc88:	8c7fffc4 	addi	r17,r17,-1
  80cc8c:	180697fa 	slli	r3,r3,31
  80cc90:	8460703a 	and	r16,r16,r17
  80cc94:	80a0b03a 	or	r16,r16,r2
  80cc98:	80c6b03a 	or	r3,r16,r3
  80cc9c:	b005883a 	mov	r2,r22
  80cca0:	dfc01117 	ldw	ra,68(sp)
  80cca4:	df001017 	ldw	fp,64(sp)
  80cca8:	ddc00f17 	ldw	r23,60(sp)
  80ccac:	dd800e17 	ldw	r22,56(sp)
  80ccb0:	dd400d17 	ldw	r21,52(sp)
  80ccb4:	dd000c17 	ldw	r20,48(sp)
  80ccb8:	dcc00b17 	ldw	r19,44(sp)
  80ccbc:	dc800a17 	ldw	r18,40(sp)
  80ccc0:	dc400917 	ldw	r17,36(sp)
  80ccc4:	dc000817 	ldw	r16,32(sp)
  80ccc8:	dec01204 	addi	sp,sp,72
  80cccc:	f800283a 	ret
  80ccd0:	2404b03a 	or	r2,r4,r16
  80ccd4:	202b883a 	mov	r21,r4
  80ccd8:	10004426 	beq	r2,zero,80cdec <__muldf3+0x2ec>
  80ccdc:	80015126 	beq	r16,zero,80d224 <__muldf3+0x724>
  80cce0:	8009883a 	mov	r4,r16
  80cce4:	d9800715 	stw	r6,28(sp)
  80cce8:	d9c00215 	stw	r7,8(sp)
  80ccec:	da400415 	stw	r9,16(sp)
  80ccf0:	08010280 	call	801028 <__clzsi2>
  80ccf4:	d9800717 	ldw	r6,28(sp)
  80ccf8:	d9c00217 	ldw	r7,8(sp)
  80ccfc:	da400417 	ldw	r9,16(sp)
  80cd00:	113ffd44 	addi	r4,r2,-11
  80cd04:	00c00704 	movi	r3,28
  80cd08:	19014216 	blt	r3,r4,80d214 <__muldf3+0x714>
  80cd0c:	00c00744 	movi	r3,29
  80cd10:	15bffe04 	addi	r22,r2,-8
  80cd14:	1907c83a 	sub	r3,r3,r4
  80cd18:	85a0983a 	sll	r16,r16,r22
  80cd1c:	a8c6d83a 	srl	r3,r21,r3
  80cd20:	adac983a 	sll	r22,r21,r22
  80cd24:	1c20b03a 	or	r16,r3,r16
  80cd28:	1080fcc4 	addi	r2,r2,1011
  80cd2c:	00a9c83a 	sub	r20,zero,r2
  80cd30:	002b883a 	mov	r21,zero
  80cd34:	000b883a 	mov	r5,zero
  80cd38:	003f9006 	br	80cb7c <__alt_data_end+0xff80cb7c>
  80cd3c:	3446b03a 	or	r3,r6,r17
  80cd40:	1800281e 	bne	r3,zero,80cde4 <__muldf3+0x2e4>
  80cd44:	0023883a 	mov	r17,zero
  80cd48:	0025883a 	mov	r18,zero
  80cd4c:	01c00084 	movi	r7,2
  80cd50:	003f9c06 	br	80cbc4 <__alt_data_end+0xff80cbc4>
  80cd54:	3446b03a 	or	r3,r6,r17
  80cd58:	18001e26 	beq	r3,zero,80cdd4 <__muldf3+0x2d4>
  80cd5c:	88012126 	beq	r17,zero,80d1e4 <__muldf3+0x6e4>
  80cd60:	8809883a 	mov	r4,r17
  80cd64:	d9400215 	stw	r5,8(sp)
  80cd68:	d9800715 	stw	r6,28(sp)
  80cd6c:	da400415 	stw	r9,16(sp)
  80cd70:	da800315 	stw	r10,12(sp)
  80cd74:	08010280 	call	801028 <__clzsi2>
  80cd78:	d9400217 	ldw	r5,8(sp)
  80cd7c:	d9800717 	ldw	r6,28(sp)
  80cd80:	da400417 	ldw	r9,16(sp)
  80cd84:	da800317 	ldw	r10,12(sp)
  80cd88:	113ffd44 	addi	r4,r2,-11
  80cd8c:	00c00704 	movi	r3,28
  80cd90:	19011016 	blt	r3,r4,80d1d4 <__muldf3+0x6d4>
  80cd94:	00c00744 	movi	r3,29
  80cd98:	14bffe04 	addi	r18,r2,-8
  80cd9c:	1907c83a 	sub	r3,r3,r4
  80cda0:	8ca2983a 	sll	r17,r17,r18
  80cda4:	30c6d83a 	srl	r3,r6,r3
  80cda8:	34a4983a 	sll	r18,r6,r18
  80cdac:	1c62b03a 	or	r17,r3,r17
  80cdb0:	1080fcc4 	addi	r2,r2,1011
  80cdb4:	0085c83a 	sub	r2,zero,r2
  80cdb8:	000f883a 	mov	r7,zero
  80cdbc:	003f8106 	br	80cbc4 <__alt_data_end+0xff80cbc4>
  80cdc0:	3027883a 	mov	r19,r6
  80cdc4:	0081ffc4 	movi	r2,2047
  80cdc8:	0021883a 	mov	r16,zero
  80cdcc:	002d883a 	mov	r22,zero
  80cdd0:	003faa06 	br	80cc7c <__alt_data_end+0xff80cc7c>
  80cdd4:	0023883a 	mov	r17,zero
  80cdd8:	0025883a 	mov	r18,zero
  80cddc:	01c00044 	movi	r7,1
  80cde0:	003f7806 	br	80cbc4 <__alt_data_end+0xff80cbc4>
  80cde4:	01c000c4 	movi	r7,3
  80cde8:	003f7606 	br	80cbc4 <__alt_data_end+0xff80cbc4>
  80cdec:	05400104 	movi	r21,4
  80cdf0:	0021883a 	mov	r16,zero
  80cdf4:	002d883a 	mov	r22,zero
  80cdf8:	01400044 	movi	r5,1
  80cdfc:	003f5f06 	br	80cb7c <__alt_data_end+0xff80cb7c>
  80ce00:	05400304 	movi	r21,12
  80ce04:	014000c4 	movi	r5,3
  80ce08:	003f5c06 	br	80cb7c <__alt_data_end+0xff80cb7c>
  80ce0c:	04000434 	movhi	r16,16
  80ce10:	0027883a 	mov	r19,zero
  80ce14:	843fffc4 	addi	r16,r16,-1
  80ce18:	05bfffc4 	movi	r22,-1
  80ce1c:	0081ffc4 	movi	r2,2047
  80ce20:	003f9606 	br	80cc7c <__alt_data_end+0xff80cc7c>
  80ce24:	8023883a 	mov	r17,r16
  80ce28:	b025883a 	mov	r18,r22
  80ce2c:	280f883a 	mov	r7,r5
  80ce30:	003f8806 	br	80cc54 <__alt_data_end+0xff80cc54>
  80ce34:	8023883a 	mov	r17,r16
  80ce38:	b025883a 	mov	r18,r22
  80ce3c:	480d883a 	mov	r6,r9
  80ce40:	280f883a 	mov	r7,r5
  80ce44:	003f8306 	br	80cc54 <__alt_data_end+0xff80cc54>
  80ce48:	b026d43a 	srli	r19,r22,16
  80ce4c:	902ed43a 	srli	r23,r18,16
  80ce50:	b5bfffcc 	andi	r22,r22,65535
  80ce54:	94bfffcc 	andi	r18,r18,65535
  80ce58:	b00b883a 	mov	r5,r22
  80ce5c:	9009883a 	mov	r4,r18
  80ce60:	d8c00515 	stw	r3,20(sp)
  80ce64:	d9800715 	stw	r6,28(sp)
  80ce68:	da000615 	stw	r8,24(sp)
  80ce6c:	08005640 	call	800564 <__mulsi3>
  80ce70:	980b883a 	mov	r5,r19
  80ce74:	9009883a 	mov	r4,r18
  80ce78:	1029883a 	mov	r20,r2
  80ce7c:	08005640 	call	800564 <__mulsi3>
  80ce80:	b80b883a 	mov	r5,r23
  80ce84:	9809883a 	mov	r4,r19
  80ce88:	102b883a 	mov	r21,r2
  80ce8c:	08005640 	call	800564 <__mulsi3>
  80ce90:	b809883a 	mov	r4,r23
  80ce94:	b00b883a 	mov	r5,r22
  80ce98:	1039883a 	mov	fp,r2
  80ce9c:	08005640 	call	800564 <__mulsi3>
  80cea0:	a008d43a 	srli	r4,r20,16
  80cea4:	1545883a 	add	r2,r2,r21
  80cea8:	d8c00517 	ldw	r3,20(sp)
  80ceac:	2085883a 	add	r2,r4,r2
  80ceb0:	d9800717 	ldw	r6,28(sp)
  80ceb4:	da000617 	ldw	r8,24(sp)
  80ceb8:	1540022e 	bgeu	r2,r21,80cec4 <__muldf3+0x3c4>
  80cebc:	01000074 	movhi	r4,1
  80cec0:	e139883a 	add	fp,fp,r4
  80cec4:	100e943a 	slli	r7,r2,16
  80cec8:	1004d43a 	srli	r2,r2,16
  80cecc:	882ad43a 	srli	r21,r17,16
  80ced0:	a53fffcc 	andi	r20,r20,65535
  80ced4:	8c7fffcc 	andi	r17,r17,65535
  80ced8:	3d29883a 	add	r20,r7,r20
  80cedc:	b00b883a 	mov	r5,r22
  80cee0:	8809883a 	mov	r4,r17
  80cee4:	d8c00515 	stw	r3,20(sp)
  80cee8:	d9800715 	stw	r6,28(sp)
  80ceec:	da000615 	stw	r8,24(sp)
  80cef0:	dd000115 	stw	r20,4(sp)
  80cef4:	d8800015 	stw	r2,0(sp)
  80cef8:	08005640 	call	800564 <__mulsi3>
  80cefc:	980b883a 	mov	r5,r19
  80cf00:	8809883a 	mov	r4,r17
  80cf04:	d8800215 	stw	r2,8(sp)
  80cf08:	08005640 	call	800564 <__mulsi3>
  80cf0c:	9809883a 	mov	r4,r19
  80cf10:	a80b883a 	mov	r5,r21
  80cf14:	1029883a 	mov	r20,r2
  80cf18:	08005640 	call	800564 <__mulsi3>
  80cf1c:	b00b883a 	mov	r5,r22
  80cf20:	a809883a 	mov	r4,r21
  80cf24:	d8800415 	stw	r2,16(sp)
  80cf28:	08005640 	call	800564 <__mulsi3>
  80cf2c:	d9c00217 	ldw	r7,8(sp)
  80cf30:	1505883a 	add	r2,r2,r20
  80cf34:	d8c00517 	ldw	r3,20(sp)
  80cf38:	3826d43a 	srli	r19,r7,16
  80cf3c:	d9800717 	ldw	r6,28(sp)
  80cf40:	da000617 	ldw	r8,24(sp)
  80cf44:	9885883a 	add	r2,r19,r2
  80cf48:	da400417 	ldw	r9,16(sp)
  80cf4c:	1500022e 	bgeu	r2,r20,80cf58 <__muldf3+0x458>
  80cf50:	01000074 	movhi	r4,1
  80cf54:	4913883a 	add	r9,r9,r4
  80cf58:	1028d43a 	srli	r20,r2,16
  80cf5c:	1004943a 	slli	r2,r2,16
  80cf60:	802cd43a 	srli	r22,r16,16
  80cf64:	843fffcc 	andi	r16,r16,65535
  80cf68:	3cffffcc 	andi	r19,r7,65535
  80cf6c:	9009883a 	mov	r4,r18
  80cf70:	800b883a 	mov	r5,r16
  80cf74:	a269883a 	add	r20,r20,r9
  80cf78:	d8c00515 	stw	r3,20(sp)
  80cf7c:	d9800715 	stw	r6,28(sp)
  80cf80:	da000615 	stw	r8,24(sp)
  80cf84:	14e7883a 	add	r19,r2,r19
  80cf88:	08005640 	call	800564 <__mulsi3>
  80cf8c:	9009883a 	mov	r4,r18
  80cf90:	b00b883a 	mov	r5,r22
  80cf94:	d8800315 	stw	r2,12(sp)
  80cf98:	08005640 	call	800564 <__mulsi3>
  80cf9c:	b809883a 	mov	r4,r23
  80cfa0:	b00b883a 	mov	r5,r22
  80cfa4:	d8800215 	stw	r2,8(sp)
  80cfa8:	08005640 	call	800564 <__mulsi3>
  80cfac:	b80b883a 	mov	r5,r23
  80cfb0:	8009883a 	mov	r4,r16
  80cfb4:	d8800415 	stw	r2,16(sp)
  80cfb8:	08005640 	call	800564 <__mulsi3>
  80cfbc:	da800317 	ldw	r10,12(sp)
  80cfc0:	d9c00217 	ldw	r7,8(sp)
  80cfc4:	d9000017 	ldw	r4,0(sp)
  80cfc8:	502ed43a 	srli	r23,r10,16
  80cfcc:	11c5883a 	add	r2,r2,r7
  80cfd0:	24e5883a 	add	r18,r4,r19
  80cfd4:	b885883a 	add	r2,r23,r2
  80cfd8:	d8c00517 	ldw	r3,20(sp)
  80cfdc:	d9800717 	ldw	r6,28(sp)
  80cfe0:	da000617 	ldw	r8,24(sp)
  80cfe4:	da400417 	ldw	r9,16(sp)
  80cfe8:	11c0022e 	bgeu	r2,r7,80cff4 <__muldf3+0x4f4>
  80cfec:	01000074 	movhi	r4,1
  80cff0:	4913883a 	add	r9,r9,r4
  80cff4:	100ed43a 	srli	r7,r2,16
  80cff8:	1004943a 	slli	r2,r2,16
  80cffc:	55ffffcc 	andi	r23,r10,65535
  80d000:	3a53883a 	add	r9,r7,r9
  80d004:	8809883a 	mov	r4,r17
  80d008:	800b883a 	mov	r5,r16
  80d00c:	d8c00515 	stw	r3,20(sp)
  80d010:	d9800715 	stw	r6,28(sp)
  80d014:	da000615 	stw	r8,24(sp)
  80d018:	da400415 	stw	r9,16(sp)
  80d01c:	15ef883a 	add	r23,r2,r23
  80d020:	08005640 	call	800564 <__mulsi3>
  80d024:	8809883a 	mov	r4,r17
  80d028:	b00b883a 	mov	r5,r22
  80d02c:	d8800215 	stw	r2,8(sp)
  80d030:	08005640 	call	800564 <__mulsi3>
  80d034:	b00b883a 	mov	r5,r22
  80d038:	a809883a 	mov	r4,r21
  80d03c:	d8800315 	stw	r2,12(sp)
  80d040:	08005640 	call	800564 <__mulsi3>
  80d044:	8009883a 	mov	r4,r16
  80d048:	a80b883a 	mov	r5,r21
  80d04c:	1023883a 	mov	r17,r2
  80d050:	08005640 	call	800564 <__mulsi3>
  80d054:	d9c00217 	ldw	r7,8(sp)
  80d058:	da800317 	ldw	r10,12(sp)
  80d05c:	d8c00517 	ldw	r3,20(sp)
  80d060:	3808d43a 	srli	r4,r7,16
  80d064:	1285883a 	add	r2,r2,r10
  80d068:	d9800717 	ldw	r6,28(sp)
  80d06c:	2085883a 	add	r2,r4,r2
  80d070:	da000617 	ldw	r8,24(sp)
  80d074:	da400417 	ldw	r9,16(sp)
  80d078:	1280022e 	bgeu	r2,r10,80d084 <__muldf3+0x584>
  80d07c:	01000074 	movhi	r4,1
  80d080:	8923883a 	add	r17,r17,r4
  80d084:	1008943a 	slli	r4,r2,16
  80d088:	39ffffcc 	andi	r7,r7,65535
  80d08c:	e4b9883a 	add	fp,fp,r18
  80d090:	21cf883a 	add	r7,r4,r7
  80d094:	e4e7803a 	cmpltu	r19,fp,r19
  80d098:	3d0f883a 	add	r7,r7,r20
  80d09c:	bf39883a 	add	fp,r23,fp
  80d0a0:	99c9883a 	add	r4,r19,r7
  80d0a4:	e5ef803a 	cmpltu	r23,fp,r23
  80d0a8:	490b883a 	add	r5,r9,r4
  80d0ac:	1004d43a 	srli	r2,r2,16
  80d0b0:	b965883a 	add	r18,r23,r5
  80d0b4:	24c9803a 	cmpltu	r4,r4,r19
  80d0b8:	3d29803a 	cmpltu	r20,r7,r20
  80d0bc:	a128b03a 	or	r20,r20,r4
  80d0c0:	95ef803a 	cmpltu	r23,r18,r23
  80d0c4:	2a53803a 	cmpltu	r9,r5,r9
  80d0c8:	a0a9883a 	add	r20,r20,r2
  80d0cc:	4deeb03a 	or	r23,r9,r23
  80d0d0:	a5ef883a 	add	r23,r20,r23
  80d0d4:	bc63883a 	add	r17,r23,r17
  80d0d8:	e004927a 	slli	r2,fp,9
  80d0dc:	d9000117 	ldw	r4,4(sp)
  80d0e0:	882e927a 	slli	r23,r17,9
  80d0e4:	9022d5fa 	srli	r17,r18,23
  80d0e8:	e038d5fa 	srli	fp,fp,23
  80d0ec:	1104b03a 	or	r2,r2,r4
  80d0f0:	9024927a 	slli	r18,r18,9
  80d0f4:	1004c03a 	cmpne	r2,r2,zero
  80d0f8:	bc62b03a 	or	r17,r23,r17
  80d0fc:	1738b03a 	or	fp,r2,fp
  80d100:	8880402c 	andhi	r2,r17,256
  80d104:	e4a4b03a 	or	r18,fp,r18
  80d108:	10000726 	beq	r2,zero,80d128 <__muldf3+0x628>
  80d10c:	9006d07a 	srli	r3,r18,1
  80d110:	880497fa 	slli	r2,r17,31
  80d114:	9480004c 	andi	r18,r18,1
  80d118:	8822d07a 	srli	r17,r17,1
  80d11c:	1ca4b03a 	or	r18,r3,r18
  80d120:	14a4b03a 	or	r18,r2,r18
  80d124:	4007883a 	mov	r3,r8
  80d128:	1880ffc4 	addi	r2,r3,1023
  80d12c:	0080460e 	bge	zero,r2,80d248 <__muldf3+0x748>
  80d130:	910001cc 	andi	r4,r18,7
  80d134:	20000726 	beq	r4,zero,80d154 <__muldf3+0x654>
  80d138:	910003cc 	andi	r4,r18,15
  80d13c:	01400104 	movi	r5,4
  80d140:	21400426 	beq	r4,r5,80d154 <__muldf3+0x654>
  80d144:	9149883a 	add	r4,r18,r5
  80d148:	24a5803a 	cmpltu	r18,r4,r18
  80d14c:	8ca3883a 	add	r17,r17,r18
  80d150:	2025883a 	mov	r18,r4
  80d154:	8900402c 	andhi	r4,r17,256
  80d158:	20000426 	beq	r4,zero,80d16c <__muldf3+0x66c>
  80d15c:	18810004 	addi	r2,r3,1024
  80d160:	00ffc034 	movhi	r3,65280
  80d164:	18ffffc4 	addi	r3,r3,-1
  80d168:	88e2703a 	and	r17,r17,r3
  80d16c:	00c1ff84 	movi	r3,2046
  80d170:	18bf1316 	blt	r3,r2,80cdc0 <__alt_data_end+0xff80cdc0>
  80d174:	882c977a 	slli	r22,r17,29
  80d178:	9024d0fa 	srli	r18,r18,3
  80d17c:	8822927a 	slli	r17,r17,9
  80d180:	1081ffcc 	andi	r2,r2,2047
  80d184:	b4acb03a 	or	r22,r22,r18
  80d188:	8820d33a 	srli	r16,r17,12
  80d18c:	3027883a 	mov	r19,r6
  80d190:	003eba06 	br	80cc7c <__alt_data_end+0xff80cc7c>
  80d194:	8080022c 	andhi	r2,r16,8
  80d198:	10000926 	beq	r2,zero,80d1c0 <__muldf3+0x6c0>
  80d19c:	8880022c 	andhi	r2,r17,8
  80d1a0:	1000071e 	bne	r2,zero,80d1c0 <__muldf3+0x6c0>
  80d1a4:	00800434 	movhi	r2,16
  80d1a8:	8c000234 	orhi	r16,r17,8
  80d1ac:	10bfffc4 	addi	r2,r2,-1
  80d1b0:	e027883a 	mov	r19,fp
  80d1b4:	80a0703a 	and	r16,r16,r2
  80d1b8:	902d883a 	mov	r22,r18
  80d1bc:	003f1706 	br	80ce1c <__alt_data_end+0xff80ce1c>
  80d1c0:	00800434 	movhi	r2,16
  80d1c4:	84000234 	orhi	r16,r16,8
  80d1c8:	10bfffc4 	addi	r2,r2,-1
  80d1cc:	80a0703a 	and	r16,r16,r2
  80d1d0:	003f1206 	br	80ce1c <__alt_data_end+0xff80ce1c>
  80d1d4:	147ff604 	addi	r17,r2,-40
  80d1d8:	3462983a 	sll	r17,r6,r17
  80d1dc:	0025883a 	mov	r18,zero
  80d1e0:	003ef306 	br	80cdb0 <__alt_data_end+0xff80cdb0>
  80d1e4:	3009883a 	mov	r4,r6
  80d1e8:	d9400215 	stw	r5,8(sp)
  80d1ec:	d9800715 	stw	r6,28(sp)
  80d1f0:	da400415 	stw	r9,16(sp)
  80d1f4:	da800315 	stw	r10,12(sp)
  80d1f8:	08010280 	call	801028 <__clzsi2>
  80d1fc:	10800804 	addi	r2,r2,32
  80d200:	da800317 	ldw	r10,12(sp)
  80d204:	da400417 	ldw	r9,16(sp)
  80d208:	d9800717 	ldw	r6,28(sp)
  80d20c:	d9400217 	ldw	r5,8(sp)
  80d210:	003edd06 	br	80cd88 <__alt_data_end+0xff80cd88>
  80d214:	143ff604 	addi	r16,r2,-40
  80d218:	ac20983a 	sll	r16,r21,r16
  80d21c:	002d883a 	mov	r22,zero
  80d220:	003ec106 	br	80cd28 <__alt_data_end+0xff80cd28>
  80d224:	d9800715 	stw	r6,28(sp)
  80d228:	d9c00215 	stw	r7,8(sp)
  80d22c:	da400415 	stw	r9,16(sp)
  80d230:	08010280 	call	801028 <__clzsi2>
  80d234:	10800804 	addi	r2,r2,32
  80d238:	da400417 	ldw	r9,16(sp)
  80d23c:	d9c00217 	ldw	r7,8(sp)
  80d240:	d9800717 	ldw	r6,28(sp)
  80d244:	003eae06 	br	80cd00 <__alt_data_end+0xff80cd00>
  80d248:	00c00044 	movi	r3,1
  80d24c:	1887c83a 	sub	r3,r3,r2
  80d250:	01000e04 	movi	r4,56
  80d254:	20fe8516 	blt	r4,r3,80cc6c <__alt_data_end+0xff80cc6c>
  80d258:	010007c4 	movi	r4,31
  80d25c:	20c01b16 	blt	r4,r3,80d2cc <__muldf3+0x7cc>
  80d260:	00800804 	movi	r2,32
  80d264:	10c5c83a 	sub	r2,r2,r3
  80d268:	888a983a 	sll	r5,r17,r2
  80d26c:	90c8d83a 	srl	r4,r18,r3
  80d270:	9084983a 	sll	r2,r18,r2
  80d274:	88e2d83a 	srl	r17,r17,r3
  80d278:	2906b03a 	or	r3,r5,r4
  80d27c:	1004c03a 	cmpne	r2,r2,zero
  80d280:	1886b03a 	or	r3,r3,r2
  80d284:	188001cc 	andi	r2,r3,7
  80d288:	10000726 	beq	r2,zero,80d2a8 <__muldf3+0x7a8>
  80d28c:	188003cc 	andi	r2,r3,15
  80d290:	01000104 	movi	r4,4
  80d294:	11000426 	beq	r2,r4,80d2a8 <__muldf3+0x7a8>
  80d298:	1805883a 	mov	r2,r3
  80d29c:	10c00104 	addi	r3,r2,4
  80d2a0:	1885803a 	cmpltu	r2,r3,r2
  80d2a4:	88a3883a 	add	r17,r17,r2
  80d2a8:	8880202c 	andhi	r2,r17,128
  80d2ac:	10001c26 	beq	r2,zero,80d320 <__muldf3+0x820>
  80d2b0:	3027883a 	mov	r19,r6
  80d2b4:	00800044 	movi	r2,1
  80d2b8:	0021883a 	mov	r16,zero
  80d2bc:	002d883a 	mov	r22,zero
  80d2c0:	003e6e06 	br	80cc7c <__alt_data_end+0xff80cc7c>
  80d2c4:	4007883a 	mov	r3,r8
  80d2c8:	003f9706 	br	80d128 <__alt_data_end+0xff80d128>
  80d2cc:	017ff844 	movi	r5,-31
  80d2d0:	2885c83a 	sub	r2,r5,r2
  80d2d4:	888ad83a 	srl	r5,r17,r2
  80d2d8:	00800804 	movi	r2,32
  80d2dc:	18801a26 	beq	r3,r2,80d348 <__muldf3+0x848>
  80d2e0:	01001004 	movi	r4,64
  80d2e4:	20c7c83a 	sub	r3,r4,r3
  80d2e8:	88e2983a 	sll	r17,r17,r3
  80d2ec:	8ca4b03a 	or	r18,r17,r18
  80d2f0:	9004c03a 	cmpne	r2,r18,zero
  80d2f4:	2884b03a 	or	r2,r5,r2
  80d2f8:	144001cc 	andi	r17,r2,7
  80d2fc:	88000d1e 	bne	r17,zero,80d334 <__muldf3+0x834>
  80d300:	0021883a 	mov	r16,zero
  80d304:	102cd0fa 	srli	r22,r2,3
  80d308:	3027883a 	mov	r19,r6
  80d30c:	0005883a 	mov	r2,zero
  80d310:	b46cb03a 	or	r22,r22,r17
  80d314:	003e5906 	br	80cc7c <__alt_data_end+0xff80cc7c>
  80d318:	1007883a 	mov	r3,r2
  80d31c:	0023883a 	mov	r17,zero
  80d320:	8820927a 	slli	r16,r17,9
  80d324:	1805883a 	mov	r2,r3
  80d328:	8822977a 	slli	r17,r17,29
  80d32c:	8020d33a 	srli	r16,r16,12
  80d330:	003ff406 	br	80d304 <__alt_data_end+0xff80d304>
  80d334:	10c003cc 	andi	r3,r2,15
  80d338:	01000104 	movi	r4,4
  80d33c:	193ff626 	beq	r3,r4,80d318 <__alt_data_end+0xff80d318>
  80d340:	0023883a 	mov	r17,zero
  80d344:	003fd506 	br	80d29c <__alt_data_end+0xff80d29c>
  80d348:	0023883a 	mov	r17,zero
  80d34c:	003fe706 	br	80d2ec <__alt_data_end+0xff80d2ec>
  80d350:	00800434 	movhi	r2,16
  80d354:	8c000234 	orhi	r16,r17,8
  80d358:	10bfffc4 	addi	r2,r2,-1
  80d35c:	3027883a 	mov	r19,r6
  80d360:	80a0703a 	and	r16,r16,r2
  80d364:	902d883a 	mov	r22,r18
  80d368:	003eac06 	br	80ce1c <__alt_data_end+0xff80ce1c>

0080d36c <__subdf3>:
  80d36c:	02000434 	movhi	r8,16
  80d370:	423fffc4 	addi	r8,r8,-1
  80d374:	defffb04 	addi	sp,sp,-20
  80d378:	2a14703a 	and	r10,r5,r8
  80d37c:	3812d53a 	srli	r9,r7,20
  80d380:	3a10703a 	and	r8,r7,r8
  80d384:	2006d77a 	srli	r3,r4,29
  80d388:	3004d77a 	srli	r2,r6,29
  80d38c:	dc000015 	stw	r16,0(sp)
  80d390:	501490fa 	slli	r10,r10,3
  80d394:	2820d53a 	srli	r16,r5,20
  80d398:	401090fa 	slli	r8,r8,3
  80d39c:	dc800215 	stw	r18,8(sp)
  80d3a0:	dc400115 	stw	r17,4(sp)
  80d3a4:	dfc00415 	stw	ra,16(sp)
  80d3a8:	202290fa 	slli	r17,r4,3
  80d3ac:	dcc00315 	stw	r19,12(sp)
  80d3b0:	4a41ffcc 	andi	r9,r9,2047
  80d3b4:	0101ffc4 	movi	r4,2047
  80d3b8:	2824d7fa 	srli	r18,r5,31
  80d3bc:	8401ffcc 	andi	r16,r16,2047
  80d3c0:	50c6b03a 	or	r3,r10,r3
  80d3c4:	380ed7fa 	srli	r7,r7,31
  80d3c8:	408ab03a 	or	r5,r8,r2
  80d3cc:	300c90fa 	slli	r6,r6,3
  80d3d0:	49009626 	beq	r9,r4,80d62c <__subdf3+0x2c0>
  80d3d4:	39c0005c 	xori	r7,r7,1
  80d3d8:	8245c83a 	sub	r2,r16,r9
  80d3dc:	3c807426 	beq	r7,r18,80d5b0 <__subdf3+0x244>
  80d3e0:	0080af0e 	bge	zero,r2,80d6a0 <__subdf3+0x334>
  80d3e4:	48002a1e 	bne	r9,zero,80d490 <__subdf3+0x124>
  80d3e8:	2988b03a 	or	r4,r5,r6
  80d3ec:	20009a1e 	bne	r4,zero,80d658 <__subdf3+0x2ec>
  80d3f0:	888001cc 	andi	r2,r17,7
  80d3f4:	10000726 	beq	r2,zero,80d414 <__subdf3+0xa8>
  80d3f8:	888003cc 	andi	r2,r17,15
  80d3fc:	01000104 	movi	r4,4
  80d400:	11000426 	beq	r2,r4,80d414 <__subdf3+0xa8>
  80d404:	890b883a 	add	r5,r17,r4
  80d408:	2c63803a 	cmpltu	r17,r5,r17
  80d40c:	1c47883a 	add	r3,r3,r17
  80d410:	2823883a 	mov	r17,r5
  80d414:	1880202c 	andhi	r2,r3,128
  80d418:	10005926 	beq	r2,zero,80d580 <__subdf3+0x214>
  80d41c:	84000044 	addi	r16,r16,1
  80d420:	0081ffc4 	movi	r2,2047
  80d424:	8080be26 	beq	r16,r2,80d720 <__subdf3+0x3b4>
  80d428:	017fe034 	movhi	r5,65408
  80d42c:	297fffc4 	addi	r5,r5,-1
  80d430:	1946703a 	and	r3,r3,r5
  80d434:	1804977a 	slli	r2,r3,29
  80d438:	1806927a 	slli	r3,r3,9
  80d43c:	8822d0fa 	srli	r17,r17,3
  80d440:	8401ffcc 	andi	r16,r16,2047
  80d444:	180ad33a 	srli	r5,r3,12
  80d448:	9100004c 	andi	r4,r18,1
  80d44c:	1444b03a 	or	r2,r2,r17
  80d450:	80c1ffcc 	andi	r3,r16,2047
  80d454:	1820953a 	slli	r16,r3,20
  80d458:	20c03fcc 	andi	r3,r4,255
  80d45c:	180897fa 	slli	r4,r3,31
  80d460:	00c00434 	movhi	r3,16
  80d464:	18ffffc4 	addi	r3,r3,-1
  80d468:	28c6703a 	and	r3,r5,r3
  80d46c:	1c06b03a 	or	r3,r3,r16
  80d470:	1906b03a 	or	r3,r3,r4
  80d474:	dfc00417 	ldw	ra,16(sp)
  80d478:	dcc00317 	ldw	r19,12(sp)
  80d47c:	dc800217 	ldw	r18,8(sp)
  80d480:	dc400117 	ldw	r17,4(sp)
  80d484:	dc000017 	ldw	r16,0(sp)
  80d488:	dec00504 	addi	sp,sp,20
  80d48c:	f800283a 	ret
  80d490:	0101ffc4 	movi	r4,2047
  80d494:	813fd626 	beq	r16,r4,80d3f0 <__alt_data_end+0xff80d3f0>
  80d498:	29402034 	orhi	r5,r5,128
  80d49c:	01000e04 	movi	r4,56
  80d4a0:	2080a316 	blt	r4,r2,80d730 <__subdf3+0x3c4>
  80d4a4:	010007c4 	movi	r4,31
  80d4a8:	2080c616 	blt	r4,r2,80d7c4 <__subdf3+0x458>
  80d4ac:	01000804 	movi	r4,32
  80d4b0:	2089c83a 	sub	r4,r4,r2
  80d4b4:	2910983a 	sll	r8,r5,r4
  80d4b8:	308ed83a 	srl	r7,r6,r2
  80d4bc:	3108983a 	sll	r4,r6,r4
  80d4c0:	2884d83a 	srl	r2,r5,r2
  80d4c4:	41ccb03a 	or	r6,r8,r7
  80d4c8:	2008c03a 	cmpne	r4,r4,zero
  80d4cc:	310cb03a 	or	r6,r6,r4
  80d4d0:	898dc83a 	sub	r6,r17,r6
  80d4d4:	89a3803a 	cmpltu	r17,r17,r6
  80d4d8:	1887c83a 	sub	r3,r3,r2
  80d4dc:	1c47c83a 	sub	r3,r3,r17
  80d4e0:	3023883a 	mov	r17,r6
  80d4e4:	1880202c 	andhi	r2,r3,128
  80d4e8:	10002326 	beq	r2,zero,80d578 <__subdf3+0x20c>
  80d4ec:	04c02034 	movhi	r19,128
  80d4f0:	9cffffc4 	addi	r19,r19,-1
  80d4f4:	1ce6703a 	and	r19,r3,r19
  80d4f8:	98007a26 	beq	r19,zero,80d6e4 <__subdf3+0x378>
  80d4fc:	9809883a 	mov	r4,r19
  80d500:	08010280 	call	801028 <__clzsi2>
  80d504:	113ffe04 	addi	r4,r2,-8
  80d508:	00c007c4 	movi	r3,31
  80d50c:	19007b16 	blt	r3,r4,80d6fc <__subdf3+0x390>
  80d510:	00800804 	movi	r2,32
  80d514:	1105c83a 	sub	r2,r2,r4
  80d518:	8884d83a 	srl	r2,r17,r2
  80d51c:	9906983a 	sll	r3,r19,r4
  80d520:	8922983a 	sll	r17,r17,r4
  80d524:	10c4b03a 	or	r2,r2,r3
  80d528:	24007816 	blt	r4,r16,80d70c <__subdf3+0x3a0>
  80d52c:	2421c83a 	sub	r16,r4,r16
  80d530:	80c00044 	addi	r3,r16,1
  80d534:	010007c4 	movi	r4,31
  80d538:	20c09516 	blt	r4,r3,80d790 <__subdf3+0x424>
  80d53c:	01400804 	movi	r5,32
  80d540:	28cbc83a 	sub	r5,r5,r3
  80d544:	88c8d83a 	srl	r4,r17,r3
  80d548:	8962983a 	sll	r17,r17,r5
  80d54c:	114a983a 	sll	r5,r2,r5
  80d550:	10c6d83a 	srl	r3,r2,r3
  80d554:	8804c03a 	cmpne	r2,r17,zero
  80d558:	290ab03a 	or	r5,r5,r4
  80d55c:	28a2b03a 	or	r17,r5,r2
  80d560:	0021883a 	mov	r16,zero
  80d564:	003fa206 	br	80d3f0 <__alt_data_end+0xff80d3f0>
  80d568:	2090b03a 	or	r8,r4,r2
  80d56c:	40018e26 	beq	r8,zero,80dba8 <__subdf3+0x83c>
  80d570:	1007883a 	mov	r3,r2
  80d574:	2023883a 	mov	r17,r4
  80d578:	888001cc 	andi	r2,r17,7
  80d57c:	103f9e1e 	bne	r2,zero,80d3f8 <__alt_data_end+0xff80d3f8>
  80d580:	1804977a 	slli	r2,r3,29
  80d584:	8822d0fa 	srli	r17,r17,3
  80d588:	1810d0fa 	srli	r8,r3,3
  80d58c:	9100004c 	andi	r4,r18,1
  80d590:	1444b03a 	or	r2,r2,r17
  80d594:	00c1ffc4 	movi	r3,2047
  80d598:	80c02826 	beq	r16,r3,80d63c <__subdf3+0x2d0>
  80d59c:	01400434 	movhi	r5,16
  80d5a0:	297fffc4 	addi	r5,r5,-1
  80d5a4:	80e0703a 	and	r16,r16,r3
  80d5a8:	414a703a 	and	r5,r8,r5
  80d5ac:	003fa806 	br	80d450 <__alt_data_end+0xff80d450>
  80d5b0:	0080630e 	bge	zero,r2,80d740 <__subdf3+0x3d4>
  80d5b4:	48003026 	beq	r9,zero,80d678 <__subdf3+0x30c>
  80d5b8:	0101ffc4 	movi	r4,2047
  80d5bc:	813f8c26 	beq	r16,r4,80d3f0 <__alt_data_end+0xff80d3f0>
  80d5c0:	29402034 	orhi	r5,r5,128
  80d5c4:	01000e04 	movi	r4,56
  80d5c8:	2080a90e 	bge	r4,r2,80d870 <__subdf3+0x504>
  80d5cc:	298cb03a 	or	r6,r5,r6
  80d5d0:	3012c03a 	cmpne	r9,r6,zero
  80d5d4:	0005883a 	mov	r2,zero
  80d5d8:	4c53883a 	add	r9,r9,r17
  80d5dc:	4c63803a 	cmpltu	r17,r9,r17
  80d5e0:	10c7883a 	add	r3,r2,r3
  80d5e4:	88c7883a 	add	r3,r17,r3
  80d5e8:	4823883a 	mov	r17,r9
  80d5ec:	1880202c 	andhi	r2,r3,128
  80d5f0:	1000d026 	beq	r2,zero,80d934 <__subdf3+0x5c8>
  80d5f4:	84000044 	addi	r16,r16,1
  80d5f8:	0081ffc4 	movi	r2,2047
  80d5fc:	8080fe26 	beq	r16,r2,80d9f8 <__subdf3+0x68c>
  80d600:	00bfe034 	movhi	r2,65408
  80d604:	10bfffc4 	addi	r2,r2,-1
  80d608:	1886703a 	and	r3,r3,r2
  80d60c:	880ad07a 	srli	r5,r17,1
  80d610:	180497fa 	slli	r2,r3,31
  80d614:	8900004c 	andi	r4,r17,1
  80d618:	2922b03a 	or	r17,r5,r4
  80d61c:	1806d07a 	srli	r3,r3,1
  80d620:	1462b03a 	or	r17,r2,r17
  80d624:	3825883a 	mov	r18,r7
  80d628:	003f7106 	br	80d3f0 <__alt_data_end+0xff80d3f0>
  80d62c:	2984b03a 	or	r2,r5,r6
  80d630:	103f6826 	beq	r2,zero,80d3d4 <__alt_data_end+0xff80d3d4>
  80d634:	39c03fcc 	andi	r7,r7,255
  80d638:	003f6706 	br	80d3d8 <__alt_data_end+0xff80d3d8>
  80d63c:	4086b03a 	or	r3,r8,r2
  80d640:	18015226 	beq	r3,zero,80db8c <__subdf3+0x820>
  80d644:	00c00434 	movhi	r3,16
  80d648:	41400234 	orhi	r5,r8,8
  80d64c:	18ffffc4 	addi	r3,r3,-1
  80d650:	28ca703a 	and	r5,r5,r3
  80d654:	003f7e06 	br	80d450 <__alt_data_end+0xff80d450>
  80d658:	10bfffc4 	addi	r2,r2,-1
  80d65c:	1000491e 	bne	r2,zero,80d784 <__subdf3+0x418>
  80d660:	898fc83a 	sub	r7,r17,r6
  80d664:	89e3803a 	cmpltu	r17,r17,r7
  80d668:	1947c83a 	sub	r3,r3,r5
  80d66c:	1c47c83a 	sub	r3,r3,r17
  80d670:	3823883a 	mov	r17,r7
  80d674:	003f9b06 	br	80d4e4 <__alt_data_end+0xff80d4e4>
  80d678:	2988b03a 	or	r4,r5,r6
  80d67c:	203f5c26 	beq	r4,zero,80d3f0 <__alt_data_end+0xff80d3f0>
  80d680:	10bfffc4 	addi	r2,r2,-1
  80d684:	1000931e 	bne	r2,zero,80d8d4 <__subdf3+0x568>
  80d688:	898d883a 	add	r6,r17,r6
  80d68c:	3463803a 	cmpltu	r17,r6,r17
  80d690:	1947883a 	add	r3,r3,r5
  80d694:	88c7883a 	add	r3,r17,r3
  80d698:	3023883a 	mov	r17,r6
  80d69c:	003fd306 	br	80d5ec <__alt_data_end+0xff80d5ec>
  80d6a0:	1000541e 	bne	r2,zero,80d7f4 <__subdf3+0x488>
  80d6a4:	80800044 	addi	r2,r16,1
  80d6a8:	1081ffcc 	andi	r2,r2,2047
  80d6ac:	01000044 	movi	r4,1
  80d6b0:	2080a20e 	bge	r4,r2,80d93c <__subdf3+0x5d0>
  80d6b4:	8989c83a 	sub	r4,r17,r6
  80d6b8:	8905803a 	cmpltu	r2,r17,r4
  80d6bc:	1967c83a 	sub	r19,r3,r5
  80d6c0:	98a7c83a 	sub	r19,r19,r2
  80d6c4:	9880202c 	andhi	r2,r19,128
  80d6c8:	10006326 	beq	r2,zero,80d858 <__subdf3+0x4ec>
  80d6cc:	3463c83a 	sub	r17,r6,r17
  80d6d0:	28c7c83a 	sub	r3,r5,r3
  80d6d4:	344d803a 	cmpltu	r6,r6,r17
  80d6d8:	19a7c83a 	sub	r19,r3,r6
  80d6dc:	3825883a 	mov	r18,r7
  80d6e0:	983f861e 	bne	r19,zero,80d4fc <__alt_data_end+0xff80d4fc>
  80d6e4:	8809883a 	mov	r4,r17
  80d6e8:	08010280 	call	801028 <__clzsi2>
  80d6ec:	10800804 	addi	r2,r2,32
  80d6f0:	113ffe04 	addi	r4,r2,-8
  80d6f4:	00c007c4 	movi	r3,31
  80d6f8:	193f850e 	bge	r3,r4,80d510 <__alt_data_end+0xff80d510>
  80d6fc:	10bff604 	addi	r2,r2,-40
  80d700:	8884983a 	sll	r2,r17,r2
  80d704:	0023883a 	mov	r17,zero
  80d708:	243f880e 	bge	r4,r16,80d52c <__alt_data_end+0xff80d52c>
  80d70c:	00ffe034 	movhi	r3,65408
  80d710:	18ffffc4 	addi	r3,r3,-1
  80d714:	8121c83a 	sub	r16,r16,r4
  80d718:	10c6703a 	and	r3,r2,r3
  80d71c:	003f3406 	br	80d3f0 <__alt_data_end+0xff80d3f0>
  80d720:	9100004c 	andi	r4,r18,1
  80d724:	000b883a 	mov	r5,zero
  80d728:	0005883a 	mov	r2,zero
  80d72c:	003f4806 	br	80d450 <__alt_data_end+0xff80d450>
  80d730:	298cb03a 	or	r6,r5,r6
  80d734:	300cc03a 	cmpne	r6,r6,zero
  80d738:	0005883a 	mov	r2,zero
  80d73c:	003f6406 	br	80d4d0 <__alt_data_end+0xff80d4d0>
  80d740:	10009a1e 	bne	r2,zero,80d9ac <__subdf3+0x640>
  80d744:	82400044 	addi	r9,r16,1
  80d748:	4881ffcc 	andi	r2,r9,2047
  80d74c:	02800044 	movi	r10,1
  80d750:	5080670e 	bge	r10,r2,80d8f0 <__subdf3+0x584>
  80d754:	0081ffc4 	movi	r2,2047
  80d758:	4880af26 	beq	r9,r2,80da18 <__subdf3+0x6ac>
  80d75c:	898d883a 	add	r6,r17,r6
  80d760:	1945883a 	add	r2,r3,r5
  80d764:	3447803a 	cmpltu	r3,r6,r17
  80d768:	1887883a 	add	r3,r3,r2
  80d76c:	182297fa 	slli	r17,r3,31
  80d770:	300cd07a 	srli	r6,r6,1
  80d774:	1806d07a 	srli	r3,r3,1
  80d778:	4821883a 	mov	r16,r9
  80d77c:	89a2b03a 	or	r17,r17,r6
  80d780:	003f1b06 	br	80d3f0 <__alt_data_end+0xff80d3f0>
  80d784:	0101ffc4 	movi	r4,2047
  80d788:	813f441e 	bne	r16,r4,80d49c <__alt_data_end+0xff80d49c>
  80d78c:	003f1806 	br	80d3f0 <__alt_data_end+0xff80d3f0>
  80d790:	843ff844 	addi	r16,r16,-31
  80d794:	01400804 	movi	r5,32
  80d798:	1408d83a 	srl	r4,r2,r16
  80d79c:	19405026 	beq	r3,r5,80d8e0 <__subdf3+0x574>
  80d7a0:	01401004 	movi	r5,64
  80d7a4:	28c7c83a 	sub	r3,r5,r3
  80d7a8:	10c4983a 	sll	r2,r2,r3
  80d7ac:	88a2b03a 	or	r17,r17,r2
  80d7b0:	8822c03a 	cmpne	r17,r17,zero
  80d7b4:	2462b03a 	or	r17,r4,r17
  80d7b8:	0007883a 	mov	r3,zero
  80d7bc:	0021883a 	mov	r16,zero
  80d7c0:	003f6d06 	br	80d578 <__alt_data_end+0xff80d578>
  80d7c4:	11fff804 	addi	r7,r2,-32
  80d7c8:	01000804 	movi	r4,32
  80d7cc:	29ced83a 	srl	r7,r5,r7
  80d7d0:	11004526 	beq	r2,r4,80d8e8 <__subdf3+0x57c>
  80d7d4:	01001004 	movi	r4,64
  80d7d8:	2089c83a 	sub	r4,r4,r2
  80d7dc:	2904983a 	sll	r2,r5,r4
  80d7e0:	118cb03a 	or	r6,r2,r6
  80d7e4:	300cc03a 	cmpne	r6,r6,zero
  80d7e8:	398cb03a 	or	r6,r7,r6
  80d7ec:	0005883a 	mov	r2,zero
  80d7f0:	003f3706 	br	80d4d0 <__alt_data_end+0xff80d4d0>
  80d7f4:	80002a26 	beq	r16,zero,80d8a0 <__subdf3+0x534>
  80d7f8:	0101ffc4 	movi	r4,2047
  80d7fc:	49006626 	beq	r9,r4,80d998 <__subdf3+0x62c>
  80d800:	0085c83a 	sub	r2,zero,r2
  80d804:	18c02034 	orhi	r3,r3,128
  80d808:	01000e04 	movi	r4,56
  80d80c:	20807e16 	blt	r4,r2,80da08 <__subdf3+0x69c>
  80d810:	010007c4 	movi	r4,31
  80d814:	2080e716 	blt	r4,r2,80dbb4 <__subdf3+0x848>
  80d818:	01000804 	movi	r4,32
  80d81c:	2089c83a 	sub	r4,r4,r2
  80d820:	1914983a 	sll	r10,r3,r4
  80d824:	8890d83a 	srl	r8,r17,r2
  80d828:	8908983a 	sll	r4,r17,r4
  80d82c:	1884d83a 	srl	r2,r3,r2
  80d830:	5222b03a 	or	r17,r10,r8
  80d834:	2006c03a 	cmpne	r3,r4,zero
  80d838:	88e2b03a 	or	r17,r17,r3
  80d83c:	3463c83a 	sub	r17,r6,r17
  80d840:	2885c83a 	sub	r2,r5,r2
  80d844:	344d803a 	cmpltu	r6,r6,r17
  80d848:	1187c83a 	sub	r3,r2,r6
  80d84c:	4821883a 	mov	r16,r9
  80d850:	3825883a 	mov	r18,r7
  80d854:	003f2306 	br	80d4e4 <__alt_data_end+0xff80d4e4>
  80d858:	24d0b03a 	or	r8,r4,r19
  80d85c:	40001b1e 	bne	r8,zero,80d8cc <__subdf3+0x560>
  80d860:	0005883a 	mov	r2,zero
  80d864:	0009883a 	mov	r4,zero
  80d868:	0021883a 	mov	r16,zero
  80d86c:	003f4906 	br	80d594 <__alt_data_end+0xff80d594>
  80d870:	010007c4 	movi	r4,31
  80d874:	20803a16 	blt	r4,r2,80d960 <__subdf3+0x5f4>
  80d878:	01000804 	movi	r4,32
  80d87c:	2089c83a 	sub	r4,r4,r2
  80d880:	2912983a 	sll	r9,r5,r4
  80d884:	3090d83a 	srl	r8,r6,r2
  80d888:	3108983a 	sll	r4,r6,r4
  80d88c:	2884d83a 	srl	r2,r5,r2
  80d890:	4a12b03a 	or	r9,r9,r8
  80d894:	2008c03a 	cmpne	r4,r4,zero
  80d898:	4912b03a 	or	r9,r9,r4
  80d89c:	003f4e06 	br	80d5d8 <__alt_data_end+0xff80d5d8>
  80d8a0:	1c48b03a 	or	r4,r3,r17
  80d8a4:	20003c26 	beq	r4,zero,80d998 <__subdf3+0x62c>
  80d8a8:	0084303a 	nor	r2,zero,r2
  80d8ac:	1000381e 	bne	r2,zero,80d990 <__subdf3+0x624>
  80d8b0:	3463c83a 	sub	r17,r6,r17
  80d8b4:	28c5c83a 	sub	r2,r5,r3
  80d8b8:	344d803a 	cmpltu	r6,r6,r17
  80d8bc:	1187c83a 	sub	r3,r2,r6
  80d8c0:	4821883a 	mov	r16,r9
  80d8c4:	3825883a 	mov	r18,r7
  80d8c8:	003f0606 	br	80d4e4 <__alt_data_end+0xff80d4e4>
  80d8cc:	2023883a 	mov	r17,r4
  80d8d0:	003f0906 	br	80d4f8 <__alt_data_end+0xff80d4f8>
  80d8d4:	0101ffc4 	movi	r4,2047
  80d8d8:	813f3a1e 	bne	r16,r4,80d5c4 <__alt_data_end+0xff80d5c4>
  80d8dc:	003ec406 	br	80d3f0 <__alt_data_end+0xff80d3f0>
  80d8e0:	0005883a 	mov	r2,zero
  80d8e4:	003fb106 	br	80d7ac <__alt_data_end+0xff80d7ac>
  80d8e8:	0005883a 	mov	r2,zero
  80d8ec:	003fbc06 	br	80d7e0 <__alt_data_end+0xff80d7e0>
  80d8f0:	1c44b03a 	or	r2,r3,r17
  80d8f4:	80008e1e 	bne	r16,zero,80db30 <__subdf3+0x7c4>
  80d8f8:	1000c826 	beq	r2,zero,80dc1c <__subdf3+0x8b0>
  80d8fc:	2984b03a 	or	r2,r5,r6
  80d900:	103ebb26 	beq	r2,zero,80d3f0 <__alt_data_end+0xff80d3f0>
  80d904:	8989883a 	add	r4,r17,r6
  80d908:	1945883a 	add	r2,r3,r5
  80d90c:	2447803a 	cmpltu	r3,r4,r17
  80d910:	1887883a 	add	r3,r3,r2
  80d914:	1880202c 	andhi	r2,r3,128
  80d918:	2023883a 	mov	r17,r4
  80d91c:	103f1626 	beq	r2,zero,80d578 <__alt_data_end+0xff80d578>
  80d920:	00bfe034 	movhi	r2,65408
  80d924:	10bfffc4 	addi	r2,r2,-1
  80d928:	5021883a 	mov	r16,r10
  80d92c:	1886703a 	and	r3,r3,r2
  80d930:	003eaf06 	br	80d3f0 <__alt_data_end+0xff80d3f0>
  80d934:	3825883a 	mov	r18,r7
  80d938:	003f0f06 	br	80d578 <__alt_data_end+0xff80d578>
  80d93c:	1c44b03a 	or	r2,r3,r17
  80d940:	8000251e 	bne	r16,zero,80d9d8 <__subdf3+0x66c>
  80d944:	1000661e 	bne	r2,zero,80dae0 <__subdf3+0x774>
  80d948:	2990b03a 	or	r8,r5,r6
  80d94c:	40009626 	beq	r8,zero,80dba8 <__subdf3+0x83c>
  80d950:	2807883a 	mov	r3,r5
  80d954:	3023883a 	mov	r17,r6
  80d958:	3825883a 	mov	r18,r7
  80d95c:	003ea406 	br	80d3f0 <__alt_data_end+0xff80d3f0>
  80d960:	127ff804 	addi	r9,r2,-32
  80d964:	01000804 	movi	r4,32
  80d968:	2a52d83a 	srl	r9,r5,r9
  80d96c:	11008c26 	beq	r2,r4,80dba0 <__subdf3+0x834>
  80d970:	01001004 	movi	r4,64
  80d974:	2085c83a 	sub	r2,r4,r2
  80d978:	2884983a 	sll	r2,r5,r2
  80d97c:	118cb03a 	or	r6,r2,r6
  80d980:	300cc03a 	cmpne	r6,r6,zero
  80d984:	4992b03a 	or	r9,r9,r6
  80d988:	0005883a 	mov	r2,zero
  80d98c:	003f1206 	br	80d5d8 <__alt_data_end+0xff80d5d8>
  80d990:	0101ffc4 	movi	r4,2047
  80d994:	493f9c1e 	bne	r9,r4,80d808 <__alt_data_end+0xff80d808>
  80d998:	2807883a 	mov	r3,r5
  80d99c:	3023883a 	mov	r17,r6
  80d9a0:	4821883a 	mov	r16,r9
  80d9a4:	3825883a 	mov	r18,r7
  80d9a8:	003e9106 	br	80d3f0 <__alt_data_end+0xff80d3f0>
  80d9ac:	80001f1e 	bne	r16,zero,80da2c <__subdf3+0x6c0>
  80d9b0:	1c48b03a 	or	r4,r3,r17
  80d9b4:	20005a26 	beq	r4,zero,80db20 <__subdf3+0x7b4>
  80d9b8:	0084303a 	nor	r2,zero,r2
  80d9bc:	1000561e 	bne	r2,zero,80db18 <__subdf3+0x7ac>
  80d9c0:	89a3883a 	add	r17,r17,r6
  80d9c4:	1945883a 	add	r2,r3,r5
  80d9c8:	898d803a 	cmpltu	r6,r17,r6
  80d9cc:	3087883a 	add	r3,r6,r2
  80d9d0:	4821883a 	mov	r16,r9
  80d9d4:	003f0506 	br	80d5ec <__alt_data_end+0xff80d5ec>
  80d9d8:	10002b1e 	bne	r2,zero,80da88 <__subdf3+0x71c>
  80d9dc:	2984b03a 	or	r2,r5,r6
  80d9e0:	10008026 	beq	r2,zero,80dbe4 <__subdf3+0x878>
  80d9e4:	2807883a 	mov	r3,r5
  80d9e8:	3023883a 	mov	r17,r6
  80d9ec:	3825883a 	mov	r18,r7
  80d9f0:	0401ffc4 	movi	r16,2047
  80d9f4:	003e7e06 	br	80d3f0 <__alt_data_end+0xff80d3f0>
  80d9f8:	3809883a 	mov	r4,r7
  80d9fc:	0011883a 	mov	r8,zero
  80da00:	0005883a 	mov	r2,zero
  80da04:	003ee306 	br	80d594 <__alt_data_end+0xff80d594>
  80da08:	1c62b03a 	or	r17,r3,r17
  80da0c:	8822c03a 	cmpne	r17,r17,zero
  80da10:	0005883a 	mov	r2,zero
  80da14:	003f8906 	br	80d83c <__alt_data_end+0xff80d83c>
  80da18:	3809883a 	mov	r4,r7
  80da1c:	4821883a 	mov	r16,r9
  80da20:	0011883a 	mov	r8,zero
  80da24:	0005883a 	mov	r2,zero
  80da28:	003eda06 	br	80d594 <__alt_data_end+0xff80d594>
  80da2c:	0101ffc4 	movi	r4,2047
  80da30:	49003b26 	beq	r9,r4,80db20 <__subdf3+0x7b4>
  80da34:	0085c83a 	sub	r2,zero,r2
  80da38:	18c02034 	orhi	r3,r3,128
  80da3c:	01000e04 	movi	r4,56
  80da40:	20806e16 	blt	r4,r2,80dbfc <__subdf3+0x890>
  80da44:	010007c4 	movi	r4,31
  80da48:	20807716 	blt	r4,r2,80dc28 <__subdf3+0x8bc>
  80da4c:	01000804 	movi	r4,32
  80da50:	2089c83a 	sub	r4,r4,r2
  80da54:	1914983a 	sll	r10,r3,r4
  80da58:	8890d83a 	srl	r8,r17,r2
  80da5c:	8908983a 	sll	r4,r17,r4
  80da60:	1884d83a 	srl	r2,r3,r2
  80da64:	5222b03a 	or	r17,r10,r8
  80da68:	2006c03a 	cmpne	r3,r4,zero
  80da6c:	88e2b03a 	or	r17,r17,r3
  80da70:	89a3883a 	add	r17,r17,r6
  80da74:	1145883a 	add	r2,r2,r5
  80da78:	898d803a 	cmpltu	r6,r17,r6
  80da7c:	3087883a 	add	r3,r6,r2
  80da80:	4821883a 	mov	r16,r9
  80da84:	003ed906 	br	80d5ec <__alt_data_end+0xff80d5ec>
  80da88:	2984b03a 	or	r2,r5,r6
  80da8c:	10004226 	beq	r2,zero,80db98 <__subdf3+0x82c>
  80da90:	1808d0fa 	srli	r4,r3,3
  80da94:	8822d0fa 	srli	r17,r17,3
  80da98:	1806977a 	slli	r3,r3,29
  80da9c:	2080022c 	andhi	r2,r4,8
  80daa0:	1c62b03a 	or	r17,r3,r17
  80daa4:	10000826 	beq	r2,zero,80dac8 <__subdf3+0x75c>
  80daa8:	2812d0fa 	srli	r9,r5,3
  80daac:	4880022c 	andhi	r2,r9,8
  80dab0:	1000051e 	bne	r2,zero,80dac8 <__subdf3+0x75c>
  80dab4:	300cd0fa 	srli	r6,r6,3
  80dab8:	2804977a 	slli	r2,r5,29
  80dabc:	4809883a 	mov	r4,r9
  80dac0:	3825883a 	mov	r18,r7
  80dac4:	11a2b03a 	or	r17,r2,r6
  80dac8:	8806d77a 	srli	r3,r17,29
  80dacc:	200890fa 	slli	r4,r4,3
  80dad0:	882290fa 	slli	r17,r17,3
  80dad4:	0401ffc4 	movi	r16,2047
  80dad8:	1906b03a 	or	r3,r3,r4
  80dadc:	003e4406 	br	80d3f0 <__alt_data_end+0xff80d3f0>
  80dae0:	2984b03a 	or	r2,r5,r6
  80dae4:	103e4226 	beq	r2,zero,80d3f0 <__alt_data_end+0xff80d3f0>
  80dae8:	8989c83a 	sub	r4,r17,r6
  80daec:	8911803a 	cmpltu	r8,r17,r4
  80daf0:	1945c83a 	sub	r2,r3,r5
  80daf4:	1205c83a 	sub	r2,r2,r8
  80daf8:	1200202c 	andhi	r8,r2,128
  80dafc:	403e9a26 	beq	r8,zero,80d568 <__alt_data_end+0xff80d568>
  80db00:	3463c83a 	sub	r17,r6,r17
  80db04:	28c5c83a 	sub	r2,r5,r3
  80db08:	344d803a 	cmpltu	r6,r6,r17
  80db0c:	1187c83a 	sub	r3,r2,r6
  80db10:	3825883a 	mov	r18,r7
  80db14:	003e3606 	br	80d3f0 <__alt_data_end+0xff80d3f0>
  80db18:	0101ffc4 	movi	r4,2047
  80db1c:	493fc71e 	bne	r9,r4,80da3c <__alt_data_end+0xff80da3c>
  80db20:	2807883a 	mov	r3,r5
  80db24:	3023883a 	mov	r17,r6
  80db28:	4821883a 	mov	r16,r9
  80db2c:	003e3006 	br	80d3f0 <__alt_data_end+0xff80d3f0>
  80db30:	10003626 	beq	r2,zero,80dc0c <__subdf3+0x8a0>
  80db34:	2984b03a 	or	r2,r5,r6
  80db38:	10001726 	beq	r2,zero,80db98 <__subdf3+0x82c>
  80db3c:	1808d0fa 	srli	r4,r3,3
  80db40:	8822d0fa 	srli	r17,r17,3
  80db44:	1806977a 	slli	r3,r3,29
  80db48:	2080022c 	andhi	r2,r4,8
  80db4c:	1c62b03a 	or	r17,r3,r17
  80db50:	10000726 	beq	r2,zero,80db70 <__subdf3+0x804>
  80db54:	2812d0fa 	srli	r9,r5,3
  80db58:	4880022c 	andhi	r2,r9,8
  80db5c:	1000041e 	bne	r2,zero,80db70 <__subdf3+0x804>
  80db60:	300cd0fa 	srli	r6,r6,3
  80db64:	2804977a 	slli	r2,r5,29
  80db68:	4809883a 	mov	r4,r9
  80db6c:	11a2b03a 	or	r17,r2,r6
  80db70:	8806d77a 	srli	r3,r17,29
  80db74:	200890fa 	slli	r4,r4,3
  80db78:	882290fa 	slli	r17,r17,3
  80db7c:	3825883a 	mov	r18,r7
  80db80:	1906b03a 	or	r3,r3,r4
  80db84:	0401ffc4 	movi	r16,2047
  80db88:	003e1906 	br	80d3f0 <__alt_data_end+0xff80d3f0>
  80db8c:	000b883a 	mov	r5,zero
  80db90:	0005883a 	mov	r2,zero
  80db94:	003e2e06 	br	80d450 <__alt_data_end+0xff80d450>
  80db98:	0401ffc4 	movi	r16,2047
  80db9c:	003e1406 	br	80d3f0 <__alt_data_end+0xff80d3f0>
  80dba0:	0005883a 	mov	r2,zero
  80dba4:	003f7506 	br	80d97c <__alt_data_end+0xff80d97c>
  80dba8:	0005883a 	mov	r2,zero
  80dbac:	0009883a 	mov	r4,zero
  80dbb0:	003e7806 	br	80d594 <__alt_data_end+0xff80d594>
  80dbb4:	123ff804 	addi	r8,r2,-32
  80dbb8:	01000804 	movi	r4,32
  80dbbc:	1a10d83a 	srl	r8,r3,r8
  80dbc0:	11002526 	beq	r2,r4,80dc58 <__subdf3+0x8ec>
  80dbc4:	01001004 	movi	r4,64
  80dbc8:	2085c83a 	sub	r2,r4,r2
  80dbcc:	1884983a 	sll	r2,r3,r2
  80dbd0:	1444b03a 	or	r2,r2,r17
  80dbd4:	1004c03a 	cmpne	r2,r2,zero
  80dbd8:	40a2b03a 	or	r17,r8,r2
  80dbdc:	0005883a 	mov	r2,zero
  80dbe0:	003f1606 	br	80d83c <__alt_data_end+0xff80d83c>
  80dbe4:	02000434 	movhi	r8,16
  80dbe8:	0009883a 	mov	r4,zero
  80dbec:	423fffc4 	addi	r8,r8,-1
  80dbf0:	00bfffc4 	movi	r2,-1
  80dbf4:	0401ffc4 	movi	r16,2047
  80dbf8:	003e6606 	br	80d594 <__alt_data_end+0xff80d594>
  80dbfc:	1c62b03a 	or	r17,r3,r17
  80dc00:	8822c03a 	cmpne	r17,r17,zero
  80dc04:	0005883a 	mov	r2,zero
  80dc08:	003f9906 	br	80da70 <__alt_data_end+0xff80da70>
  80dc0c:	2807883a 	mov	r3,r5
  80dc10:	3023883a 	mov	r17,r6
  80dc14:	0401ffc4 	movi	r16,2047
  80dc18:	003df506 	br	80d3f0 <__alt_data_end+0xff80d3f0>
  80dc1c:	2807883a 	mov	r3,r5
  80dc20:	3023883a 	mov	r17,r6
  80dc24:	003df206 	br	80d3f0 <__alt_data_end+0xff80d3f0>
  80dc28:	123ff804 	addi	r8,r2,-32
  80dc2c:	01000804 	movi	r4,32
  80dc30:	1a10d83a 	srl	r8,r3,r8
  80dc34:	11000a26 	beq	r2,r4,80dc60 <__subdf3+0x8f4>
  80dc38:	01001004 	movi	r4,64
  80dc3c:	2085c83a 	sub	r2,r4,r2
  80dc40:	1884983a 	sll	r2,r3,r2
  80dc44:	1444b03a 	or	r2,r2,r17
  80dc48:	1004c03a 	cmpne	r2,r2,zero
  80dc4c:	40a2b03a 	or	r17,r8,r2
  80dc50:	0005883a 	mov	r2,zero
  80dc54:	003f8606 	br	80da70 <__alt_data_end+0xff80da70>
  80dc58:	0005883a 	mov	r2,zero
  80dc5c:	003fdc06 	br	80dbd0 <__alt_data_end+0xff80dbd0>
  80dc60:	0005883a 	mov	r2,zero
  80dc64:	003ff706 	br	80dc44 <__alt_data_end+0xff80dc44>

0080dc68 <__fixdfsi>:
  80dc68:	280cd53a 	srli	r6,r5,20
  80dc6c:	00c00434 	movhi	r3,16
  80dc70:	18ffffc4 	addi	r3,r3,-1
  80dc74:	3181ffcc 	andi	r6,r6,2047
  80dc78:	01c0ff84 	movi	r7,1022
  80dc7c:	28c6703a 	and	r3,r5,r3
  80dc80:	280ad7fa 	srli	r5,r5,31
  80dc84:	3980120e 	bge	r7,r6,80dcd0 <__fixdfsi+0x68>
  80dc88:	00810744 	movi	r2,1053
  80dc8c:	11800c16 	blt	r2,r6,80dcc0 <__fixdfsi+0x58>
  80dc90:	00810cc4 	movi	r2,1075
  80dc94:	1185c83a 	sub	r2,r2,r6
  80dc98:	01c007c4 	movi	r7,31
  80dc9c:	18c00434 	orhi	r3,r3,16
  80dca0:	38800d16 	blt	r7,r2,80dcd8 <__fixdfsi+0x70>
  80dca4:	31befb44 	addi	r6,r6,-1043
  80dca8:	2084d83a 	srl	r2,r4,r2
  80dcac:	1986983a 	sll	r3,r3,r6
  80dcb0:	1884b03a 	or	r2,r3,r2
  80dcb4:	28000726 	beq	r5,zero,80dcd4 <__fixdfsi+0x6c>
  80dcb8:	0085c83a 	sub	r2,zero,r2
  80dcbc:	f800283a 	ret
  80dcc0:	00a00034 	movhi	r2,32768
  80dcc4:	10bfffc4 	addi	r2,r2,-1
  80dcc8:	2885883a 	add	r2,r5,r2
  80dccc:	f800283a 	ret
  80dcd0:	0005883a 	mov	r2,zero
  80dcd4:	f800283a 	ret
  80dcd8:	008104c4 	movi	r2,1043
  80dcdc:	1185c83a 	sub	r2,r2,r6
  80dce0:	1884d83a 	srl	r2,r3,r2
  80dce4:	003ff306 	br	80dcb4 <__alt_data_end+0xff80dcb4>

0080dce8 <__floatsidf>:
  80dce8:	defffd04 	addi	sp,sp,-12
  80dcec:	dfc00215 	stw	ra,8(sp)
  80dcf0:	dc400115 	stw	r17,4(sp)
  80dcf4:	dc000015 	stw	r16,0(sp)
  80dcf8:	20002b26 	beq	r4,zero,80dda8 <__floatsidf+0xc0>
  80dcfc:	2023883a 	mov	r17,r4
  80dd00:	2020d7fa 	srli	r16,r4,31
  80dd04:	20002d16 	blt	r4,zero,80ddbc <__floatsidf+0xd4>
  80dd08:	8809883a 	mov	r4,r17
  80dd0c:	08010280 	call	801028 <__clzsi2>
  80dd10:	01410784 	movi	r5,1054
  80dd14:	288bc83a 	sub	r5,r5,r2
  80dd18:	01010cc4 	movi	r4,1075
  80dd1c:	2149c83a 	sub	r4,r4,r5
  80dd20:	00c007c4 	movi	r3,31
  80dd24:	1900160e 	bge	r3,r4,80dd80 <__floatsidf+0x98>
  80dd28:	00c104c4 	movi	r3,1043
  80dd2c:	1947c83a 	sub	r3,r3,r5
  80dd30:	88c6983a 	sll	r3,r17,r3
  80dd34:	00800434 	movhi	r2,16
  80dd38:	10bfffc4 	addi	r2,r2,-1
  80dd3c:	1886703a 	and	r3,r3,r2
  80dd40:	2941ffcc 	andi	r5,r5,2047
  80dd44:	800d883a 	mov	r6,r16
  80dd48:	0005883a 	mov	r2,zero
  80dd4c:	280a953a 	slli	r5,r5,20
  80dd50:	31803fcc 	andi	r6,r6,255
  80dd54:	01000434 	movhi	r4,16
  80dd58:	300c97fa 	slli	r6,r6,31
  80dd5c:	213fffc4 	addi	r4,r4,-1
  80dd60:	1906703a 	and	r3,r3,r4
  80dd64:	1946b03a 	or	r3,r3,r5
  80dd68:	1986b03a 	or	r3,r3,r6
  80dd6c:	dfc00217 	ldw	ra,8(sp)
  80dd70:	dc400117 	ldw	r17,4(sp)
  80dd74:	dc000017 	ldw	r16,0(sp)
  80dd78:	dec00304 	addi	sp,sp,12
  80dd7c:	f800283a 	ret
  80dd80:	00c002c4 	movi	r3,11
  80dd84:	1887c83a 	sub	r3,r3,r2
  80dd88:	88c6d83a 	srl	r3,r17,r3
  80dd8c:	8904983a 	sll	r2,r17,r4
  80dd90:	01000434 	movhi	r4,16
  80dd94:	213fffc4 	addi	r4,r4,-1
  80dd98:	2941ffcc 	andi	r5,r5,2047
  80dd9c:	1906703a 	and	r3,r3,r4
  80dda0:	800d883a 	mov	r6,r16
  80dda4:	003fe906 	br	80dd4c <__alt_data_end+0xff80dd4c>
  80dda8:	000d883a 	mov	r6,zero
  80ddac:	000b883a 	mov	r5,zero
  80ddb0:	0007883a 	mov	r3,zero
  80ddb4:	0005883a 	mov	r2,zero
  80ddb8:	003fe406 	br	80dd4c <__alt_data_end+0xff80dd4c>
  80ddbc:	0123c83a 	sub	r17,zero,r4
  80ddc0:	003fd106 	br	80dd08 <__alt_data_end+0xff80dd08>

0080ddc4 <__floatunsidf>:
  80ddc4:	defffe04 	addi	sp,sp,-8
  80ddc8:	dc000015 	stw	r16,0(sp)
  80ddcc:	dfc00115 	stw	ra,4(sp)
  80ddd0:	2021883a 	mov	r16,r4
  80ddd4:	20002226 	beq	r4,zero,80de60 <__floatunsidf+0x9c>
  80ddd8:	08010280 	call	801028 <__clzsi2>
  80dddc:	01010784 	movi	r4,1054
  80dde0:	2089c83a 	sub	r4,r4,r2
  80dde4:	01810cc4 	movi	r6,1075
  80dde8:	310dc83a 	sub	r6,r6,r4
  80ddec:	00c007c4 	movi	r3,31
  80ddf0:	1980120e 	bge	r3,r6,80de3c <__floatunsidf+0x78>
  80ddf4:	00c104c4 	movi	r3,1043
  80ddf8:	1907c83a 	sub	r3,r3,r4
  80ddfc:	80ca983a 	sll	r5,r16,r3
  80de00:	00800434 	movhi	r2,16
  80de04:	10bfffc4 	addi	r2,r2,-1
  80de08:	2101ffcc 	andi	r4,r4,2047
  80de0c:	0021883a 	mov	r16,zero
  80de10:	288a703a 	and	r5,r5,r2
  80de14:	2008953a 	slli	r4,r4,20
  80de18:	00c00434 	movhi	r3,16
  80de1c:	18ffffc4 	addi	r3,r3,-1
  80de20:	28c6703a 	and	r3,r5,r3
  80de24:	8005883a 	mov	r2,r16
  80de28:	1906b03a 	or	r3,r3,r4
  80de2c:	dfc00117 	ldw	ra,4(sp)
  80de30:	dc000017 	ldw	r16,0(sp)
  80de34:	dec00204 	addi	sp,sp,8
  80de38:	f800283a 	ret
  80de3c:	00c002c4 	movi	r3,11
  80de40:	188bc83a 	sub	r5,r3,r2
  80de44:	814ad83a 	srl	r5,r16,r5
  80de48:	00c00434 	movhi	r3,16
  80de4c:	18ffffc4 	addi	r3,r3,-1
  80de50:	81a0983a 	sll	r16,r16,r6
  80de54:	2101ffcc 	andi	r4,r4,2047
  80de58:	28ca703a 	and	r5,r5,r3
  80de5c:	003fed06 	br	80de14 <__alt_data_end+0xff80de14>
  80de60:	0009883a 	mov	r4,zero
  80de64:	000b883a 	mov	r5,zero
  80de68:	003fea06 	br	80de14 <__alt_data_end+0xff80de14>

0080de6c <alt_get_errno>:
#undef errno

extern int errno;

static ALT_INLINE int* alt_get_errno(void)
{
  80de6c:	defffe04 	addi	sp,sp,-8
  80de70:	dfc00115 	stw	ra,4(sp)
  80de74:	df000015 	stw	fp,0(sp)
  80de78:	d839883a 	mov	fp,sp
  return ((alt_errno) ? alt_errno() : &errno);
  80de7c:	d0a00b17 	ldw	r2,-32724(gp)
  80de80:	10000326 	beq	r2,zero,80de90 <alt_get_errno+0x24>
  80de84:	d0a00b17 	ldw	r2,-32724(gp)
  80de88:	103ee83a 	callr	r2
  80de8c:	00000106 	br	80de94 <alt_get_errno+0x28>
  80de90:	d0a2c404 	addi	r2,gp,-29936
}
  80de94:	e037883a 	mov	sp,fp
  80de98:	dfc00117 	ldw	ra,4(sp)
  80de9c:	df000017 	ldw	fp,0(sp)
  80dea0:	dec00204 	addi	sp,sp,8
  80dea4:	f800283a 	ret

0080dea8 <close>:
 *
 * ALT_CLOSE is mapped onto the close() system call in alt_syscall.h
 */
 
int ALT_CLOSE (int fildes)
{
  80dea8:	defffb04 	addi	sp,sp,-20
  80deac:	dfc00415 	stw	ra,16(sp)
  80deb0:	df000315 	stw	fp,12(sp)
  80deb4:	df000304 	addi	fp,sp,12
  80deb8:	e13fff15 	stw	r4,-4(fp)
   * A common error case is that when the file descriptor was created, the call
   * to open() failed resulting in a negative file descriptor. This is trapped
   * below so that we don't try and process an invalid file descriptor.
   */

  fd = (fildes < 0) ? NULL : &alt_fd_list[fildes];
  80debc:	e0bfff17 	ldw	r2,-4(fp)
  80dec0:	10000816 	blt	r2,zero,80dee4 <close+0x3c>
  80dec4:	01400304 	movi	r5,12
  80dec8:	e13fff17 	ldw	r4,-4(fp)
  80decc:	08005640 	call	800564 <__mulsi3>
  80ded0:	1007883a 	mov	r3,r2
  80ded4:	00802074 	movhi	r2,129
  80ded8:	1082c804 	addi	r2,r2,2848
  80dedc:	1885883a 	add	r2,r3,r2
  80dee0:	00000106 	br	80dee8 <close+0x40>
  80dee4:	0005883a 	mov	r2,zero
  80dee8:	e0bffd15 	stw	r2,-12(fp)

  if (fd)
  80deec:	e0bffd17 	ldw	r2,-12(fp)
  80def0:	10001926 	beq	r2,zero,80df58 <close+0xb0>
    /*
     * If the associated file system/device has a close function, call it so 
     * that any necessary cleanup code can run.
     */

    rval = (fd->dev->close) ? fd->dev->close(fd) : 0;
  80def4:	e0bffd17 	ldw	r2,-12(fp)
  80def8:	10800017 	ldw	r2,0(r2)
  80defc:	10800417 	ldw	r2,16(r2)
  80df00:	10000626 	beq	r2,zero,80df1c <close+0x74>
  80df04:	e0bffd17 	ldw	r2,-12(fp)
  80df08:	10800017 	ldw	r2,0(r2)
  80df0c:	10800417 	ldw	r2,16(r2)
  80df10:	e13ffd17 	ldw	r4,-12(fp)
  80df14:	103ee83a 	callr	r2
  80df18:	00000106 	br	80df20 <close+0x78>
  80df1c:	0005883a 	mov	r2,zero
  80df20:	e0bffe15 	stw	r2,-8(fp)

    /* Free the file descriptor structure and return. */

    alt_release_fd (fildes);
  80df24:	e13fff17 	ldw	r4,-4(fp)
  80df28:	080e5cc0 	call	80e5cc <alt_release_fd>
    if (rval < 0)
  80df2c:	e0bffe17 	ldw	r2,-8(fp)
  80df30:	1000070e 	bge	r2,zero,80df50 <close+0xa8>
    {
      ALT_ERRNO = -rval;
  80df34:	080de6c0 	call	80de6c <alt_get_errno>
  80df38:	1007883a 	mov	r3,r2
  80df3c:	e0bffe17 	ldw	r2,-8(fp)
  80df40:	0085c83a 	sub	r2,zero,r2
  80df44:	18800015 	stw	r2,0(r3)
      return -1;
  80df48:	00bfffc4 	movi	r2,-1
  80df4c:	00000706 	br	80df6c <close+0xc4>
    }
    return 0;
  80df50:	0005883a 	mov	r2,zero
  80df54:	00000506 	br	80df6c <close+0xc4>
  }
  else
  {
    ALT_ERRNO = EBADFD;
  80df58:	080de6c0 	call	80de6c <alt_get_errno>
  80df5c:	1007883a 	mov	r3,r2
  80df60:	00801444 	movi	r2,81
  80df64:	18800015 	stw	r2,0(r3)
    return -1;
  80df68:	00bfffc4 	movi	r2,-1
  }
}
  80df6c:	e037883a 	mov	sp,fp
  80df70:	dfc00117 	ldw	ra,4(sp)
  80df74:	df000017 	ldw	fp,0(sp)
  80df78:	dec00204 	addi	sp,sp,8
  80df7c:	f800283a 	ret

0080df80 <alt_dev_null_write>:
 * by the alt_dev_null device. It simple discards all data passed to it, and
 * indicates that the data has been successfully transmitted.
 */

static int alt_dev_null_write (alt_fd* fd, const char* ptr, int len)
{
  80df80:	defffc04 	addi	sp,sp,-16
  80df84:	df000315 	stw	fp,12(sp)
  80df88:	df000304 	addi	fp,sp,12
  80df8c:	e13ffd15 	stw	r4,-12(fp)
  80df90:	e17ffe15 	stw	r5,-8(fp)
  80df94:	e1bfff15 	stw	r6,-4(fp)
  return len;
  80df98:	e0bfff17 	ldw	r2,-4(fp)
}
  80df9c:	e037883a 	mov	sp,fp
  80dfa0:	df000017 	ldw	fp,0(sp)
  80dfa4:	dec00104 	addi	sp,sp,4
  80dfa8:	f800283a 	ret

0080dfac <alt_get_errno>:
#undef errno

extern int errno;

static ALT_INLINE int* alt_get_errno(void)
{
  80dfac:	defffe04 	addi	sp,sp,-8
  80dfb0:	dfc00115 	stw	ra,4(sp)
  80dfb4:	df000015 	stw	fp,0(sp)
  80dfb8:	d839883a 	mov	fp,sp
  return ((alt_errno) ? alt_errno() : &errno);
  80dfbc:	d0a00b17 	ldw	r2,-32724(gp)
  80dfc0:	10000326 	beq	r2,zero,80dfd0 <alt_get_errno+0x24>
  80dfc4:	d0a00b17 	ldw	r2,-32724(gp)
  80dfc8:	103ee83a 	callr	r2
  80dfcc:	00000106 	br	80dfd4 <alt_get_errno+0x28>
  80dfd0:	d0a2c404 	addi	r2,gp,-29936
}
  80dfd4:	e037883a 	mov	sp,fp
  80dfd8:	dfc00117 	ldw	ra,4(sp)
  80dfdc:	df000017 	ldw	fp,0(sp)
  80dfe0:	dec00204 	addi	sp,sp,8
  80dfe4:	f800283a 	ret

0080dfe8 <fstat>:
}

#else /* !ALT_USE_DIRECT_DRIVERS */

int ALT_FSTAT (int file, struct stat *st)
{
  80dfe8:	defffb04 	addi	sp,sp,-20
  80dfec:	dfc00415 	stw	ra,16(sp)
  80dff0:	df000315 	stw	fp,12(sp)
  80dff4:	df000304 	addi	fp,sp,12
  80dff8:	e13ffe15 	stw	r4,-8(fp)
  80dffc:	e17fff15 	stw	r5,-4(fp)
   * A common error case is that when the file descriptor was created, the call
   * to open() failed resulting in a negative file descriptor. This is trapped
   * below so that we don't try and process an invalid file descriptor.
   */

  fd = (file < 0) ? NULL : &alt_fd_list[file];
  80e000:	e0bffe17 	ldw	r2,-8(fp)
  80e004:	10000816 	blt	r2,zero,80e028 <fstat+0x40>
  80e008:	01400304 	movi	r5,12
  80e00c:	e13ffe17 	ldw	r4,-8(fp)
  80e010:	08005640 	call	800564 <__mulsi3>
  80e014:	1007883a 	mov	r3,r2
  80e018:	00802074 	movhi	r2,129
  80e01c:	1082c804 	addi	r2,r2,2848
  80e020:	1885883a 	add	r2,r3,r2
  80e024:	00000106 	br	80e02c <fstat+0x44>
  80e028:	0005883a 	mov	r2,zero
  80e02c:	e0bffd15 	stw	r2,-12(fp)
  
  if (fd)
  80e030:	e0bffd17 	ldw	r2,-12(fp)
  80e034:	10001026 	beq	r2,zero,80e078 <fstat+0x90>
  {
    /* Call the drivers fstat() function to fill out the "st" structure. */

    if (fd->dev->fstat)
  80e038:	e0bffd17 	ldw	r2,-12(fp)
  80e03c:	10800017 	ldw	r2,0(r2)
  80e040:	10800817 	ldw	r2,32(r2)
  80e044:	10000726 	beq	r2,zero,80e064 <fstat+0x7c>
    {
      return fd->dev->fstat(fd, st);
  80e048:	e0bffd17 	ldw	r2,-12(fp)
  80e04c:	10800017 	ldw	r2,0(r2)
  80e050:	10800817 	ldw	r2,32(r2)
  80e054:	e17fff17 	ldw	r5,-4(fp)
  80e058:	e13ffd17 	ldw	r4,-12(fp)
  80e05c:	103ee83a 	callr	r2
  80e060:	00000a06 	br	80e08c <fstat+0xa4>
     * device.
     */
 
    else
    {
      st->st_mode = _IFCHR;
  80e064:	e0bfff17 	ldw	r2,-4(fp)
  80e068:	00c80004 	movi	r3,8192
  80e06c:	10c00115 	stw	r3,4(r2)
      return 0;
  80e070:	0005883a 	mov	r2,zero
  80e074:	00000506 	br	80e08c <fstat+0xa4>
    }
  }
  else
  {
    ALT_ERRNO = EBADFD;
  80e078:	080dfac0 	call	80dfac <alt_get_errno>
  80e07c:	1007883a 	mov	r3,r2
  80e080:	00801444 	movi	r2,81
  80e084:	18800015 	stw	r2,0(r3)
    return -1;
  80e088:	00bfffc4 	movi	r2,-1
  }
}
  80e08c:	e037883a 	mov	sp,fp
  80e090:	dfc00117 	ldw	ra,4(sp)
  80e094:	df000017 	ldw	fp,0(sp)
  80e098:	dec00204 	addi	sp,sp,8
  80e09c:	f800283a 	ret

0080e0a0 <alt_get_errno>:
#undef errno

extern int errno;

static ALT_INLINE int* alt_get_errno(void)
{
  80e0a0:	defffe04 	addi	sp,sp,-8
  80e0a4:	dfc00115 	stw	ra,4(sp)
  80e0a8:	df000015 	stw	fp,0(sp)
  80e0ac:	d839883a 	mov	fp,sp
  return ((alt_errno) ? alt_errno() : &errno);
  80e0b0:	d0a00b17 	ldw	r2,-32724(gp)
  80e0b4:	10000326 	beq	r2,zero,80e0c4 <alt_get_errno+0x24>
  80e0b8:	d0a00b17 	ldw	r2,-32724(gp)
  80e0bc:	103ee83a 	callr	r2
  80e0c0:	00000106 	br	80e0c8 <alt_get_errno+0x28>
  80e0c4:	d0a2c404 	addi	r2,gp,-29936
}
  80e0c8:	e037883a 	mov	sp,fp
  80e0cc:	dfc00117 	ldw	ra,4(sp)
  80e0d0:	df000017 	ldw	fp,0(sp)
  80e0d4:	dec00204 	addi	sp,sp,8
  80e0d8:	f800283a 	ret

0080e0dc <isatty>:
 *
 * ALT_ISATTY is mapped onto the isatty() system call in alt_syscall.h
 */
 
int ALT_ISATTY (int file)
{
  80e0dc:	deffed04 	addi	sp,sp,-76
  80e0e0:	dfc01215 	stw	ra,72(sp)
  80e0e4:	df001115 	stw	fp,68(sp)
  80e0e8:	df001104 	addi	fp,sp,68
  80e0ec:	e13fff15 	stw	r4,-4(fp)
   * A common error case is that when the file descriptor was created, the call
   * to open() failed resulting in a negative file descriptor. This is trapped
   * below so that we don't try and process an invalid file descriptor.
   */

  fd = (file < 0) ? NULL : &alt_fd_list[file];
  80e0f0:	e0bfff17 	ldw	r2,-4(fp)
  80e0f4:	10000816 	blt	r2,zero,80e118 <isatty+0x3c>
  80e0f8:	01400304 	movi	r5,12
  80e0fc:	e13fff17 	ldw	r4,-4(fp)
  80e100:	08005640 	call	800564 <__mulsi3>
  80e104:	1007883a 	mov	r3,r2
  80e108:	00802074 	movhi	r2,129
  80e10c:	1082c804 	addi	r2,r2,2848
  80e110:	1885883a 	add	r2,r3,r2
  80e114:	00000106 	br	80e11c <isatty+0x40>
  80e118:	0005883a 	mov	r2,zero
  80e11c:	e0bfef15 	stw	r2,-68(fp)
  
  if (fd)
  80e120:	e0bfef17 	ldw	r2,-68(fp)
  80e124:	10000e26 	beq	r2,zero,80e160 <isatty+0x84>
    /*
     * If a device driver does not provide an fstat() function, then it is 
     * treated as a terminal device by default.
     */

    if (!fd->dev->fstat)
  80e128:	e0bfef17 	ldw	r2,-68(fp)
  80e12c:	10800017 	ldw	r2,0(r2)
  80e130:	10800817 	ldw	r2,32(r2)
  80e134:	1000021e 	bne	r2,zero,80e140 <isatty+0x64>
    {
      return 1;
  80e138:	00800044 	movi	r2,1
  80e13c:	00000d06 	br	80e174 <isatty+0x98>
     * this is called so that the device can identify itself.
     */ 

    else
    {
      fstat (file, &stat);
  80e140:	e0bff004 	addi	r2,fp,-64
  80e144:	100b883a 	mov	r5,r2
  80e148:	e13fff17 	ldw	r4,-4(fp)
  80e14c:	080dfe80 	call	80dfe8 <fstat>
      return (stat.st_mode == _IFCHR) ? 1 : 0;
  80e150:	e0bff117 	ldw	r2,-60(fp)
  80e154:	10880020 	cmpeqi	r2,r2,8192
  80e158:	10803fcc 	andi	r2,r2,255
  80e15c:	00000506 	br	80e174 <isatty+0x98>
    }
  }
  else
  {
    ALT_ERRNO = EBADFD;
  80e160:	080e0a00 	call	80e0a0 <alt_get_errno>
  80e164:	1007883a 	mov	r3,r2
  80e168:	00801444 	movi	r2,81
  80e16c:	18800015 	stw	r2,0(r3)
    return 0;
  80e170:	0005883a 	mov	r2,zero
  }
}
  80e174:	e037883a 	mov	sp,fp
  80e178:	dfc00117 	ldw	ra,4(sp)
  80e17c:	df000017 	ldw	fp,0(sp)
  80e180:	dec00204 	addi	sp,sp,8
  80e184:	f800283a 	ret

0080e188 <alt_load_section>:
 */

static void ALT_INLINE alt_load_section (alt_u32* from, 
                                         alt_u32* to, 
                                         alt_u32* end)
{
  80e188:	defffc04 	addi	sp,sp,-16
  80e18c:	df000315 	stw	fp,12(sp)
  80e190:	df000304 	addi	fp,sp,12
  80e194:	e13ffd15 	stw	r4,-12(fp)
  80e198:	e17ffe15 	stw	r5,-8(fp)
  80e19c:	e1bfff15 	stw	r6,-4(fp)
  if (to != from)
  80e1a0:	e0fffe17 	ldw	r3,-8(fp)
  80e1a4:	e0bffd17 	ldw	r2,-12(fp)
  80e1a8:	18800c26 	beq	r3,r2,80e1dc <alt_load_section+0x54>
  {
    while( to != end )
  80e1ac:	00000806 	br	80e1d0 <alt_load_section+0x48>
    {
      *to++ = *from++;
  80e1b0:	e0bffe17 	ldw	r2,-8(fp)
  80e1b4:	10c00104 	addi	r3,r2,4
  80e1b8:	e0fffe15 	stw	r3,-8(fp)
  80e1bc:	e0fffd17 	ldw	r3,-12(fp)
  80e1c0:	19000104 	addi	r4,r3,4
  80e1c4:	e13ffd15 	stw	r4,-12(fp)
  80e1c8:	18c00017 	ldw	r3,0(r3)
  80e1cc:	10c00015 	stw	r3,0(r2)
                                         alt_u32* to, 
                                         alt_u32* end)
{
  if (to != from)
  {
    while( to != end )
  80e1d0:	e0fffe17 	ldw	r3,-8(fp)
  80e1d4:	e0bfff17 	ldw	r2,-4(fp)
  80e1d8:	18bff51e 	bne	r3,r2,80e1b0 <__alt_data_end+0xff80e1b0>
    {
      *to++ = *from++;
    }
  }
}
  80e1dc:	0001883a 	nop
  80e1e0:	e037883a 	mov	sp,fp
  80e1e4:	df000017 	ldw	fp,0(sp)
  80e1e8:	dec00104 	addi	sp,sp,4
  80e1ec:	f800283a 	ret

0080e1f0 <alt_load>:
 * there is no bootloader, so this application is responsible for loading to
 * RAM any sections that are required.
 */  

void alt_load (void)
{
  80e1f0:	defffe04 	addi	sp,sp,-8
  80e1f4:	dfc00115 	stw	ra,4(sp)
  80e1f8:	df000015 	stw	fp,0(sp)
  80e1fc:	d839883a 	mov	fp,sp
  /* 
   * Copy the .rwdata section. 
   */

  alt_load_section (&__flash_rwdata_start, 
  80e200:	01802074 	movhi	r6,129
  80e204:	31834304 	addi	r6,r6,3340
  80e208:	01402074 	movhi	r5,129
  80e20c:	29409504 	addi	r5,r5,596
  80e210:	01002074 	movhi	r4,129
  80e214:	21034304 	addi	r4,r4,3340
  80e218:	080e1880 	call	80e188 <alt_load_section>

  /*
   * Copy the exception handler.
   */

  alt_load_section (&__flash_exceptions_start, 
  80e21c:	01802034 	movhi	r6,128
  80e220:	31809104 	addi	r6,r6,580
  80e224:	01402034 	movhi	r5,128
  80e228:	29400804 	addi	r5,r5,32
  80e22c:	01002034 	movhi	r4,128
  80e230:	21000804 	addi	r4,r4,32
  80e234:	080e1880 	call	80e188 <alt_load_section>

  /*
   * Copy the .rodata section.
   */

  alt_load_section (&__flash_rodata_start, 
  80e238:	01802074 	movhi	r6,129
  80e23c:	31809504 	addi	r6,r6,596
  80e240:	01402074 	movhi	r5,129
  80e244:	297fc604 	addi	r5,r5,-232
  80e248:	01002074 	movhi	r4,129
  80e24c:	213fc604 	addi	r4,r4,-232
  80e250:	080e1880 	call	80e188 <alt_load_section>
  
  /*
   * Now ensure that the caches are in synch.
   */
  
  alt_dcache_flush_all();
  80e254:	080ece00 	call	80ece0 <alt_dcache_flush_all>
  alt_icache_flush_all();
  80e258:	080eec80 	call	80eec8 <alt_icache_flush_all>
}
  80e25c:	0001883a 	nop
  80e260:	e037883a 	mov	sp,fp
  80e264:	dfc00117 	ldw	ra,4(sp)
  80e268:	df000017 	ldw	fp,0(sp)
  80e26c:	dec00204 	addi	sp,sp,8
  80e270:	f800283a 	ret

0080e274 <alt_get_errno>:
#undef errno

extern int errno;

static ALT_INLINE int* alt_get_errno(void)
{
  80e274:	defffe04 	addi	sp,sp,-8
  80e278:	dfc00115 	stw	ra,4(sp)
  80e27c:	df000015 	stw	fp,0(sp)
  80e280:	d839883a 	mov	fp,sp
  return ((alt_errno) ? alt_errno() : &errno);
  80e284:	d0a00b17 	ldw	r2,-32724(gp)
  80e288:	10000326 	beq	r2,zero,80e298 <alt_get_errno+0x24>
  80e28c:	d0a00b17 	ldw	r2,-32724(gp)
  80e290:	103ee83a 	callr	r2
  80e294:	00000106 	br	80e29c <alt_get_errno+0x28>
  80e298:	d0a2c404 	addi	r2,gp,-29936
}
  80e29c:	e037883a 	mov	sp,fp
  80e2a0:	dfc00117 	ldw	ra,4(sp)
  80e2a4:	df000017 	ldw	fp,0(sp)
  80e2a8:	dec00204 	addi	sp,sp,8
  80e2ac:	f800283a 	ret

0080e2b0 <lseek>:
 * ALT_LSEEK is mapped onto the lseek() system call in alt_syscall.h
 *
 */

off_t ALT_LSEEK (int file, off_t ptr, int dir)
{
  80e2b0:	defff904 	addi	sp,sp,-28
  80e2b4:	dfc00615 	stw	ra,24(sp)
  80e2b8:	df000515 	stw	fp,20(sp)
  80e2bc:	df000504 	addi	fp,sp,20
  80e2c0:	e13ffd15 	stw	r4,-12(fp)
  80e2c4:	e17ffe15 	stw	r5,-8(fp)
  80e2c8:	e1bfff15 	stw	r6,-4(fp)
  alt_fd* fd;
  off_t   rc = 0; 
  80e2cc:	e03ffb15 	stw	zero,-20(fp)
   * A common error case is that when the file descriptor was created, the call
   * to open() failed resulting in a negative file descriptor. This is trapped
   * below so that we don't try and process an invalid file descriptor.
   */

  fd = (file < 0) ? NULL : &alt_fd_list[file];
  80e2d0:	e0bffd17 	ldw	r2,-12(fp)
  80e2d4:	10000816 	blt	r2,zero,80e2f8 <lseek+0x48>
  80e2d8:	01400304 	movi	r5,12
  80e2dc:	e13ffd17 	ldw	r4,-12(fp)
  80e2e0:	08005640 	call	800564 <__mulsi3>
  80e2e4:	1007883a 	mov	r3,r2
  80e2e8:	00802074 	movhi	r2,129
  80e2ec:	1082c804 	addi	r2,r2,2848
  80e2f0:	1885883a 	add	r2,r3,r2
  80e2f4:	00000106 	br	80e2fc <lseek+0x4c>
  80e2f8:	0005883a 	mov	r2,zero
  80e2fc:	e0bffc15 	stw	r2,-16(fp)
  
  if (fd) 
  80e300:	e0bffc17 	ldw	r2,-16(fp)
  80e304:	10001026 	beq	r2,zero,80e348 <lseek+0x98>
    /*
     * If the device driver provides an implementation of the lseek() function,
     * then call that to process the request.
     */
 
    if (fd->dev->lseek)
  80e308:	e0bffc17 	ldw	r2,-16(fp)
  80e30c:	10800017 	ldw	r2,0(r2)
  80e310:	10800717 	ldw	r2,28(r2)
  80e314:	10000926 	beq	r2,zero,80e33c <lseek+0x8c>
    {
      rc = fd->dev->lseek(fd, ptr, dir);
  80e318:	e0bffc17 	ldw	r2,-16(fp)
  80e31c:	10800017 	ldw	r2,0(r2)
  80e320:	10800717 	ldw	r2,28(r2)
  80e324:	e1bfff17 	ldw	r6,-4(fp)
  80e328:	e17ffe17 	ldw	r5,-8(fp)
  80e32c:	e13ffc17 	ldw	r4,-16(fp)
  80e330:	103ee83a 	callr	r2
  80e334:	e0bffb15 	stw	r2,-20(fp)
  80e338:	00000506 	br	80e350 <lseek+0xa0>
     * Otherwise return an error.
     */

    else
    {
      rc = -ENOTSUP;
  80e33c:	00bfde84 	movi	r2,-134
  80e340:	e0bffb15 	stw	r2,-20(fp)
  80e344:	00000206 	br	80e350 <lseek+0xa0>
    }
  }
  else  
  {
    rc = -EBADFD;
  80e348:	00bfebc4 	movi	r2,-81
  80e34c:	e0bffb15 	stw	r2,-20(fp)
  }

  if (rc < 0)
  80e350:	e0bffb17 	ldw	r2,-20(fp)
  80e354:	1000070e 	bge	r2,zero,80e374 <lseek+0xc4>
  {
    ALT_ERRNO = -rc;
  80e358:	080e2740 	call	80e274 <alt_get_errno>
  80e35c:	1007883a 	mov	r3,r2
  80e360:	e0bffb17 	ldw	r2,-20(fp)
  80e364:	0085c83a 	sub	r2,zero,r2
  80e368:	18800015 	stw	r2,0(r3)
    rc = -1;
  80e36c:	00bfffc4 	movi	r2,-1
  80e370:	e0bffb15 	stw	r2,-20(fp)
  }

  return rc;
  80e374:	e0bffb17 	ldw	r2,-20(fp)
}
  80e378:	e037883a 	mov	sp,fp
  80e37c:	dfc00117 	ldw	ra,4(sp)
  80e380:	df000017 	ldw	fp,0(sp)
  80e384:	dec00204 	addi	sp,sp,8
  80e388:	f800283a 	ret

0080e38c <alt_main>:
 * devices/filesystems/components in the system; and call the entry point for
 * the users application, i.e. main().
 */

void alt_main (void)
{
  80e38c:	defffd04 	addi	sp,sp,-12
  80e390:	dfc00215 	stw	ra,8(sp)
  80e394:	df000115 	stw	fp,4(sp)
  80e398:	df000104 	addi	fp,sp,4
#endif

  /* ALT LOG - please see HAL/sys/alt_log_printf.h for details */
  ALT_LOG_PRINT_BOOT("[alt_main.c] Entering alt_main, calling alt_irq_init.\r\n");
  /* Initialize the interrupt controller. */
  alt_irq_init (NULL);
  80e39c:	0009883a 	mov	r4,zero
  80e3a0:	080e9240 	call	80e924 <alt_irq_init>

  /* Initialize the operating system */
  ALT_LOG_PRINT_BOOT("[alt_main.c] Done alt_irq_init, calling alt_os_init.\r\n");
  ALT_OS_INIT();
  80e3a4:	0001883a 	nop
  ALT_LOG_PRINT_BOOT("[alt_main.c] Done OS Init, calling alt_sem_create.\r\n");
  ALT_SEM_CREATE (&alt_fd_list_lock, 1);

  /* Initialize the device drivers/software components. */
  ALT_LOG_PRINT_BOOT("[alt_main.c] Calling alt_sys_init.\r\n");
  alt_sys_init();
  80e3a8:	080e95c0 	call	80e95c <alt_sys_init>
   * devices be present (not equal to /dev/null) and if direct drivers
   * aren't being used.
   */

    ALT_LOG_PRINT_BOOT("[alt_main.c] Redirecting IO.\r\n");
    alt_io_redirect(ALT_STDOUT, ALT_STDIN, ALT_STDERR);
  80e3ac:	01802074 	movhi	r6,129
  80e3b0:	31808d04 	addi	r6,r6,564
  80e3b4:	01402074 	movhi	r5,129
  80e3b8:	29408d04 	addi	r5,r5,564
  80e3bc:	01002074 	movhi	r4,129
  80e3c0:	21008d04 	addi	r4,r4,564
  80e3c4:	080f2800 	call	80f280 <alt_io_redirect>
  /* 
   * Call the C++ constructors 
   */

  ALT_LOG_PRINT_BOOT("[alt_main.c] Calling C++ constructors.\r\n");
  _do_ctors ();
  80e3c8:	080ee080 	call	80ee08 <_do_ctors>
   * redefined as _exit()). This is in the interest of reducing code footprint,
   * in that the atexit() overhead is removed when it's not needed.
   */

  ALT_LOG_PRINT_BOOT("[alt_main.c] Calling atexit.\r\n");
  atexit (_do_dtors);
  80e3cc:	01002074 	movhi	r4,129
  80e3d0:	213b9a04 	addi	r4,r4,-4504
  80e3d4:	080fad00 	call	80fad0 <atexit>
  ALT_LOG_PRINT_BOOT("[alt_main.c] Calling main.\r\n");

#ifdef ALT_NO_EXIT
  main (alt_argc, alt_argv, alt_envp);
#else
  result = main (alt_argc, alt_argv, alt_envp);
  80e3d8:	d0a2c517 	ldw	r2,-29932(gp)
  80e3dc:	d0e2c617 	ldw	r3,-29928(gp)
  80e3e0:	d122c717 	ldw	r4,-29924(gp)
  80e3e4:	200d883a 	mov	r6,r4
  80e3e8:	180b883a 	mov	r5,r3
  80e3ec:	1009883a 	mov	r4,r2
  80e3f0:	08003e00 	call	8003e0 <main>
  80e3f4:	e0bfff15 	stw	r2,-4(fp)
  close(STDOUT_FILENO);
  80e3f8:	01000044 	movi	r4,1
  80e3fc:	080dea80 	call	80dea8 <close>
  exit (result);
  80e400:	e13fff17 	ldw	r4,-4(fp)
  80e404:	080fae40 	call	80fae4 <exit>

0080e408 <__malloc_lock>:
 * configuration is single threaded, so there is nothing to do here. Note that 
 * this requires that malloc is never called by an interrupt service routine.
 */

void __malloc_lock ( struct _reent *_r )
{
  80e408:	defffe04 	addi	sp,sp,-8
  80e40c:	df000115 	stw	fp,4(sp)
  80e410:	df000104 	addi	fp,sp,4
  80e414:	e13fff15 	stw	r4,-4(fp)
}
  80e418:	0001883a 	nop
  80e41c:	e037883a 	mov	sp,fp
  80e420:	df000017 	ldw	fp,0(sp)
  80e424:	dec00104 	addi	sp,sp,4
  80e428:	f800283a 	ret

0080e42c <__malloc_unlock>:
/*
 *
 */

void __malloc_unlock ( struct _reent *_r )
{
  80e42c:	defffe04 	addi	sp,sp,-8
  80e430:	df000115 	stw	fp,4(sp)
  80e434:	df000104 	addi	fp,sp,4
  80e438:	e13fff15 	stw	r4,-4(fp)
}
  80e43c:	0001883a 	nop
  80e440:	e037883a 	mov	sp,fp
  80e444:	df000017 	ldw	fp,0(sp)
  80e448:	dec00104 	addi	sp,sp,4
  80e44c:	f800283a 	ret

0080e450 <alt_putstr>:
 * Uses the ALT_DRIVER_WRITE() macro to call directly to driver if available.
 * Otherwise, uses newlib provided fputs() routine.
 */
int 
alt_putstr(const char* str)
{
  80e450:	defffd04 	addi	sp,sp,-12
  80e454:	dfc00215 	stw	ra,8(sp)
  80e458:	df000115 	stw	fp,4(sp)
  80e45c:	df000104 	addi	fp,sp,4
  80e460:	e13fff15 	stw	r4,-4(fp)
#else
#ifdef ALT_USE_DIRECT_DRIVERS
    ALT_DRIVER_WRITE_EXTERNS(ALT_STDOUT_DEV);
    return ALT_DRIVER_WRITE(ALT_STDOUT_DEV, str, strlen(str), 0);
#else
    return fputs(str, stdout);
  80e464:	d0a00117 	ldw	r2,-32764(gp)
  80e468:	10800217 	ldw	r2,8(r2)
  80e46c:	100b883a 	mov	r5,r2
  80e470:	e13fff17 	ldw	r4,-4(fp)
  80e474:	080fbb80 	call	80fbb8 <fputs>
#endif
#endif
}
  80e478:	e037883a 	mov	sp,fp
  80e47c:	dfc00117 	ldw	ra,4(sp)
  80e480:	df000017 	ldw	fp,0(sp)
  80e484:	dec00204 	addi	sp,sp,8
  80e488:	f800283a 	ret

0080e48c <alt_get_errno>:
#undef errno

extern int errno;

static ALT_INLINE int* alt_get_errno(void)
{
  80e48c:	defffe04 	addi	sp,sp,-8
  80e490:	dfc00115 	stw	ra,4(sp)
  80e494:	df000015 	stw	fp,0(sp)
  80e498:	d839883a 	mov	fp,sp
  return ((alt_errno) ? alt_errno() : &errno);
  80e49c:	d0a00b17 	ldw	r2,-32724(gp)
  80e4a0:	10000326 	beq	r2,zero,80e4b0 <alt_get_errno+0x24>
  80e4a4:	d0a00b17 	ldw	r2,-32724(gp)
  80e4a8:	103ee83a 	callr	r2
  80e4ac:	00000106 	br	80e4b4 <alt_get_errno+0x28>
  80e4b0:	d0a2c404 	addi	r2,gp,-29936
}
  80e4b4:	e037883a 	mov	sp,fp
  80e4b8:	dfc00117 	ldw	ra,4(sp)
  80e4bc:	df000017 	ldw	fp,0(sp)
  80e4c0:	dec00204 	addi	sp,sp,8
  80e4c4:	f800283a 	ret

0080e4c8 <read>:
}

#else /* !ALT_USE_DIRECT_DRIVERS */

int ALT_READ (int file, void *ptr, size_t len)
{
  80e4c8:	defff904 	addi	sp,sp,-28
  80e4cc:	dfc00615 	stw	ra,24(sp)
  80e4d0:	df000515 	stw	fp,20(sp)
  80e4d4:	df000504 	addi	fp,sp,20
  80e4d8:	e13ffd15 	stw	r4,-12(fp)
  80e4dc:	e17ffe15 	stw	r5,-8(fp)
  80e4e0:	e1bfff15 	stw	r6,-4(fp)
   * A common error case is that when the file descriptor was created, the call
   * to open() failed resulting in a negative file descriptor. This is trapped
   * below so that we don't try and process an invalid file descriptor.
   */

  fd = (file < 0) ? NULL : &alt_fd_list[file];
  80e4e4:	e0bffd17 	ldw	r2,-12(fp)
  80e4e8:	10000816 	blt	r2,zero,80e50c <read+0x44>
  80e4ec:	01400304 	movi	r5,12
  80e4f0:	e13ffd17 	ldw	r4,-12(fp)
  80e4f4:	08005640 	call	800564 <__mulsi3>
  80e4f8:	1007883a 	mov	r3,r2
  80e4fc:	00802074 	movhi	r2,129
  80e500:	1082c804 	addi	r2,r2,2848
  80e504:	1885883a 	add	r2,r3,r2
  80e508:	00000106 	br	80e510 <read+0x48>
  80e50c:	0005883a 	mov	r2,zero
  80e510:	e0bffb15 	stw	r2,-20(fp)
  
  if (fd)
  80e514:	e0bffb17 	ldw	r2,-20(fp)
  80e518:	10002226 	beq	r2,zero,80e5a4 <read+0xdc>
     * If the file has not been opened with read access, or if the driver does
     * not provide an implementation of read(), generate an error. Otherwise
     * call the drivers read() function to process the request.
     */

    if (((fd->fd_flags & O_ACCMODE) != O_WRONLY) && 
  80e51c:	e0bffb17 	ldw	r2,-20(fp)
  80e520:	10800217 	ldw	r2,8(r2)
  80e524:	108000cc 	andi	r2,r2,3
  80e528:	10800060 	cmpeqi	r2,r2,1
  80e52c:	1000181e 	bne	r2,zero,80e590 <read+0xc8>
        (fd->dev->read))
  80e530:	e0bffb17 	ldw	r2,-20(fp)
  80e534:	10800017 	ldw	r2,0(r2)
  80e538:	10800517 	ldw	r2,20(r2)
     * If the file has not been opened with read access, or if the driver does
     * not provide an implementation of read(), generate an error. Otherwise
     * call the drivers read() function to process the request.
     */

    if (((fd->fd_flags & O_ACCMODE) != O_WRONLY) && 
  80e53c:	10001426 	beq	r2,zero,80e590 <read+0xc8>
        (fd->dev->read))
      {
        if ((rval = fd->dev->read(fd, ptr, len)) < 0)
  80e540:	e0bffb17 	ldw	r2,-20(fp)
  80e544:	10800017 	ldw	r2,0(r2)
  80e548:	10800517 	ldw	r2,20(r2)
  80e54c:	e0ffff17 	ldw	r3,-4(fp)
  80e550:	180d883a 	mov	r6,r3
  80e554:	e17ffe17 	ldw	r5,-8(fp)
  80e558:	e13ffb17 	ldw	r4,-20(fp)
  80e55c:	103ee83a 	callr	r2
  80e560:	e0bffc15 	stw	r2,-16(fp)
  80e564:	e0bffc17 	ldw	r2,-16(fp)
  80e568:	1000070e 	bge	r2,zero,80e588 <read+0xc0>
        {
          ALT_ERRNO = -rval;
  80e56c:	080e48c0 	call	80e48c <alt_get_errno>
  80e570:	1007883a 	mov	r3,r2
  80e574:	e0bffc17 	ldw	r2,-16(fp)
  80e578:	0085c83a 	sub	r2,zero,r2
  80e57c:	18800015 	stw	r2,0(r3)
          return -1;
  80e580:	00bfffc4 	movi	r2,-1
  80e584:	00000c06 	br	80e5b8 <read+0xf0>
        }
        return rval;
  80e588:	e0bffc17 	ldw	r2,-16(fp)
  80e58c:	00000a06 	br	80e5b8 <read+0xf0>
      }
      else
      {
        ALT_ERRNO = EACCES;
  80e590:	080e48c0 	call	80e48c <alt_get_errno>
  80e594:	1007883a 	mov	r3,r2
  80e598:	00800344 	movi	r2,13
  80e59c:	18800015 	stw	r2,0(r3)
  80e5a0:	00000406 	br	80e5b4 <read+0xec>
      }
    }
  else
  {
    ALT_ERRNO = EBADFD;
  80e5a4:	080e48c0 	call	80e48c <alt_get_errno>
  80e5a8:	1007883a 	mov	r3,r2
  80e5ac:	00801444 	movi	r2,81
  80e5b0:	18800015 	stw	r2,0(r3)
  }
  return -1;
  80e5b4:	00bfffc4 	movi	r2,-1
}
  80e5b8:	e037883a 	mov	sp,fp
  80e5bc:	dfc00117 	ldw	ra,4(sp)
  80e5c0:	df000017 	ldw	fp,0(sp)
  80e5c4:	dec00204 	addi	sp,sp,8
  80e5c8:	f800283a 	ret

0080e5cc <alt_release_fd>:
 * File descriptors correcponding to standard in, standard out and standard 
 * error cannont be released backed to the pool. They are always reserved.
 */

void alt_release_fd (int fd)
{
  80e5cc:	defffc04 	addi	sp,sp,-16
  80e5d0:	dfc00315 	stw	ra,12(sp)
  80e5d4:	df000215 	stw	fp,8(sp)
  80e5d8:	dc000115 	stw	r16,4(sp)
  80e5dc:	df000204 	addi	fp,sp,8
  80e5e0:	e13ffe15 	stw	r4,-8(fp)
  if (fd > 2)
  80e5e4:	e0bffe17 	ldw	r2,-8(fp)
  80e5e8:	108000d0 	cmplti	r2,r2,3
  80e5ec:	1000111e 	bne	r2,zero,80e634 <alt_release_fd+0x68>
  {
    alt_fd_list[fd].fd_flags = 0;
  80e5f0:	04002074 	movhi	r16,129
  80e5f4:	8402c804 	addi	r16,r16,2848
  80e5f8:	e0bffe17 	ldw	r2,-8(fp)
  80e5fc:	01400304 	movi	r5,12
  80e600:	1009883a 	mov	r4,r2
  80e604:	08005640 	call	800564 <__mulsi3>
  80e608:	8085883a 	add	r2,r16,r2
  80e60c:	10800204 	addi	r2,r2,8
  80e610:	10000015 	stw	zero,0(r2)
    alt_fd_list[fd].dev      = 0;
  80e614:	04002074 	movhi	r16,129
  80e618:	8402c804 	addi	r16,r16,2848
  80e61c:	e0bffe17 	ldw	r2,-8(fp)
  80e620:	01400304 	movi	r5,12
  80e624:	1009883a 	mov	r4,r2
  80e628:	08005640 	call	800564 <__mulsi3>
  80e62c:	8085883a 	add	r2,r16,r2
  80e630:	10000015 	stw	zero,0(r2)
  }
}
  80e634:	0001883a 	nop
  80e638:	e6ffff04 	addi	sp,fp,-4
  80e63c:	dfc00217 	ldw	ra,8(sp)
  80e640:	df000117 	ldw	fp,4(sp)
  80e644:	dc000017 	ldw	r16,0(sp)
  80e648:	dec00304 	addi	sp,sp,12
  80e64c:	f800283a 	ret

0080e650 <sbrk>:
#endif
 
caddr_t ALT_SBRK (int incr) __attribute__ ((no_instrument_function ));

caddr_t ALT_SBRK (int incr)
{ 
  80e650:	defff904 	addi	sp,sp,-28
  80e654:	df000615 	stw	fp,24(sp)
  80e658:	df000604 	addi	fp,sp,24
  80e65c:	e13fff15 	stw	r4,-4(fp)
static ALT_INLINE alt_irq_context ALT_ALWAYS_INLINE 
       alt_irq_disable_all (void)
{
  alt_irq_context context;

  NIOS2_READ_STATUS (context);
  80e660:	0005303a 	rdctl	r2,status
  80e664:	e0bffe15 	stw	r2,-8(fp)

  NIOS2_WRITE_STATUS (context & ~NIOS2_STATUS_PIE_MSK);
  80e668:	e0fffe17 	ldw	r3,-8(fp)
  80e66c:	00bfff84 	movi	r2,-2
  80e670:	1884703a 	and	r2,r3,r2
  80e674:	1001703a 	wrctl	status,r2
  
  return context;
  80e678:	e0bffe17 	ldw	r2,-8(fp)
  alt_irq_context context;
  char *prev_heap_end; 

  context = alt_irq_disable_all();
  80e67c:	e0bffb15 	stw	r2,-20(fp)

  /* Always return data aligned on a word boundary */
  heap_end = (char *)(((unsigned int)heap_end + 3) & ~3);
  80e680:	d0a00c17 	ldw	r2,-32720(gp)
  80e684:	10c000c4 	addi	r3,r2,3
  80e688:	00bfff04 	movi	r2,-4
  80e68c:	1884703a 	and	r2,r3,r2
  80e690:	d0a00c15 	stw	r2,-32720(gp)
  if (((heap_end + incr) - __alt_heap_start) > ALT_MAX_HEAP_BYTES) {
    alt_irq_enable_all(context);
    return (caddr_t)-1;
  }
#else
  if ((heap_end + incr) > __alt_heap_limit) {
  80e694:	d0e00c17 	ldw	r3,-32720(gp)
  80e698:	e0bfff17 	ldw	r2,-4(fp)
  80e69c:	1887883a 	add	r3,r3,r2
  80e6a0:	00804034 	movhi	r2,256
  80e6a4:	10800004 	addi	r2,r2,0
  80e6a8:	10c0062e 	bgeu	r2,r3,80e6c4 <sbrk+0x74>
  80e6ac:	e0bffb17 	ldw	r2,-20(fp)
  80e6b0:	e0bffa15 	stw	r2,-24(fp)
  status &= ~NIOS2_STATUS_PIE_MSK;
  status |= (context & NIOS2_STATUS_PIE_MSK);
  
  NIOS2_WRITE_STATUS (status);
#else
  NIOS2_WRITE_STATUS (context);
  80e6b4:	e0bffa17 	ldw	r2,-24(fp)
  80e6b8:	1001703a 	wrctl	status,r2
    alt_irq_enable_all(context);
    return (caddr_t)-1;
  80e6bc:	00bfffc4 	movi	r2,-1
  80e6c0:	00000b06 	br	80e6f0 <sbrk+0xa0>
  }
#endif

  prev_heap_end = heap_end; 
  80e6c4:	d0a00c17 	ldw	r2,-32720(gp)
  80e6c8:	e0bffd15 	stw	r2,-12(fp)
  heap_end += incr; 
  80e6cc:	d0e00c17 	ldw	r3,-32720(gp)
  80e6d0:	e0bfff17 	ldw	r2,-4(fp)
  80e6d4:	1885883a 	add	r2,r3,r2
  80e6d8:	d0a00c15 	stw	r2,-32720(gp)
  80e6dc:	e0bffb17 	ldw	r2,-20(fp)
  80e6e0:	e0bffc15 	stw	r2,-16(fp)
  80e6e4:	e0bffc17 	ldw	r2,-16(fp)
  80e6e8:	1001703a 	wrctl	status,r2

#endif

  alt_irq_enable_all(context);

  return (caddr_t) prev_heap_end; 
  80e6ec:	e0bffd17 	ldw	r2,-12(fp)
} 
  80e6f0:	e037883a 	mov	sp,fp
  80e6f4:	df000017 	ldw	fp,0(sp)
  80e6f8:	dec00104 	addi	sp,sp,4
  80e6fc:	f800283a 	ret

0080e700 <alt_get_errno>:
#undef errno

extern int errno;

static ALT_INLINE int* alt_get_errno(void)
{
  80e700:	defffe04 	addi	sp,sp,-8
  80e704:	dfc00115 	stw	ra,4(sp)
  80e708:	df000015 	stw	fp,0(sp)
  80e70c:	d839883a 	mov	fp,sp
  return ((alt_errno) ? alt_errno() : &errno);
  80e710:	d0a00b17 	ldw	r2,-32724(gp)
  80e714:	10000326 	beq	r2,zero,80e724 <alt_get_errno+0x24>
  80e718:	d0a00b17 	ldw	r2,-32724(gp)
  80e71c:	103ee83a 	callr	r2
  80e720:	00000106 	br	80e728 <alt_get_errno+0x28>
  80e724:	d0a2c404 	addi	r2,gp,-29936
}
  80e728:	e037883a 	mov	sp,fp
  80e72c:	dfc00117 	ldw	ra,4(sp)
  80e730:	df000017 	ldw	fp,0(sp)
  80e734:	dec00204 	addi	sp,sp,8
  80e738:	f800283a 	ret

0080e73c <times>:
 *
 * ALT_TIMES is mapped onto the times() system call in alt_syscall.h
 */
 
clock_t ALT_TIMES (struct tms *buf)
{
  80e73c:	defffc04 	addi	sp,sp,-16
  80e740:	dfc00315 	stw	ra,12(sp)
  80e744:	df000215 	stw	fp,8(sp)
  80e748:	df000204 	addi	fp,sp,8
  80e74c:	e13fff15 	stw	r4,-4(fp)
 * alt_nticks() returns the elapsed number of system clock ticks since reset.
 */

static ALT_INLINE alt_u32 ALT_ALWAYS_INLINE alt_nticks (void)
{
  return _alt_nticks;
  80e750:	d0a2ca17 	ldw	r2,-29912(gp)
  clock_t ticks = alt_nticks(); 
  80e754:	e0bffe15 	stw	r2,-8(fp)
 * Obtain the system clock rate in ticks/s. 
 */

static ALT_INLINE alt_u32 ALT_ALWAYS_INLINE alt_ticks_per_second (void)
{
  return _alt_tick_rate;
  80e758:	d0a2c917 	ldw	r2,-29916(gp)

  /* If there is no system clock present, generate an error */

  if (!alt_ticks_per_second())
  80e75c:	1000061e 	bne	r2,zero,80e778 <times+0x3c>
  {
    ALT_ERRNO = ENOSYS;
  80e760:	080e7000 	call	80e700 <alt_get_errno>
  80e764:	1007883a 	mov	r3,r2
  80e768:	00801604 	movi	r2,88
  80e76c:	18800015 	stw	r2,0(r3)
    return 0;
  80e770:	0005883a 	mov	r2,zero
  80e774:	00000a06 	br	80e7a0 <times+0x64>
  }

  /* Otherwise return the elapsed time */

  buf->tms_utime  = 0;
  80e778:	e0bfff17 	ldw	r2,-4(fp)
  80e77c:	10000015 	stw	zero,0(r2)
  buf->tms_stime  = ticks;
  80e780:	e0bfff17 	ldw	r2,-4(fp)
  80e784:	e0fffe17 	ldw	r3,-8(fp)
  80e788:	10c00115 	stw	r3,4(r2)
  buf->tms_cutime = 0;
  80e78c:	e0bfff17 	ldw	r2,-4(fp)
  80e790:	10000215 	stw	zero,8(r2)
  buf->tms_cstime = 0;
  80e794:	e0bfff17 	ldw	r2,-4(fp)
  80e798:	10000315 	stw	zero,12(r2)

  return ticks;
  80e79c:	e0bffe17 	ldw	r2,-8(fp)
}
  80e7a0:	e037883a 	mov	sp,fp
  80e7a4:	dfc00117 	ldw	ra,4(sp)
  80e7a8:	df000017 	ldw	fp,0(sp)
  80e7ac:	dec00204 	addi	sp,sp,8
  80e7b0:	f800283a 	ret

0080e7b4 <alt_get_errno>:
#undef errno

extern int errno;

static ALT_INLINE int* alt_get_errno(void)
{
  80e7b4:	defffe04 	addi	sp,sp,-8
  80e7b8:	dfc00115 	stw	ra,4(sp)
  80e7bc:	df000015 	stw	fp,0(sp)
  80e7c0:	d839883a 	mov	fp,sp
  return ((alt_errno) ? alt_errno() : &errno);
  80e7c4:	d0a00b17 	ldw	r2,-32724(gp)
  80e7c8:	10000326 	beq	r2,zero,80e7d8 <alt_get_errno+0x24>
  80e7cc:	d0a00b17 	ldw	r2,-32724(gp)
  80e7d0:	103ee83a 	callr	r2
  80e7d4:	00000106 	br	80e7dc <alt_get_errno+0x28>
  80e7d8:	d0a2c404 	addi	r2,gp,-29936
}
  80e7dc:	e037883a 	mov	sp,fp
  80e7e0:	dfc00117 	ldw	ra,4(sp)
  80e7e4:	df000017 	ldw	fp,0(sp)
  80e7e8:	dec00204 	addi	sp,sp,8
  80e7ec:	f800283a 	ret

0080e7f0 <write>:
}

#else /* !ALT_USE_DIRECT_DRIVERS */

int ALT_WRITE (int file, const void *ptr, size_t len)
{
  80e7f0:	defff904 	addi	sp,sp,-28
  80e7f4:	dfc00615 	stw	ra,24(sp)
  80e7f8:	df000515 	stw	fp,20(sp)
  80e7fc:	df000504 	addi	fp,sp,20
  80e800:	e13ffd15 	stw	r4,-12(fp)
  80e804:	e17ffe15 	stw	r5,-8(fp)
  80e808:	e1bfff15 	stw	r6,-4(fp)
   * A common error case is that when the file descriptor was created, the call
   * to open() failed resulting in a negative file descriptor. This is trapped
   * below so that we don't try and process an invalid file descriptor.
   */

  fd = (file < 0) ? NULL : &alt_fd_list[file];
  80e80c:	e0bffd17 	ldw	r2,-12(fp)
  80e810:	10000816 	blt	r2,zero,80e834 <write+0x44>
  80e814:	01400304 	movi	r5,12
  80e818:	e13ffd17 	ldw	r4,-12(fp)
  80e81c:	08005640 	call	800564 <__mulsi3>
  80e820:	1007883a 	mov	r3,r2
  80e824:	00802074 	movhi	r2,129
  80e828:	1082c804 	addi	r2,r2,2848
  80e82c:	1885883a 	add	r2,r3,r2
  80e830:	00000106 	br	80e838 <write+0x48>
  80e834:	0005883a 	mov	r2,zero
  80e838:	e0bffb15 	stw	r2,-20(fp)
  
  if (fd)
  80e83c:	e0bffb17 	ldw	r2,-20(fp)
  80e840:	10002126 	beq	r2,zero,80e8c8 <write+0xd8>
     * If the file has not been opened with write access, or if the driver does
     * not provide an implementation of write(), generate an error. Otherwise
     * call the drivers write() function to process the request.
     */

    if (((fd->fd_flags & O_ACCMODE) != O_RDONLY) && fd->dev->write)
  80e844:	e0bffb17 	ldw	r2,-20(fp)
  80e848:	10800217 	ldw	r2,8(r2)
  80e84c:	108000cc 	andi	r2,r2,3
  80e850:	10001826 	beq	r2,zero,80e8b4 <write+0xc4>
  80e854:	e0bffb17 	ldw	r2,-20(fp)
  80e858:	10800017 	ldw	r2,0(r2)
  80e85c:	10800617 	ldw	r2,24(r2)
  80e860:	10001426 	beq	r2,zero,80e8b4 <write+0xc4>
    {
      
      /* ALT_LOG - see altera_hal/HAL/inc/sys/alt_log_printf.h */
      ALT_LOG_WRITE_FUNCTION(ptr,len);

      if ((rval = fd->dev->write(fd, ptr, len)) < 0)
  80e864:	e0bffb17 	ldw	r2,-20(fp)
  80e868:	10800017 	ldw	r2,0(r2)
  80e86c:	10800617 	ldw	r2,24(r2)
  80e870:	e0ffff17 	ldw	r3,-4(fp)
  80e874:	180d883a 	mov	r6,r3
  80e878:	e17ffe17 	ldw	r5,-8(fp)
  80e87c:	e13ffb17 	ldw	r4,-20(fp)
  80e880:	103ee83a 	callr	r2
  80e884:	e0bffc15 	stw	r2,-16(fp)
  80e888:	e0bffc17 	ldw	r2,-16(fp)
  80e88c:	1000070e 	bge	r2,zero,80e8ac <write+0xbc>
      {
        ALT_ERRNO = -rval;
  80e890:	080e7b40 	call	80e7b4 <alt_get_errno>
  80e894:	1007883a 	mov	r3,r2
  80e898:	e0bffc17 	ldw	r2,-16(fp)
  80e89c:	0085c83a 	sub	r2,zero,r2
  80e8a0:	18800015 	stw	r2,0(r3)
        return -1;
  80e8a4:	00bfffc4 	movi	r2,-1
  80e8a8:	00000c06 	br	80e8dc <write+0xec>
      }
      return rval;
  80e8ac:	e0bffc17 	ldw	r2,-16(fp)
  80e8b0:	00000a06 	br	80e8dc <write+0xec>
    }
    else
    {
      ALT_ERRNO = EACCES;
  80e8b4:	080e7b40 	call	80e7b4 <alt_get_errno>
  80e8b8:	1007883a 	mov	r3,r2
  80e8bc:	00800344 	movi	r2,13
  80e8c0:	18800015 	stw	r2,0(r3)
  80e8c4:	00000406 	br	80e8d8 <write+0xe8>
    }
  }
  else  
  {
    ALT_ERRNO = EBADFD;
  80e8c8:	080e7b40 	call	80e7b4 <alt_get_errno>
  80e8cc:	1007883a 	mov	r3,r2
  80e8d0:	00801444 	movi	r2,81
  80e8d4:	18800015 	stw	r2,0(r3)
  }
  return -1;
  80e8d8:	00bfffc4 	movi	r2,-1
}
  80e8dc:	e037883a 	mov	sp,fp
  80e8e0:	dfc00117 	ldw	ra,4(sp)
  80e8e4:	df000017 	ldw	fp,0(sp)
  80e8e8:	dec00204 	addi	sp,sp,8
  80e8ec:	f800283a 	ret

0080e8f0 <alt_dev_reg>:
 */

extern int alt_fs_reg  (alt_dev* dev); 

static ALT_INLINE int alt_dev_reg (alt_dev* dev)
{
  80e8f0:	defffd04 	addi	sp,sp,-12
  80e8f4:	dfc00215 	stw	ra,8(sp)
  80e8f8:	df000115 	stw	fp,4(sp)
  80e8fc:	df000104 	addi	fp,sp,4
  80e900:	e13fff15 	stw	r4,-4(fp)
  extern alt_llist alt_dev_list;

  return alt_dev_llist_insert ((alt_dev_llist*) dev, &alt_dev_list);
  80e904:	d1600804 	addi	r5,gp,-32736
  80e908:	e13fff17 	ldw	r4,-4(fp)
  80e90c:	080ed640 	call	80ed64 <alt_dev_llist_insert>
}
  80e910:	e037883a 	mov	sp,fp
  80e914:	dfc00117 	ldw	ra,4(sp)
  80e918:	df000017 	ldw	fp,0(sp)
  80e91c:	dec00204 	addi	sp,sp,8
  80e920:	f800283a 	ret

0080e924 <alt_irq_init>:
 * The "base" parameter is ignored and only
 * present for backwards-compatibility.
 */

void alt_irq_init ( const void* base )
{
  80e924:	defffd04 	addi	sp,sp,-12
  80e928:	dfc00215 	stw	ra,8(sp)
  80e92c:	df000115 	stw	fp,4(sp)
  80e930:	df000104 	addi	fp,sp,4
  80e934:	e13fff15 	stw	r4,-4(fp)
    ALTERA_NIOS2_GEN2_IRQ_INIT ( CPU, cpu);
  80e938:	080f7240 	call	80f724 <altera_nios2_gen2_irq_init>
 * alt_irq_cpu_enable_interrupts() enables the CPU to start taking interrupts.
 */
static ALT_INLINE void ALT_ALWAYS_INLINE 
       alt_irq_cpu_enable_interrupts (void)
{
    NIOS2_WRITE_STATUS(NIOS2_STATUS_PIE_MSK
  80e93c:	00800044 	movi	r2,1
  80e940:	1001703a 	wrctl	status,r2
    alt_irq_cpu_enable_interrupts();
}
  80e944:	0001883a 	nop
  80e948:	e037883a 	mov	sp,fp
  80e94c:	dfc00117 	ldw	ra,4(sp)
  80e950:	df000017 	ldw	fp,0(sp)
  80e954:	dec00204 	addi	sp,sp,8
  80e958:	f800283a 	ret

0080e95c <alt_sys_init>:
 * Initialize the non-interrupt controller devices.
 * Called after alt_irq_init().
 */

void alt_sys_init( void )
{
  80e95c:	defffe04 	addi	sp,sp,-8
  80e960:	dfc00115 	stw	ra,4(sp)
  80e964:	df000015 	stw	fp,0(sp)
  80e968:	d839883a 	mov	fp,sp
    ALTERA_AVALON_TIMER_INIT ( SYS_CLK_TIMER, sys_clk_timer);
  80e96c:	01c0fa04 	movi	r7,1000
  80e970:	01800044 	movi	r6,1
  80e974:	000b883a 	mov	r5,zero
  80e978:	01004034 	movhi	r4,256
  80e97c:	21040004 	addi	r4,r4,4096
  80e980:	080ec640 	call	80ec64 <alt_avalon_timer_sc_init>
    ALTERA_AVALON_JTAG_UART_INIT ( JTAG_UART, jtag_uart);
  80e984:	01002074 	movhi	r4,129
  80e988:	21032804 	addi	r4,r4,3232
  80e98c:	080e8f00 	call	80e8f0 <alt_dev_reg>
    ALTERA_AVALON_SYSID_QSYS_INIT ( SYSID, sysid);
  80e990:	0001883a 	nop
}
  80e994:	0001883a 	nop
  80e998:	e037883a 	mov	sp,fp
  80e99c:	dfc00117 	ldw	ra,4(sp)
  80e9a0:	df000017 	ldw	fp,0(sp)
  80e9a4:	dec00204 	addi	sp,sp,8
  80e9a8:	f800283a 	ret

0080e9ac <altera_avalon_jtag_uart_read_fd>:
 *
 */

int 
altera_avalon_jtag_uart_read_fd(alt_fd* fd, char* buffer, int space)
{
  80e9ac:	defffa04 	addi	sp,sp,-24
  80e9b0:	dfc00515 	stw	ra,20(sp)
  80e9b4:	df000415 	stw	fp,16(sp)
  80e9b8:	df000404 	addi	fp,sp,16
  80e9bc:	e13ffd15 	stw	r4,-12(fp)
  80e9c0:	e17ffe15 	stw	r5,-8(fp)
  80e9c4:	e1bfff15 	stw	r6,-4(fp)
    altera_avalon_jtag_uart_dev* dev = (altera_avalon_jtag_uart_dev*) fd->dev; 
  80e9c8:	e0bffd17 	ldw	r2,-12(fp)
  80e9cc:	10800017 	ldw	r2,0(r2)
  80e9d0:	e0bffc15 	stw	r2,-16(fp)

    return altera_avalon_jtag_uart_read(&dev->state, buffer, space,
  80e9d4:	e0bffc17 	ldw	r2,-16(fp)
  80e9d8:	10c00a04 	addi	r3,r2,40
  80e9dc:	e0bffd17 	ldw	r2,-12(fp)
  80e9e0:	10800217 	ldw	r2,8(r2)
  80e9e4:	100f883a 	mov	r7,r2
  80e9e8:	e1bfff17 	ldw	r6,-4(fp)
  80e9ec:	e17ffe17 	ldw	r5,-8(fp)
  80e9f0:	1809883a 	mov	r4,r3
  80e9f4:	080ea6c0 	call	80ea6c <altera_avalon_jtag_uart_read>
      fd->fd_flags);
}
  80e9f8:	e037883a 	mov	sp,fp
  80e9fc:	dfc00117 	ldw	ra,4(sp)
  80ea00:	df000017 	ldw	fp,0(sp)
  80ea04:	dec00204 	addi	sp,sp,8
  80ea08:	f800283a 	ret

0080ea0c <altera_avalon_jtag_uart_write_fd>:

int 
altera_avalon_jtag_uart_write_fd(alt_fd* fd, const char* buffer, int space)
{
  80ea0c:	defffa04 	addi	sp,sp,-24
  80ea10:	dfc00515 	stw	ra,20(sp)
  80ea14:	df000415 	stw	fp,16(sp)
  80ea18:	df000404 	addi	fp,sp,16
  80ea1c:	e13ffd15 	stw	r4,-12(fp)
  80ea20:	e17ffe15 	stw	r5,-8(fp)
  80ea24:	e1bfff15 	stw	r6,-4(fp)
    altera_avalon_jtag_uart_dev* dev = (altera_avalon_jtag_uart_dev*) fd->dev; 
  80ea28:	e0bffd17 	ldw	r2,-12(fp)
  80ea2c:	10800017 	ldw	r2,0(r2)
  80ea30:	e0bffc15 	stw	r2,-16(fp)

    return altera_avalon_jtag_uart_write(&dev->state, buffer, space,
  80ea34:	e0bffc17 	ldw	r2,-16(fp)
  80ea38:	10c00a04 	addi	r3,r2,40
  80ea3c:	e0bffd17 	ldw	r2,-12(fp)
  80ea40:	10800217 	ldw	r2,8(r2)
  80ea44:	100f883a 	mov	r7,r2
  80ea48:	e1bfff17 	ldw	r6,-4(fp)
  80ea4c:	e17ffe17 	ldw	r5,-8(fp)
  80ea50:	1809883a 	mov	r4,r3
  80ea54:	080eb580 	call	80eb58 <altera_avalon_jtag_uart_write>
      fd->fd_flags);
}
  80ea58:	e037883a 	mov	sp,fp
  80ea5c:	dfc00117 	ldw	ra,4(sp)
  80ea60:	df000017 	ldw	fp,0(sp)
  80ea64:	dec00204 	addi	sp,sp,8
  80ea68:	f800283a 	ret

0080ea6c <altera_avalon_jtag_uart_read>:
 */

int 
altera_avalon_jtag_uart_read(altera_avalon_jtag_uart_state* sp, 
  char* buffer, int space, int flags)
{
  80ea6c:	defff704 	addi	sp,sp,-36
  80ea70:	df000815 	stw	fp,32(sp)
  80ea74:	df000804 	addi	fp,sp,32
  80ea78:	e13ffc15 	stw	r4,-16(fp)
  80ea7c:	e17ffd15 	stw	r5,-12(fp)
  80ea80:	e1bffe15 	stw	r6,-8(fp)
  80ea84:	e1ffff15 	stw	r7,-4(fp)
  unsigned int base = sp->base;
  80ea88:	e0bffc17 	ldw	r2,-16(fp)
  80ea8c:	10800017 	ldw	r2,0(r2)
  80ea90:	e0bff915 	stw	r2,-28(fp)

  char * ptr = buffer;
  80ea94:	e0bffd17 	ldw	r2,-12(fp)
  80ea98:	e0bff815 	stw	r2,-32(fp)
  char * end = buffer + space;
  80ea9c:	e0bffe17 	ldw	r2,-8(fp)
  80eaa0:	e0fffd17 	ldw	r3,-12(fp)
  80eaa4:	1885883a 	add	r2,r3,r2
  80eaa8:	e0bffa15 	stw	r2,-24(fp)

  while (ptr < end)
  80eaac:	00001206 	br	80eaf8 <altera_avalon_jtag_uart_read+0x8c>
  {
    unsigned int data = IORD_ALTERA_AVALON_JTAG_UART_DATA(base);
  80eab0:	e0bff917 	ldw	r2,-28(fp)
  80eab4:	10800037 	ldwio	r2,0(r2)
  80eab8:	e0bffb15 	stw	r2,-20(fp)

    if (data & ALTERA_AVALON_JTAG_UART_DATA_RVALID_MSK)
  80eabc:	e0bffb17 	ldw	r2,-20(fp)
  80eac0:	10a0000c 	andi	r2,r2,32768
  80eac4:	10000626 	beq	r2,zero,80eae0 <altera_avalon_jtag_uart_read+0x74>
      *ptr++ = (data & ALTERA_AVALON_JTAG_UART_DATA_DATA_MSK) >> ALTERA_AVALON_JTAG_UART_DATA_DATA_OFST;
  80eac8:	e0bff817 	ldw	r2,-32(fp)
  80eacc:	10c00044 	addi	r3,r2,1
  80ead0:	e0fff815 	stw	r3,-32(fp)
  80ead4:	e0fffb17 	ldw	r3,-20(fp)
  80ead8:	10c00005 	stb	r3,0(r2)
  80eadc:	00000606 	br	80eaf8 <altera_avalon_jtag_uart_read+0x8c>
    else if (ptr != buffer)
  80eae0:	e0fff817 	ldw	r3,-32(fp)
  80eae4:	e0bffd17 	ldw	r2,-12(fp)
  80eae8:	1880071e 	bne	r3,r2,80eb08 <altera_avalon_jtag_uart_read+0x9c>
      break;
    else if(flags & O_NONBLOCK)
  80eaec:	e0bfff17 	ldw	r2,-4(fp)
  80eaf0:	1090000c 	andi	r2,r2,16384
  80eaf4:	1000061e 	bne	r2,zero,80eb10 <altera_avalon_jtag_uart_read+0xa4>
  unsigned int base = sp->base;

  char * ptr = buffer;
  char * end = buffer + space;

  while (ptr < end)
  80eaf8:	e0fff817 	ldw	r3,-32(fp)
  80eafc:	e0bffa17 	ldw	r2,-24(fp)
  80eb00:	18bfeb36 	bltu	r3,r2,80eab0 <__alt_data_end+0xff80eab0>
  80eb04:	00000306 	br	80eb14 <altera_avalon_jtag_uart_read+0xa8>
    unsigned int data = IORD_ALTERA_AVALON_JTAG_UART_DATA(base);

    if (data & ALTERA_AVALON_JTAG_UART_DATA_RVALID_MSK)
      *ptr++ = (data & ALTERA_AVALON_JTAG_UART_DATA_DATA_MSK) >> ALTERA_AVALON_JTAG_UART_DATA_DATA_OFST;
    else if (ptr != buffer)
      break;
  80eb08:	0001883a 	nop
  80eb0c:	00000106 	br	80eb14 <altera_avalon_jtag_uart_read+0xa8>
    else if(flags & O_NONBLOCK)
      break;   
  80eb10:	0001883a 	nop
    
  }

  if (ptr != buffer)
  80eb14:	e0fff817 	ldw	r3,-32(fp)
  80eb18:	e0bffd17 	ldw	r2,-12(fp)
  80eb1c:	18800426 	beq	r3,r2,80eb30 <altera_avalon_jtag_uart_read+0xc4>
    return ptr - buffer;
  80eb20:	e0fff817 	ldw	r3,-32(fp)
  80eb24:	e0bffd17 	ldw	r2,-12(fp)
  80eb28:	1885c83a 	sub	r2,r3,r2
  80eb2c:	00000606 	br	80eb48 <altera_avalon_jtag_uart_read+0xdc>
  else if (flags & O_NONBLOCK)
  80eb30:	e0bfff17 	ldw	r2,-4(fp)
  80eb34:	1090000c 	andi	r2,r2,16384
  80eb38:	10000226 	beq	r2,zero,80eb44 <altera_avalon_jtag_uart_read+0xd8>
    return -EWOULDBLOCK;
  80eb3c:	00bffd44 	movi	r2,-11
  80eb40:	00000106 	br	80eb48 <altera_avalon_jtag_uart_read+0xdc>
  else
    return -EIO;
  80eb44:	00bffec4 	movi	r2,-5
}
  80eb48:	e037883a 	mov	sp,fp
  80eb4c:	df000017 	ldw	fp,0(sp)
  80eb50:	dec00104 	addi	sp,sp,4
  80eb54:	f800283a 	ret

0080eb58 <altera_avalon_jtag_uart_write>:
 * one FIFOs worth of data.  But you said you didn't want to use interrupts :-)
 */

int altera_avalon_jtag_uart_write(altera_avalon_jtag_uart_state* sp, 
  const char * ptr, int count, int flags)
{
  80eb58:	defff904 	addi	sp,sp,-28
  80eb5c:	df000615 	stw	fp,24(sp)
  80eb60:	df000604 	addi	fp,sp,24
  80eb64:	e13ffc15 	stw	r4,-16(fp)
  80eb68:	e17ffd15 	stw	r5,-12(fp)
  80eb6c:	e1bffe15 	stw	r6,-8(fp)
  80eb70:	e1ffff15 	stw	r7,-4(fp)
  unsigned int base = sp->base;
  80eb74:	e0bffc17 	ldw	r2,-16(fp)
  80eb78:	10800017 	ldw	r2,0(r2)
  80eb7c:	e0bffa15 	stw	r2,-24(fp)

  const char * end = ptr + count;
  80eb80:	e0bffe17 	ldw	r2,-8(fp)
  80eb84:	e0fffd17 	ldw	r3,-12(fp)
  80eb88:	1885883a 	add	r2,r3,r2
  80eb8c:	e0bffb15 	stw	r2,-20(fp)

  while (ptr < end)
  80eb90:	00000e06 	br	80ebcc <altera_avalon_jtag_uart_write+0x74>
    if ((IORD_ALTERA_AVALON_JTAG_UART_CONTROL(base) & ALTERA_AVALON_JTAG_UART_CONTROL_WSPACE_MSK) != 0)
  80eb94:	e0bffa17 	ldw	r2,-24(fp)
  80eb98:	10800104 	addi	r2,r2,4
  80eb9c:	10800037 	ldwio	r2,0(r2)
  80eba0:	10bfffec 	andhi	r2,r2,65535
  80eba4:	10000926 	beq	r2,zero,80ebcc <altera_avalon_jtag_uart_write+0x74>
      IOWR_ALTERA_AVALON_JTAG_UART_DATA(base, *ptr++);
  80eba8:	e0fffa17 	ldw	r3,-24(fp)
  80ebac:	e0bffd17 	ldw	r2,-12(fp)
  80ebb0:	11000044 	addi	r4,r2,1
  80ebb4:	e13ffd15 	stw	r4,-12(fp)
  80ebb8:	10800003 	ldbu	r2,0(r2)
  80ebbc:	10803fcc 	andi	r2,r2,255
  80ebc0:	1080201c 	xori	r2,r2,128
  80ebc4:	10bfe004 	addi	r2,r2,-128
  80ebc8:	18800035 	stwio	r2,0(r3)
{
  unsigned int base = sp->base;

  const char * end = ptr + count;

  while (ptr < end)
  80ebcc:	e0fffd17 	ldw	r3,-12(fp)
  80ebd0:	e0bffb17 	ldw	r2,-20(fp)
  80ebd4:	18bfef36 	bltu	r3,r2,80eb94 <__alt_data_end+0xff80eb94>
    if ((IORD_ALTERA_AVALON_JTAG_UART_CONTROL(base) & ALTERA_AVALON_JTAG_UART_CONTROL_WSPACE_MSK) != 0)
      IOWR_ALTERA_AVALON_JTAG_UART_DATA(base, *ptr++);

  return count;
  80ebd8:	e0bffe17 	ldw	r2,-8(fp)
}
  80ebdc:	e037883a 	mov	sp,fp
  80ebe0:	df000017 	ldw	fp,0(sp)
  80ebe4:	dec00104 	addi	sp,sp,4
  80ebe8:	f800283a 	ret

0080ebec <alt_avalon_timer_sc_irq>:
#ifdef ALT_ENHANCED_INTERRUPT_API_PRESENT
static void alt_avalon_timer_sc_irq (void* base)
#else
static void alt_avalon_timer_sc_irq (void* base, alt_u32 id)
#endif
{
  80ebec:	defffa04 	addi	sp,sp,-24
  80ebf0:	dfc00515 	stw	ra,20(sp)
  80ebf4:	df000415 	stw	fp,16(sp)
  80ebf8:	df000404 	addi	fp,sp,16
  80ebfc:	e13fff15 	stw	r4,-4(fp)
  alt_irq_context cpu_sr;
  
  /* clear the interrupt */
  IOWR_ALTERA_AVALON_TIMER_STATUS (base, 0);
  80ec00:	0007883a 	mov	r3,zero
  80ec04:	e0bfff17 	ldw	r2,-4(fp)
  80ec08:	10c00035 	stwio	r3,0(r2)
  /* 
   * Dummy read to ensure IRQ is negated before the ISR returns.
   * The control register is read because reading the status
   * register has side-effects per the register map documentation.
   */
  IORD_ALTERA_AVALON_TIMER_CONTROL (base);
  80ec0c:	e0bfff17 	ldw	r2,-4(fp)
  80ec10:	10800104 	addi	r2,r2,4
  80ec14:	10800037 	ldwio	r2,0(r2)
static ALT_INLINE alt_irq_context ALT_ALWAYS_INLINE 
       alt_irq_disable_all (void)
{
  alt_irq_context context;

  NIOS2_READ_STATUS (context);
  80ec18:	0005303a 	rdctl	r2,status
  80ec1c:	e0bffd15 	stw	r2,-12(fp)

  NIOS2_WRITE_STATUS (context & ~NIOS2_STATUS_PIE_MSK);
  80ec20:	e0fffd17 	ldw	r3,-12(fp)
  80ec24:	00bfff84 	movi	r2,-2
  80ec28:	1884703a 	and	r2,r3,r2
  80ec2c:	1001703a 	wrctl	status,r2
  
  return context;
  80ec30:	e0bffd17 	ldw	r2,-12(fp)

  /* 
   * Notify the system of a clock tick. disable interrupts 
   * during this time to safely support ISR preemption
   */
  cpu_sr = alt_irq_disable_all();
  80ec34:	e0bffc15 	stw	r2,-16(fp)
  alt_tick ();
  80ec38:	080f61c0 	call	80f61c <alt_tick>
  80ec3c:	e0bffc17 	ldw	r2,-16(fp)
  80ec40:	e0bffe15 	stw	r2,-8(fp)
  status &= ~NIOS2_STATUS_PIE_MSK;
  status |= (context & NIOS2_STATUS_PIE_MSK);
  
  NIOS2_WRITE_STATUS (status);
#else
  NIOS2_WRITE_STATUS (context);
  80ec44:	e0bffe17 	ldw	r2,-8(fp)
  80ec48:	1001703a 	wrctl	status,r2
  alt_irq_enable_all(cpu_sr);
}
  80ec4c:	0001883a 	nop
  80ec50:	e037883a 	mov	sp,fp
  80ec54:	dfc00117 	ldw	ra,4(sp)
  80ec58:	df000017 	ldw	fp,0(sp)
  80ec5c:	dec00204 	addi	sp,sp,8
  80ec60:	f800283a 	ret

0080ec64 <alt_avalon_timer_sc_init>:
 * auto-generated alt_sys_init() function.
 */

void alt_avalon_timer_sc_init (void* base, alt_u32 irq_controller_id, 
                                alt_u32 irq, alt_u32 freq)
{
  80ec64:	defff804 	addi	sp,sp,-32
  80ec68:	dfc00715 	stw	ra,28(sp)
  80ec6c:	df000615 	stw	fp,24(sp)
  80ec70:	df000604 	addi	fp,sp,24
  80ec74:	e13ffc15 	stw	r4,-16(fp)
  80ec78:	e17ffd15 	stw	r5,-12(fp)
  80ec7c:	e1bffe15 	stw	r6,-8(fp)
  80ec80:	e1ffff15 	stw	r7,-4(fp)
  80ec84:	e0bfff17 	ldw	r2,-4(fp)
  80ec88:	e0bffb15 	stw	r2,-20(fp)
 * in order to initialise the value of the clock frequency.
 */

static ALT_INLINE int ALT_ALWAYS_INLINE alt_sysclk_init (alt_u32 nticks)
{
  if (! _alt_tick_rate)
  80ec8c:	d0a2c917 	ldw	r2,-29916(gp)
  80ec90:	1000021e 	bne	r2,zero,80ec9c <alt_avalon_timer_sc_init+0x38>
  {
    _alt_tick_rate = nticks;
  80ec94:	e0bffb17 	ldw	r2,-20(fp)
  80ec98:	d0a2c915 	stw	r2,-29916(gp)
  
  alt_sysclk_init (freq);
  
  /* set to free running mode */
  
  IOWR_ALTERA_AVALON_TIMER_CONTROL (base, 
  80ec9c:	e0bffc17 	ldw	r2,-16(fp)
  80eca0:	10800104 	addi	r2,r2,4
  80eca4:	00c001c4 	movi	r3,7
  80eca8:	10c00035 	stwio	r3,0(r2)
            ALTERA_AVALON_TIMER_CONTROL_CONT_MSK |
            ALTERA_AVALON_TIMER_CONTROL_START_MSK);

  /* register the interrupt handler, and enable the interrupt */
#ifdef ALT_ENHANCED_INTERRUPT_API_PRESENT
  alt_ic_isr_register(irq_controller_id, irq, alt_avalon_timer_sc_irq, 
  80ecac:	d8000015 	stw	zero,0(sp)
  80ecb0:	e1fffc17 	ldw	r7,-16(fp)
  80ecb4:	01802074 	movhi	r6,129
  80ecb8:	31bafb04 	addi	r6,r6,-5140
  80ecbc:	e17ffe17 	ldw	r5,-8(fp)
  80ecc0:	e13ffd17 	ldw	r4,-12(fp)
  80ecc4:	080eefc0 	call	80eefc <alt_ic_isr_register>
                      base, NULL);
#else
  alt_irq_register (irq, base, alt_avalon_timer_sc_irq);
#endif  
}
  80ecc8:	0001883a 	nop
  80eccc:	e037883a 	mov	sp,fp
  80ecd0:	dfc00117 	ldw	ra,4(sp)
  80ecd4:	df000017 	ldw	fp,0(sp)
  80ecd8:	dec00204 	addi	sp,sp,8
  80ecdc:	f800283a 	ret

0080ece0 <alt_dcache_flush_all>:
/*
 * alt_dcache_flush_all() is called to flush the entire data cache.
 */

void alt_dcache_flush_all (void)
{
  80ece0:	defffe04 	addi	sp,sp,-8
  80ece4:	df000115 	stw	fp,4(sp)
  80ece8:	df000104 	addi	fp,sp,4
#if NIOS2_DCACHE_SIZE > 0
  char* i;
  
  for (i = (char*) 0; i < (char*) NIOS2_DCACHE_SIZE; i+= NIOS2_DCACHE_LINE_SIZE)
  80ecec:	e03fff15 	stw	zero,-4(fp)
  80ecf0:	00000506 	br	80ed08 <alt_dcache_flush_all+0x28>
  { 
    __asm__ volatile ("flushd (%0)" :: "r" (i));
  80ecf4:	e0bfff17 	ldw	r2,-4(fp)
  80ecf8:	1000003b 	flushd	0(r2)
void alt_dcache_flush_all (void)
{
#if NIOS2_DCACHE_SIZE > 0
  char* i;
  
  for (i = (char*) 0; i < (char*) NIOS2_DCACHE_SIZE; i+= NIOS2_DCACHE_LINE_SIZE)
  80ecfc:	e0bfff17 	ldw	r2,-4(fp)
  80ed00:	10800804 	addi	r2,r2,32
  80ed04:	e0bfff15 	stw	r2,-4(fp)
  80ed08:	e0bfff17 	ldw	r2,-4(fp)
  80ed0c:	10810030 	cmpltui	r2,r2,1024
  80ed10:	103ff81e 	bne	r2,zero,80ecf4 <__alt_data_end+0xff80ecf4>
  { 
    __asm__ volatile ("flushd (%0)" :: "r" (i));
  }
#endif /* NIOS2_DCACHE_SIZE > 0 */
}
  80ed14:	0001883a 	nop
  80ed18:	e037883a 	mov	sp,fp
  80ed1c:	df000017 	ldw	fp,0(sp)
  80ed20:	dec00104 	addi	sp,sp,4
  80ed24:	f800283a 	ret

0080ed28 <alt_get_errno>:
#undef errno

extern int errno;

static ALT_INLINE int* alt_get_errno(void)
{
  80ed28:	defffe04 	addi	sp,sp,-8
  80ed2c:	dfc00115 	stw	ra,4(sp)
  80ed30:	df000015 	stw	fp,0(sp)
  80ed34:	d839883a 	mov	fp,sp
  return ((alt_errno) ? alt_errno() : &errno);
  80ed38:	d0a00b17 	ldw	r2,-32724(gp)
  80ed3c:	10000326 	beq	r2,zero,80ed4c <alt_get_errno+0x24>
  80ed40:	d0a00b17 	ldw	r2,-32724(gp)
  80ed44:	103ee83a 	callr	r2
  80ed48:	00000106 	br	80ed50 <alt_get_errno+0x28>
  80ed4c:	d0a2c404 	addi	r2,gp,-29936
}
  80ed50:	e037883a 	mov	sp,fp
  80ed54:	dfc00117 	ldw	ra,4(sp)
  80ed58:	df000017 	ldw	fp,0(sp)
  80ed5c:	dec00204 	addi	sp,sp,8
  80ed60:	f800283a 	ret

0080ed64 <alt_dev_llist_insert>:
/*
 *
 */

int alt_dev_llist_insert (alt_dev_llist* dev, alt_llist* list)
{
  80ed64:	defffa04 	addi	sp,sp,-24
  80ed68:	dfc00515 	stw	ra,20(sp)
  80ed6c:	df000415 	stw	fp,16(sp)
  80ed70:	df000404 	addi	fp,sp,16
  80ed74:	e13ffe15 	stw	r4,-8(fp)
  80ed78:	e17fff15 	stw	r5,-4(fp)
  /*
   * check that the device exists, and that it has a valid name.
   */

  if (!dev || !dev->name)
  80ed7c:	e0bffe17 	ldw	r2,-8(fp)
  80ed80:	10000326 	beq	r2,zero,80ed90 <alt_dev_llist_insert+0x2c>
  80ed84:	e0bffe17 	ldw	r2,-8(fp)
  80ed88:	10800217 	ldw	r2,8(r2)
  80ed8c:	1000061e 	bne	r2,zero,80eda8 <alt_dev_llist_insert+0x44>
  {
    ALT_ERRNO = EINVAL;
  80ed90:	080ed280 	call	80ed28 <alt_get_errno>
  80ed94:	1007883a 	mov	r3,r2
  80ed98:	00800584 	movi	r2,22
  80ed9c:	18800015 	stw	r2,0(r3)
    return -EINVAL;
  80eda0:	00bffa84 	movi	r2,-22
  80eda4:	00001306 	br	80edf4 <alt_dev_llist_insert+0x90>
  
  /*
   * register the device.
   */
  
  alt_llist_insert(list, &dev->llist);
  80eda8:	e0bffe17 	ldw	r2,-8(fp)
  80edac:	e0ffff17 	ldw	r3,-4(fp)
  80edb0:	e0fffc15 	stw	r3,-16(fp)
  80edb4:	e0bffd15 	stw	r2,-12(fp)
 */

static ALT_INLINE void ALT_ALWAYS_INLINE alt_llist_insert(alt_llist* list, 
                alt_llist* entry)
{
  entry->previous = list;
  80edb8:	e0bffd17 	ldw	r2,-12(fp)
  80edbc:	e0fffc17 	ldw	r3,-16(fp)
  80edc0:	10c00115 	stw	r3,4(r2)
  entry->next     = list->next;
  80edc4:	e0bffc17 	ldw	r2,-16(fp)
  80edc8:	10c00017 	ldw	r3,0(r2)
  80edcc:	e0bffd17 	ldw	r2,-12(fp)
  80edd0:	10c00015 	stw	r3,0(r2)

  list->next->previous = entry;
  80edd4:	e0bffc17 	ldw	r2,-16(fp)
  80edd8:	10800017 	ldw	r2,0(r2)
  80eddc:	e0fffd17 	ldw	r3,-12(fp)
  80ede0:	10c00115 	stw	r3,4(r2)
  list->next           = entry;
  80ede4:	e0bffc17 	ldw	r2,-16(fp)
  80ede8:	e0fffd17 	ldw	r3,-12(fp)
  80edec:	10c00015 	stw	r3,0(r2)

  return 0;  
  80edf0:	0005883a 	mov	r2,zero
}
  80edf4:	e037883a 	mov	sp,fp
  80edf8:	dfc00117 	ldw	ra,4(sp)
  80edfc:	df000017 	ldw	fp,0(sp)
  80ee00:	dec00204 	addi	sp,sp,8
  80ee04:	f800283a 	ret

0080ee08 <_do_ctors>:
/*
 * Run the C++ static constructors.
 */

void _do_ctors(void)
{
  80ee08:	defffd04 	addi	sp,sp,-12
  80ee0c:	dfc00215 	stw	ra,8(sp)
  80ee10:	df000115 	stw	fp,4(sp)
  80ee14:	df000104 	addi	fp,sp,4
  constructor* ctor;

  for (ctor = &__CTOR_END__[-1]; ctor >= __CTOR_LIST__; ctor--)
  80ee18:	00802074 	movhi	r2,129
  80ee1c:	10bfc504 	addi	r2,r2,-236
  80ee20:	e0bfff15 	stw	r2,-4(fp)
  80ee24:	00000606 	br	80ee40 <_do_ctors+0x38>
        (*ctor) (); 
  80ee28:	e0bfff17 	ldw	r2,-4(fp)
  80ee2c:	10800017 	ldw	r2,0(r2)
  80ee30:	103ee83a 	callr	r2

void _do_ctors(void)
{
  constructor* ctor;

  for (ctor = &__CTOR_END__[-1]; ctor >= __CTOR_LIST__; ctor--)
  80ee34:	e0bfff17 	ldw	r2,-4(fp)
  80ee38:	10bfff04 	addi	r2,r2,-4
  80ee3c:	e0bfff15 	stw	r2,-4(fp)
  80ee40:	e0ffff17 	ldw	r3,-4(fp)
  80ee44:	00802074 	movhi	r2,129
  80ee48:	10bfc604 	addi	r2,r2,-232
  80ee4c:	18bff62e 	bgeu	r3,r2,80ee28 <__alt_data_end+0xff80ee28>
        (*ctor) (); 
}
  80ee50:	0001883a 	nop
  80ee54:	e037883a 	mov	sp,fp
  80ee58:	dfc00117 	ldw	ra,4(sp)
  80ee5c:	df000017 	ldw	fp,0(sp)
  80ee60:	dec00204 	addi	sp,sp,8
  80ee64:	f800283a 	ret

0080ee68 <_do_dtors>:
/*
 * Run the C++ static destructors.
 */

void _do_dtors(void)
{
  80ee68:	defffd04 	addi	sp,sp,-12
  80ee6c:	dfc00215 	stw	ra,8(sp)
  80ee70:	df000115 	stw	fp,4(sp)
  80ee74:	df000104 	addi	fp,sp,4
  destructor* dtor;

  for (dtor = &__DTOR_END__[-1]; dtor >= __DTOR_LIST__; dtor--)
  80ee78:	00802074 	movhi	r2,129
  80ee7c:	10bfc504 	addi	r2,r2,-236
  80ee80:	e0bfff15 	stw	r2,-4(fp)
  80ee84:	00000606 	br	80eea0 <_do_dtors+0x38>
        (*dtor) (); 
  80ee88:	e0bfff17 	ldw	r2,-4(fp)
  80ee8c:	10800017 	ldw	r2,0(r2)
  80ee90:	103ee83a 	callr	r2

void _do_dtors(void)
{
  destructor* dtor;

  for (dtor = &__DTOR_END__[-1]; dtor >= __DTOR_LIST__; dtor--)
  80ee94:	e0bfff17 	ldw	r2,-4(fp)
  80ee98:	10bfff04 	addi	r2,r2,-4
  80ee9c:	e0bfff15 	stw	r2,-4(fp)
  80eea0:	e0ffff17 	ldw	r3,-4(fp)
  80eea4:	00802074 	movhi	r2,129
  80eea8:	10bfc604 	addi	r2,r2,-232
  80eeac:	18bff62e 	bgeu	r3,r2,80ee88 <__alt_data_end+0xff80ee88>
        (*dtor) (); 
}
  80eeb0:	0001883a 	nop
  80eeb4:	e037883a 	mov	sp,fp
  80eeb8:	dfc00117 	ldw	ra,4(sp)
  80eebc:	df000017 	ldw	fp,0(sp)
  80eec0:	dec00204 	addi	sp,sp,8
  80eec4:	f800283a 	ret

0080eec8 <alt_icache_flush_all>:
/*
 * alt_icache_flush_all() is called to flush the entire instruction cache.
 */

void alt_icache_flush_all (void)
{
  80eec8:	defffe04 	addi	sp,sp,-8
  80eecc:	dfc00115 	stw	ra,4(sp)
  80eed0:	df000015 	stw	fp,0(sp)
  80eed4:	d839883a 	mov	fp,sp
#if NIOS2_ICACHE_SIZE > 0
  alt_icache_flush (0, NIOS2_ICACHE_SIZE);
  80eed8:	01410004 	movi	r5,1024
  80eedc:	0009883a 	mov	r4,zero
  80eee0:	080f9a40 	call	80f9a4 <alt_icache_flush>
#endif
}
  80eee4:	0001883a 	nop
  80eee8:	e037883a 	mov	sp,fp
  80eeec:	dfc00117 	ldw	ra,4(sp)
  80eef0:	df000017 	ldw	fp,0(sp)
  80eef4:	dec00204 	addi	sp,sp,8
  80eef8:	f800283a 	ret

0080eefc <alt_ic_isr_register>:
  * @param irq              IRQ number
  * @return                 0 if successful, else error (-1)
  */
int alt_ic_isr_register(alt_u32 ic_id, alt_u32 irq, alt_isr_func isr, 
  void *isr_context, void *flags)
{
  80eefc:	defff904 	addi	sp,sp,-28
  80ef00:	dfc00615 	stw	ra,24(sp)
  80ef04:	df000515 	stw	fp,20(sp)
  80ef08:	df000504 	addi	fp,sp,20
  80ef0c:	e13ffc15 	stw	r4,-16(fp)
  80ef10:	e17ffd15 	stw	r5,-12(fp)
  80ef14:	e1bffe15 	stw	r6,-8(fp)
  80ef18:	e1ffff15 	stw	r7,-4(fp)
    return alt_iic_isr_register(ic_id, irq, isr, isr_context, flags);
  80ef1c:	e0800217 	ldw	r2,8(fp)
  80ef20:	d8800015 	stw	r2,0(sp)
  80ef24:	e1ffff17 	ldw	r7,-4(fp)
  80ef28:	e1bffe17 	ldw	r6,-8(fp)
  80ef2c:	e17ffd17 	ldw	r5,-12(fp)
  80ef30:	e13ffc17 	ldw	r4,-16(fp)
  80ef34:	080f0ac0 	call	80f0ac <alt_iic_isr_register>
}  
  80ef38:	e037883a 	mov	sp,fp
  80ef3c:	dfc00117 	ldw	ra,4(sp)
  80ef40:	df000017 	ldw	fp,0(sp)
  80ef44:	dec00204 	addi	sp,sp,8
  80ef48:	f800283a 	ret

0080ef4c <alt_ic_irq_enable>:
  * @param ic_id            Ignored.
  * @param irq              IRQ number
  * @return                 0 if successful, else error (-1)
  */
int alt_ic_irq_enable (alt_u32 ic_id, alt_u32 irq)
{
  80ef4c:	defff904 	addi	sp,sp,-28
  80ef50:	df000615 	stw	fp,24(sp)
  80ef54:	df000604 	addi	fp,sp,24
  80ef58:	e13ffe15 	stw	r4,-8(fp)
  80ef5c:	e17fff15 	stw	r5,-4(fp)
  80ef60:	e0bfff17 	ldw	r2,-4(fp)
  80ef64:	e0bffa15 	stw	r2,-24(fp)
static ALT_INLINE alt_irq_context ALT_ALWAYS_INLINE 
       alt_irq_disable_all (void)
{
  alt_irq_context context;

  NIOS2_READ_STATUS (context);
  80ef68:	0005303a 	rdctl	r2,status
  80ef6c:	e0bffb15 	stw	r2,-20(fp)

  NIOS2_WRITE_STATUS (context & ~NIOS2_STATUS_PIE_MSK);
  80ef70:	e0fffb17 	ldw	r3,-20(fp)
  80ef74:	00bfff84 	movi	r2,-2
  80ef78:	1884703a 	and	r2,r3,r2
  80ef7c:	1001703a 	wrctl	status,r2
  
  return context;
  80ef80:	e0bffb17 	ldw	r2,-20(fp)
static ALT_INLINE int ALT_ALWAYS_INLINE alt_irq_enable (alt_u32 id)
{
  alt_irq_context  status;
  extern volatile alt_u32 alt_irq_active;

  status = alt_irq_disable_all ();
  80ef84:	e0bffc15 	stw	r2,-16(fp)

  alt_irq_active |= (1 << id);
  80ef88:	00c00044 	movi	r3,1
  80ef8c:	e0bffa17 	ldw	r2,-24(fp)
  80ef90:	1884983a 	sll	r2,r3,r2
  80ef94:	1007883a 	mov	r3,r2
  80ef98:	d0a2c817 	ldw	r2,-29920(gp)
  80ef9c:	1884b03a 	or	r2,r3,r2
  80efa0:	d0a2c815 	stw	r2,-29920(gp)
  NIOS2_WRITE_IENABLE (alt_irq_active);
  80efa4:	d0a2c817 	ldw	r2,-29920(gp)
  80efa8:	100170fa 	wrctl	ienable,r2
  80efac:	e0bffc17 	ldw	r2,-16(fp)
  80efb0:	e0bffd15 	stw	r2,-12(fp)
  status &= ~NIOS2_STATUS_PIE_MSK;
  status |= (context & NIOS2_STATUS_PIE_MSK);
  
  NIOS2_WRITE_STATUS (status);
#else
  NIOS2_WRITE_STATUS (context);
  80efb4:	e0bffd17 	ldw	r2,-12(fp)
  80efb8:	1001703a 	wrctl	status,r2

  alt_irq_enable_all(status);

  return 0;
  80efbc:	0005883a 	mov	r2,zero
    return alt_irq_enable(irq);
  80efc0:	0001883a 	nop
}
  80efc4:	e037883a 	mov	sp,fp
  80efc8:	df000017 	ldw	fp,0(sp)
  80efcc:	dec00104 	addi	sp,sp,4
  80efd0:	f800283a 	ret

0080efd4 <alt_ic_irq_disable>:
  * @param ic_id            Ignored.
  * @param irq              IRQ number
  * @return                 0 if successful, else error (-1)
  */
int alt_ic_irq_disable(alt_u32 ic_id, alt_u32 irq)
{
  80efd4:	defff904 	addi	sp,sp,-28
  80efd8:	df000615 	stw	fp,24(sp)
  80efdc:	df000604 	addi	fp,sp,24
  80efe0:	e13ffe15 	stw	r4,-8(fp)
  80efe4:	e17fff15 	stw	r5,-4(fp)
  80efe8:	e0bfff17 	ldw	r2,-4(fp)
  80efec:	e0bffa15 	stw	r2,-24(fp)
static ALT_INLINE alt_irq_context ALT_ALWAYS_INLINE 
       alt_irq_disable_all (void)
{
  alt_irq_context context;

  NIOS2_READ_STATUS (context);
  80eff0:	0005303a 	rdctl	r2,status
  80eff4:	e0bffb15 	stw	r2,-20(fp)

  NIOS2_WRITE_STATUS (context & ~NIOS2_STATUS_PIE_MSK);
  80eff8:	e0fffb17 	ldw	r3,-20(fp)
  80effc:	00bfff84 	movi	r2,-2
  80f000:	1884703a 	and	r2,r3,r2
  80f004:	1001703a 	wrctl	status,r2
  
  return context;
  80f008:	e0bffb17 	ldw	r2,-20(fp)
static ALT_INLINE int ALT_ALWAYS_INLINE alt_irq_disable (alt_u32 id)
{
  alt_irq_context  status;
  extern volatile alt_u32 alt_irq_active;

  status = alt_irq_disable_all ();
  80f00c:	e0bffc15 	stw	r2,-16(fp)

  alt_irq_active &= ~(1 << id);
  80f010:	00c00044 	movi	r3,1
  80f014:	e0bffa17 	ldw	r2,-24(fp)
  80f018:	1884983a 	sll	r2,r3,r2
  80f01c:	0084303a 	nor	r2,zero,r2
  80f020:	1007883a 	mov	r3,r2
  80f024:	d0a2c817 	ldw	r2,-29920(gp)
  80f028:	1884703a 	and	r2,r3,r2
  80f02c:	d0a2c815 	stw	r2,-29920(gp)
  NIOS2_WRITE_IENABLE (alt_irq_active);
  80f030:	d0a2c817 	ldw	r2,-29920(gp)
  80f034:	100170fa 	wrctl	ienable,r2
  80f038:	e0bffc17 	ldw	r2,-16(fp)
  80f03c:	e0bffd15 	stw	r2,-12(fp)
  status &= ~NIOS2_STATUS_PIE_MSK;
  status |= (context & NIOS2_STATUS_PIE_MSK);
  
  NIOS2_WRITE_STATUS (status);
#else
  NIOS2_WRITE_STATUS (context);
  80f040:	e0bffd17 	ldw	r2,-12(fp)
  80f044:	1001703a 	wrctl	status,r2

  alt_irq_enable_all(status);

  return 0;
  80f048:	0005883a 	mov	r2,zero
    return alt_irq_disable(irq);
  80f04c:	0001883a 	nop
}
  80f050:	e037883a 	mov	sp,fp
  80f054:	df000017 	ldw	fp,0(sp)
  80f058:	dec00104 	addi	sp,sp,4
  80f05c:	f800283a 	ret

0080f060 <alt_ic_irq_enabled>:
  * @param irq              IRQ number
  * @return                 Zero if corresponding interrupt is disabled and
  *                         non-zero otherwise.
  */
alt_u32 alt_ic_irq_enabled(alt_u32 ic_id, alt_u32 irq)
{
  80f060:	defffc04 	addi	sp,sp,-16
  80f064:	df000315 	stw	fp,12(sp)
  80f068:	df000304 	addi	fp,sp,12
  80f06c:	e13ffe15 	stw	r4,-8(fp)
  80f070:	e17fff15 	stw	r5,-4(fp)
    alt_u32 irq_enabled;

    NIOS2_READ_IENABLE(irq_enabled);
  80f074:	000530fa 	rdctl	r2,ienable
  80f078:	e0bffd15 	stw	r2,-12(fp)

    return (irq_enabled & (1 << irq)) ? 1: 0;
  80f07c:	00c00044 	movi	r3,1
  80f080:	e0bfff17 	ldw	r2,-4(fp)
  80f084:	1884983a 	sll	r2,r3,r2
  80f088:	1007883a 	mov	r3,r2
  80f08c:	e0bffd17 	ldw	r2,-12(fp)
  80f090:	1884703a 	and	r2,r3,r2
  80f094:	1004c03a 	cmpne	r2,r2,zero
  80f098:	10803fcc 	andi	r2,r2,255
}
  80f09c:	e037883a 	mov	sp,fp
  80f0a0:	df000017 	ldw	fp,0(sp)
  80f0a4:	dec00104 	addi	sp,sp,4
  80f0a8:	f800283a 	ret

0080f0ac <alt_iic_isr_register>:
  * @param flags            
  * @return                 0 if successful, else error (-1)
  */
int alt_iic_isr_register(alt_u32 ic_id, alt_u32 irq, alt_isr_func isr, 
  void *isr_context, void *flags)
{
  80f0ac:	defff504 	addi	sp,sp,-44
  80f0b0:	dfc00a15 	stw	ra,40(sp)
  80f0b4:	df000915 	stw	fp,36(sp)
  80f0b8:	df000904 	addi	fp,sp,36
  80f0bc:	e13ffc15 	stw	r4,-16(fp)
  80f0c0:	e17ffd15 	stw	r5,-12(fp)
  80f0c4:	e1bffe15 	stw	r6,-8(fp)
  80f0c8:	e1ffff15 	stw	r7,-4(fp)
  int rc = -EINVAL;  
  80f0cc:	00bffa84 	movi	r2,-22
  80f0d0:	e0bff715 	stw	r2,-36(fp)
  int id = irq;             /* IRQ interpreted as the interrupt ID. */
  80f0d4:	e0bffd17 	ldw	r2,-12(fp)
  80f0d8:	e0bff815 	stw	r2,-32(fp)
  alt_irq_context status;

  if (id < ALT_NIRQ)
  80f0dc:	e0bff817 	ldw	r2,-32(fp)
  80f0e0:	10800808 	cmpgei	r2,r2,32
  80f0e4:	1000271e 	bne	r2,zero,80f184 <alt_iic_isr_register+0xd8>
static ALT_INLINE alt_irq_context ALT_ALWAYS_INLINE 
       alt_irq_disable_all (void)
{
  alt_irq_context context;

  NIOS2_READ_STATUS (context);
  80f0e8:	0005303a 	rdctl	r2,status
  80f0ec:	e0bffb15 	stw	r2,-20(fp)

  NIOS2_WRITE_STATUS (context & ~NIOS2_STATUS_PIE_MSK);
  80f0f0:	e0fffb17 	ldw	r3,-20(fp)
  80f0f4:	00bfff84 	movi	r2,-2
  80f0f8:	1884703a 	and	r2,r3,r2
  80f0fc:	1001703a 	wrctl	status,r2
  
  return context;
  80f100:	e0bffb17 	ldw	r2,-20(fp)
     * interrupts are disabled while the handler tables are updated to ensure
     * that an interrupt doesn't occur while the tables are in an inconsistant
     * state.
     */

    status = alt_irq_disable_all();
  80f104:	e0bffa15 	stw	r2,-24(fp)

    alt_irq[id].handler = isr;
  80f108:	00802074 	movhi	r2,129
  80f10c:	10860904 	addi	r2,r2,6180
  80f110:	e0fff817 	ldw	r3,-32(fp)
  80f114:	180690fa 	slli	r3,r3,3
  80f118:	10c5883a 	add	r2,r2,r3
  80f11c:	e0fffe17 	ldw	r3,-8(fp)
  80f120:	10c00015 	stw	r3,0(r2)
    alt_irq[id].context = isr_context;
  80f124:	00802074 	movhi	r2,129
  80f128:	10860904 	addi	r2,r2,6180
  80f12c:	e0fff817 	ldw	r3,-32(fp)
  80f130:	180690fa 	slli	r3,r3,3
  80f134:	10c5883a 	add	r2,r2,r3
  80f138:	10800104 	addi	r2,r2,4
  80f13c:	e0ffff17 	ldw	r3,-4(fp)
  80f140:	10c00015 	stw	r3,0(r2)

    rc = (isr) ? alt_ic_irq_enable(ic_id, id) : alt_ic_irq_disable(ic_id, id);
  80f144:	e0bffe17 	ldw	r2,-8(fp)
  80f148:	10000526 	beq	r2,zero,80f160 <alt_iic_isr_register+0xb4>
  80f14c:	e0bff817 	ldw	r2,-32(fp)
  80f150:	100b883a 	mov	r5,r2
  80f154:	e13ffc17 	ldw	r4,-16(fp)
  80f158:	080ef4c0 	call	80ef4c <alt_ic_irq_enable>
  80f15c:	00000406 	br	80f170 <alt_iic_isr_register+0xc4>
  80f160:	e0bff817 	ldw	r2,-32(fp)
  80f164:	100b883a 	mov	r5,r2
  80f168:	e13ffc17 	ldw	r4,-16(fp)
  80f16c:	080efd40 	call	80efd4 <alt_ic_irq_disable>
  80f170:	e0bff715 	stw	r2,-36(fp)
  80f174:	e0bffa17 	ldw	r2,-24(fp)
  80f178:	e0bff915 	stw	r2,-28(fp)
  status &= ~NIOS2_STATUS_PIE_MSK;
  status |= (context & NIOS2_STATUS_PIE_MSK);
  
  NIOS2_WRITE_STATUS (status);
#else
  NIOS2_WRITE_STATUS (context);
  80f17c:	e0bff917 	ldw	r2,-28(fp)
  80f180:	1001703a 	wrctl	status,r2

    alt_irq_enable_all(status);
  }

  return rc; 
  80f184:	e0bff717 	ldw	r2,-36(fp)
}
  80f188:	e037883a 	mov	sp,fp
  80f18c:	dfc00117 	ldw	ra,4(sp)
  80f190:	df000017 	ldw	fp,0(sp)
  80f194:	dec00204 	addi	sp,sp,8
  80f198:	f800283a 	ret

0080f19c <alt_open_fd>:
 * If the device can not be succesfully opened, then the input file descriptor
 * remains unchanged.
 */

static void alt_open_fd(alt_fd* fd, const char* name, int flags, int mode)
{
  80f19c:	defff804 	addi	sp,sp,-32
  80f1a0:	dfc00715 	stw	ra,28(sp)
  80f1a4:	df000615 	stw	fp,24(sp)
  80f1a8:	dc000515 	stw	r16,20(sp)
  80f1ac:	df000604 	addi	fp,sp,24
  80f1b0:	e13ffb15 	stw	r4,-20(fp)
  80f1b4:	e17ffc15 	stw	r5,-16(fp)
  80f1b8:	e1bffd15 	stw	r6,-12(fp)
  80f1bc:	e1fffe15 	stw	r7,-8(fp)
  int old;

  old = open (name, flags, mode);
  80f1c0:	e1bffe17 	ldw	r6,-8(fp)
  80f1c4:	e17ffd17 	ldw	r5,-12(fp)
  80f1c8:	e13ffc17 	ldw	r4,-16(fp)
  80f1cc:	080f4240 	call	80f424 <open>
  80f1d0:	e0bffa15 	stw	r2,-24(fp)

  if (old >= 0)
  80f1d4:	e0bffa17 	ldw	r2,-24(fp)
  80f1d8:	10002216 	blt	r2,zero,80f264 <alt_open_fd+0xc8>
  {
    fd->dev      = alt_fd_list[old].dev;
  80f1dc:	04002074 	movhi	r16,129
  80f1e0:	8402c804 	addi	r16,r16,2848
  80f1e4:	e0bffa17 	ldw	r2,-24(fp)
  80f1e8:	01400304 	movi	r5,12
  80f1ec:	1009883a 	mov	r4,r2
  80f1f0:	08005640 	call	800564 <__mulsi3>
  80f1f4:	8085883a 	add	r2,r16,r2
  80f1f8:	10c00017 	ldw	r3,0(r2)
  80f1fc:	e0bffb17 	ldw	r2,-20(fp)
  80f200:	10c00015 	stw	r3,0(r2)
    fd->priv     = alt_fd_list[old].priv;
  80f204:	04002074 	movhi	r16,129
  80f208:	8402c804 	addi	r16,r16,2848
  80f20c:	e0bffa17 	ldw	r2,-24(fp)
  80f210:	01400304 	movi	r5,12
  80f214:	1009883a 	mov	r4,r2
  80f218:	08005640 	call	800564 <__mulsi3>
  80f21c:	8085883a 	add	r2,r16,r2
  80f220:	10800104 	addi	r2,r2,4
  80f224:	10c00017 	ldw	r3,0(r2)
  80f228:	e0bffb17 	ldw	r2,-20(fp)
  80f22c:	10c00115 	stw	r3,4(r2)
    fd->fd_flags = alt_fd_list[old].fd_flags;
  80f230:	04002074 	movhi	r16,129
  80f234:	8402c804 	addi	r16,r16,2848
  80f238:	e0bffa17 	ldw	r2,-24(fp)
  80f23c:	01400304 	movi	r5,12
  80f240:	1009883a 	mov	r4,r2
  80f244:	08005640 	call	800564 <__mulsi3>
  80f248:	8085883a 	add	r2,r16,r2
  80f24c:	10800204 	addi	r2,r2,8
  80f250:	10c00017 	ldw	r3,0(r2)
  80f254:	e0bffb17 	ldw	r2,-20(fp)
  80f258:	10c00215 	stw	r3,8(r2)

    alt_release_fd (old);
  80f25c:	e13ffa17 	ldw	r4,-24(fp)
  80f260:	080e5cc0 	call	80e5cc <alt_release_fd>
  }
} 
  80f264:	0001883a 	nop
  80f268:	e6ffff04 	addi	sp,fp,-4
  80f26c:	dfc00217 	ldw	ra,8(sp)
  80f270:	df000117 	ldw	fp,4(sp)
  80f274:	dc000017 	ldw	r16,0(sp)
  80f278:	dec00304 	addi	sp,sp,12
  80f27c:	f800283a 	ret

0080f280 <alt_io_redirect>:
 */
 
void alt_io_redirect(const char* stdout_dev, 
                     const char* stdin_dev, 
                     const char* stderr_dev)
{
  80f280:	defffb04 	addi	sp,sp,-20
  80f284:	dfc00415 	stw	ra,16(sp)
  80f288:	df000315 	stw	fp,12(sp)
  80f28c:	df000304 	addi	fp,sp,12
  80f290:	e13ffd15 	stw	r4,-12(fp)
  80f294:	e17ffe15 	stw	r5,-8(fp)
  80f298:	e1bfff15 	stw	r6,-4(fp)
  /* Redirect the channels */

  alt_open_fd (&alt_fd_list[STDOUT_FILENO], stdout_dev, O_WRONLY, 0777);
  80f29c:	01c07fc4 	movi	r7,511
  80f2a0:	01800044 	movi	r6,1
  80f2a4:	e17ffd17 	ldw	r5,-12(fp)
  80f2a8:	01002074 	movhi	r4,129
  80f2ac:	2102cb04 	addi	r4,r4,2860
  80f2b0:	080f19c0 	call	80f19c <alt_open_fd>
  alt_open_fd (&alt_fd_list[STDIN_FILENO], stdin_dev, O_RDONLY, 0777);
  80f2b4:	01c07fc4 	movi	r7,511
  80f2b8:	000d883a 	mov	r6,zero
  80f2bc:	e17ffe17 	ldw	r5,-8(fp)
  80f2c0:	01002074 	movhi	r4,129
  80f2c4:	2102c804 	addi	r4,r4,2848
  80f2c8:	080f19c0 	call	80f19c <alt_open_fd>
  alt_open_fd (&alt_fd_list[STDERR_FILENO], stderr_dev, O_WRONLY, 0777);
  80f2cc:	01c07fc4 	movi	r7,511
  80f2d0:	01800044 	movi	r6,1
  80f2d4:	e17fff17 	ldw	r5,-4(fp)
  80f2d8:	01002074 	movhi	r4,129
  80f2dc:	2102ce04 	addi	r4,r4,2872
  80f2e0:	080f19c0 	call	80f19c <alt_open_fd>
}  
  80f2e4:	0001883a 	nop
  80f2e8:	e037883a 	mov	sp,fp
  80f2ec:	dfc00117 	ldw	ra,4(sp)
  80f2f0:	df000017 	ldw	fp,0(sp)
  80f2f4:	dec00204 	addi	sp,sp,8
  80f2f8:	f800283a 	ret

0080f2fc <alt_get_errno>:
#undef errno

extern int errno;

static ALT_INLINE int* alt_get_errno(void)
{
  80f2fc:	defffe04 	addi	sp,sp,-8
  80f300:	dfc00115 	stw	ra,4(sp)
  80f304:	df000015 	stw	fp,0(sp)
  80f308:	d839883a 	mov	fp,sp
  return ((alt_errno) ? alt_errno() : &errno);
  80f30c:	d0a00b17 	ldw	r2,-32724(gp)
  80f310:	10000326 	beq	r2,zero,80f320 <alt_get_errno+0x24>
  80f314:	d0a00b17 	ldw	r2,-32724(gp)
  80f318:	103ee83a 	callr	r2
  80f31c:	00000106 	br	80f324 <alt_get_errno+0x28>
  80f320:	d0a2c404 	addi	r2,gp,-29936
}
  80f324:	e037883a 	mov	sp,fp
  80f328:	dfc00117 	ldw	ra,4(sp)
  80f32c:	df000017 	ldw	fp,0(sp)
  80f330:	dec00204 	addi	sp,sp,8
  80f334:	f800283a 	ret

0080f338 <alt_file_locked>:
 * performed for devices. Filesystems are required to handle the ioctl() call
 * themselves, and report the error from the filesystems open() function. 
 */ 

static int alt_file_locked (alt_fd* fd)
{
  80f338:	defffb04 	addi	sp,sp,-20
  80f33c:	dfc00415 	stw	ra,16(sp)
  80f340:	df000315 	stw	fp,12(sp)
  80f344:	dc000215 	stw	r16,8(sp)
  80f348:	df000304 	addi	fp,sp,12
  80f34c:	e13ffe15 	stw	r4,-8(fp)

  /*
   * Mark the file descriptor as belonging to a device.
   */

  fd->fd_flags |= ALT_FD_DEV;
  80f350:	e0bffe17 	ldw	r2,-8(fp)
  80f354:	10800217 	ldw	r2,8(r2)
  80f358:	10d00034 	orhi	r3,r2,16384
  80f35c:	e0bffe17 	ldw	r2,-8(fp)
  80f360:	10c00215 	stw	r3,8(r2)
  /*
   * Loop through all current file descriptors searching for one that's locked
   * for exclusive access. If a match is found, generate an error.
   */

  for (i = 0; i <= alt_max_fd; i++)
  80f364:	e03ffd15 	stw	zero,-12(fp)
  80f368:	00002306 	br	80f3f8 <alt_file_locked+0xc0>
  {
    if ((alt_fd_list[i].dev == fd->dev) &&
  80f36c:	04002074 	movhi	r16,129
  80f370:	8402c804 	addi	r16,r16,2848
  80f374:	e0bffd17 	ldw	r2,-12(fp)
  80f378:	01400304 	movi	r5,12
  80f37c:	1009883a 	mov	r4,r2
  80f380:	08005640 	call	800564 <__mulsi3>
  80f384:	8085883a 	add	r2,r16,r2
  80f388:	10c00017 	ldw	r3,0(r2)
  80f38c:	e0bffe17 	ldw	r2,-8(fp)
  80f390:	10800017 	ldw	r2,0(r2)
  80f394:	1880151e 	bne	r3,r2,80f3ec <alt_file_locked+0xb4>
        (alt_fd_list[i].fd_flags & ALT_FD_EXCL) &&
  80f398:	04002074 	movhi	r16,129
  80f39c:	8402c804 	addi	r16,r16,2848
  80f3a0:	e0bffd17 	ldw	r2,-12(fp)
  80f3a4:	01400304 	movi	r5,12
  80f3a8:	1009883a 	mov	r4,r2
  80f3ac:	08005640 	call	800564 <__mulsi3>
  80f3b0:	8085883a 	add	r2,r16,r2
  80f3b4:	10800204 	addi	r2,r2,8
  80f3b8:	10800017 	ldw	r2,0(r2)
   * for exclusive access. If a match is found, generate an error.
   */

  for (i = 0; i <= alt_max_fd; i++)
  {
    if ((alt_fd_list[i].dev == fd->dev) &&
  80f3bc:	10000b0e 	bge	r2,zero,80f3ec <alt_file_locked+0xb4>
        (alt_fd_list[i].fd_flags & ALT_FD_EXCL) &&
        (&alt_fd_list[i] != fd))
  80f3c0:	01400304 	movi	r5,12
  80f3c4:	e13ffd17 	ldw	r4,-12(fp)
  80f3c8:	08005640 	call	800564 <__mulsi3>
  80f3cc:	1007883a 	mov	r3,r2
  80f3d0:	00802074 	movhi	r2,129
  80f3d4:	1082c804 	addi	r2,r2,2848
  80f3d8:	1887883a 	add	r3,r3,r2
   */

  for (i = 0; i <= alt_max_fd; i++)
  {
    if ((alt_fd_list[i].dev == fd->dev) &&
        (alt_fd_list[i].fd_flags & ALT_FD_EXCL) &&
  80f3dc:	e0bffe17 	ldw	r2,-8(fp)
  80f3e0:	18800226 	beq	r3,r2,80f3ec <alt_file_locked+0xb4>
        (&alt_fd_list[i] != fd))
    {
      return -EACCES;
  80f3e4:	00bffcc4 	movi	r2,-13
  80f3e8:	00000806 	br	80f40c <alt_file_locked+0xd4>
  /*
   * Loop through all current file descriptors searching for one that's locked
   * for exclusive access. If a match is found, generate an error.
   */

  for (i = 0; i <= alt_max_fd; i++)
  80f3ec:	e0bffd17 	ldw	r2,-12(fp)
  80f3f0:	10800044 	addi	r2,r2,1
  80f3f4:	e0bffd15 	stw	r2,-12(fp)
  80f3f8:	d0a00a17 	ldw	r2,-32728(gp)
  80f3fc:	1007883a 	mov	r3,r2
  80f400:	e0bffd17 	ldw	r2,-12(fp)
  80f404:	18bfd92e 	bgeu	r3,r2,80f36c <__alt_data_end+0xff80f36c>
    }
  }
  
  /* The device is not locked */
 
  return 0;
  80f408:	0005883a 	mov	r2,zero
}
  80f40c:	e6ffff04 	addi	sp,fp,-4
  80f410:	dfc00217 	ldw	ra,8(sp)
  80f414:	df000117 	ldw	fp,4(sp)
  80f418:	dc000017 	ldw	r16,0(sp)
  80f41c:	dec00304 	addi	sp,sp,12
  80f420:	f800283a 	ret

0080f424 <open>:
 *
 * ALT_OPEN is mapped onto the open() system call in alt_syscall.h
 */
 
int ALT_OPEN (const char* file, int flags, int mode)
{ 
  80f424:	defff604 	addi	sp,sp,-40
  80f428:	dfc00915 	stw	ra,36(sp)
  80f42c:	df000815 	stw	fp,32(sp)
  80f430:	df000804 	addi	fp,sp,32
  80f434:	e13ffd15 	stw	r4,-12(fp)
  80f438:	e17ffe15 	stw	r5,-8(fp)
  80f43c:	e1bfff15 	stw	r6,-4(fp)
  alt_dev* dev;
  alt_fd*  fd;
  int index  = -1;
  80f440:	00bfffc4 	movi	r2,-1
  80f444:	e0bff915 	stw	r2,-28(fp)
  int status = -ENODEV;
  80f448:	00bffb44 	movi	r2,-19
  80f44c:	e0bffa15 	stw	r2,-24(fp)
  int isafs = 0;
  80f450:	e03ffb15 	stw	zero,-20(fp)
  /* 
   * Check the device list, to see if a device with a matching name is 
   * registered.
   */
  
  if (!(dev = alt_find_dev (file, &alt_dev_list)))
  80f454:	d1600804 	addi	r5,gp,-32736
  80f458:	e13ffd17 	ldw	r4,-12(fp)
  80f45c:	080f7480 	call	80f748 <alt_find_dev>
  80f460:	e0bff815 	stw	r2,-32(fp)
  80f464:	e0bff817 	ldw	r2,-32(fp)
  80f468:	1000051e 	bne	r2,zero,80f480 <open+0x5c>
  {
    /* No matching device, so try the filesystem list */

    dev   = alt_find_file (file);
  80f46c:	e13ffd17 	ldw	r4,-12(fp)
  80f470:	080f7d80 	call	80f7d8 <alt_find_file>
  80f474:	e0bff815 	stw	r2,-32(fp)
    isafs = 1;
  80f478:	00800044 	movi	r2,1
  80f47c:	e0bffb15 	stw	r2,-20(fp)

  /* 
   * If a matching device or filesystem is found, allocate a file descriptor. 
   */

  if (dev)
  80f480:	e0bff817 	ldw	r2,-32(fp)
  80f484:	10002b26 	beq	r2,zero,80f534 <open+0x110>
  {
    if ((index = alt_get_fd (dev)) < 0)
  80f488:	e13ff817 	ldw	r4,-32(fp)
  80f48c:	080f8e00 	call	80f8e0 <alt_get_fd>
  80f490:	e0bff915 	stw	r2,-28(fp)
  80f494:	e0bff917 	ldw	r2,-28(fp)
  80f498:	1000030e 	bge	r2,zero,80f4a8 <open+0x84>
    {
      status = index;
  80f49c:	e0bff917 	ldw	r2,-28(fp)
  80f4a0:	e0bffa15 	stw	r2,-24(fp)
  80f4a4:	00002506 	br	80f53c <open+0x118>
    }
    else
    {
      fd = &alt_fd_list[index];
  80f4a8:	01400304 	movi	r5,12
  80f4ac:	e13ff917 	ldw	r4,-28(fp)
  80f4b0:	08005640 	call	800564 <__mulsi3>
  80f4b4:	1007883a 	mov	r3,r2
  80f4b8:	00802074 	movhi	r2,129
  80f4bc:	1082c804 	addi	r2,r2,2848
  80f4c0:	1885883a 	add	r2,r3,r2
  80f4c4:	e0bffc15 	stw	r2,-16(fp)
      fd->fd_flags = (flags & ~ALT_FD_FLAGS_MASK);
  80f4c8:	e0fffe17 	ldw	r3,-8(fp)
  80f4cc:	00900034 	movhi	r2,16384
  80f4d0:	10bfffc4 	addi	r2,r2,-1
  80f4d4:	1886703a 	and	r3,r3,r2
  80f4d8:	e0bffc17 	ldw	r2,-16(fp)
  80f4dc:	10c00215 	stw	r3,8(r2)
      
      /* If this is a device, ensure it isn't already locked */

      if (isafs || ((status = alt_file_locked (fd)) >= 0))
  80f4e0:	e0bffb17 	ldw	r2,-20(fp)
  80f4e4:	1000051e 	bne	r2,zero,80f4fc <open+0xd8>
  80f4e8:	e13ffc17 	ldw	r4,-16(fp)
  80f4ec:	080f3380 	call	80f338 <alt_file_locked>
  80f4f0:	e0bffa15 	stw	r2,-24(fp)
  80f4f4:	e0bffa17 	ldw	r2,-24(fp)
  80f4f8:	10001016 	blt	r2,zero,80f53c <open+0x118>
        /* 
         * If the device or filesystem provides an open() callback function,
         * call it now to perform any device/filesystem specific operations.
         */
    
        status = (dev->open) ? dev->open(fd, file, flags, mode): 0;
  80f4fc:	e0bff817 	ldw	r2,-32(fp)
  80f500:	10800317 	ldw	r2,12(r2)
  80f504:	10000826 	beq	r2,zero,80f528 <open+0x104>
  80f508:	e0bff817 	ldw	r2,-32(fp)
  80f50c:	10800317 	ldw	r2,12(r2)
  80f510:	e1ffff17 	ldw	r7,-4(fp)
  80f514:	e1bffe17 	ldw	r6,-8(fp)
  80f518:	e17ffd17 	ldw	r5,-12(fp)
  80f51c:	e13ffc17 	ldw	r4,-16(fp)
  80f520:	103ee83a 	callr	r2
  80f524:	00000106 	br	80f52c <open+0x108>
  80f528:	0005883a 	mov	r2,zero
  80f52c:	e0bffa15 	stw	r2,-24(fp)
  80f530:	00000206 	br	80f53c <open+0x118>
      }
    }
  }
  else
  {
    status = -ENODEV;
  80f534:	00bffb44 	movi	r2,-19
  80f538:	e0bffa15 	stw	r2,-24(fp)
  }

  /* Allocation failed, so clean up and return an error */ 

  if (status < 0)
  80f53c:	e0bffa17 	ldw	r2,-24(fp)
  80f540:	1000090e 	bge	r2,zero,80f568 <open+0x144>
  {
    alt_release_fd (index);  
  80f544:	e13ff917 	ldw	r4,-28(fp)
  80f548:	080e5cc0 	call	80e5cc <alt_release_fd>
    ALT_ERRNO = -status;
  80f54c:	080f2fc0 	call	80f2fc <alt_get_errno>
  80f550:	1007883a 	mov	r3,r2
  80f554:	e0bffa17 	ldw	r2,-24(fp)
  80f558:	0085c83a 	sub	r2,zero,r2
  80f55c:	18800015 	stw	r2,0(r3)
    return -1;
  80f560:	00bfffc4 	movi	r2,-1
  80f564:	00000106 	br	80f56c <open+0x148>
  }
  
  /* return the reference upon success */

  return index;
  80f568:	e0bff917 	ldw	r2,-28(fp)
}
  80f56c:	e037883a 	mov	sp,fp
  80f570:	dfc00117 	ldw	ra,4(sp)
  80f574:	df000017 	ldw	fp,0(sp)
  80f578:	dec00204 	addi	sp,sp,8
  80f57c:	f800283a 	ret

0080f580 <alt_alarm_stop>:
 * alarms. Alternatively an alarm can unregister itself by returning zero when 
 * the alarm executes.
 */

void alt_alarm_stop (alt_alarm* alarm)
{
  80f580:	defffa04 	addi	sp,sp,-24
  80f584:	df000515 	stw	fp,20(sp)
  80f588:	df000504 	addi	fp,sp,20
  80f58c:	e13fff15 	stw	r4,-4(fp)
static ALT_INLINE alt_irq_context ALT_ALWAYS_INLINE 
       alt_irq_disable_all (void)
{
  alt_irq_context context;

  NIOS2_READ_STATUS (context);
  80f590:	0005303a 	rdctl	r2,status
  80f594:	e0bffc15 	stw	r2,-16(fp)

  NIOS2_WRITE_STATUS (context & ~NIOS2_STATUS_PIE_MSK);
  80f598:	e0fffc17 	ldw	r3,-16(fp)
  80f59c:	00bfff84 	movi	r2,-2
  80f5a0:	1884703a 	and	r2,r3,r2
  80f5a4:	1001703a 	wrctl	status,r2
  
  return context;
  80f5a8:	e0bffc17 	ldw	r2,-16(fp)
  alt_irq_context irq_context;

  irq_context = alt_irq_disable_all();
  80f5ac:	e0bffb15 	stw	r2,-20(fp)
  alt_llist_remove (&alarm->llist);
  80f5b0:	e0bfff17 	ldw	r2,-4(fp)
  80f5b4:	e0bffd15 	stw	r2,-12(fp)
 * input argument is the element to remove.
 */
     
static ALT_INLINE void ALT_ALWAYS_INLINE alt_llist_remove(alt_llist* entry)
{
  entry->next->previous = entry->previous;
  80f5b8:	e0bffd17 	ldw	r2,-12(fp)
  80f5bc:	10800017 	ldw	r2,0(r2)
  80f5c0:	e0fffd17 	ldw	r3,-12(fp)
  80f5c4:	18c00117 	ldw	r3,4(r3)
  80f5c8:	10c00115 	stw	r3,4(r2)
  entry->previous->next = entry->next;
  80f5cc:	e0bffd17 	ldw	r2,-12(fp)
  80f5d0:	10800117 	ldw	r2,4(r2)
  80f5d4:	e0fffd17 	ldw	r3,-12(fp)
  80f5d8:	18c00017 	ldw	r3,0(r3)
  80f5dc:	10c00015 	stw	r3,0(r2)
  /* 
   * Set the entry to point to itself, so that any further calls to
   * alt_llist_remove() are harmless.
   */

  entry->previous = entry;
  80f5e0:	e0bffd17 	ldw	r2,-12(fp)
  80f5e4:	e0fffd17 	ldw	r3,-12(fp)
  80f5e8:	10c00115 	stw	r3,4(r2)
  entry->next     = entry;
  80f5ec:	e0bffd17 	ldw	r2,-12(fp)
  80f5f0:	e0fffd17 	ldw	r3,-12(fp)
  80f5f4:	10c00015 	stw	r3,0(r2)
  80f5f8:	e0bffb17 	ldw	r2,-20(fp)
  80f5fc:	e0bffe15 	stw	r2,-8(fp)
  status &= ~NIOS2_STATUS_PIE_MSK;
  status |= (context & NIOS2_STATUS_PIE_MSK);
  
  NIOS2_WRITE_STATUS (status);
#else
  NIOS2_WRITE_STATUS (context);
  80f600:	e0bffe17 	ldw	r2,-8(fp)
  80f604:	1001703a 	wrctl	status,r2
  alt_irq_enable_all (irq_context);
}
  80f608:	0001883a 	nop
  80f60c:	e037883a 	mov	sp,fp
  80f610:	df000017 	ldw	fp,0(sp)
  80f614:	dec00104 	addi	sp,sp,4
  80f618:	f800283a 	ret

0080f61c <alt_tick>:
 * 
 * alt_tick() is expected to run at interrupt level.
 */

void alt_tick (void)
{
  80f61c:	defffb04 	addi	sp,sp,-20
  80f620:	dfc00415 	stw	ra,16(sp)
  80f624:	df000315 	stw	fp,12(sp)
  80f628:	df000304 	addi	fp,sp,12
  alt_alarm* next;
  alt_alarm* alarm = (alt_alarm*) alt_alarm_list.next;
  80f62c:	d0a00e17 	ldw	r2,-32712(gp)
  80f630:	e0bffd15 	stw	r2,-12(fp)

  alt_u32    next_callback;

  /* update the tick counter */

  _alt_nticks++;
  80f634:	d0a2ca17 	ldw	r2,-29912(gp)
  80f638:	10800044 	addi	r2,r2,1
  80f63c:	d0a2ca15 	stw	r2,-29912(gp)

  /* process the registered callbacks */

  while (alarm != (alt_alarm*) &alt_alarm_list)
  80f640:	00002e06 	br	80f6fc <alt_tick+0xe0>
  {
    next = (alt_alarm*) alarm->llist.next;
  80f644:	e0bffd17 	ldw	r2,-12(fp)
  80f648:	10800017 	ldw	r2,0(r2)
  80f64c:	e0bffe15 	stw	r2,-8(fp)
    /* 
     * Upon the tick-counter rolling over it is safe to clear the 
     * roll-over flag; once the flag is cleared this (or subsequnt)
     * tick events are enabled to generate an alarm event. 
     */
    if ((alarm->rollover) && (_alt_nticks == 0))
  80f650:	e0bffd17 	ldw	r2,-12(fp)
  80f654:	10800403 	ldbu	r2,16(r2)
  80f658:	10803fcc 	andi	r2,r2,255
  80f65c:	10000426 	beq	r2,zero,80f670 <alt_tick+0x54>
  80f660:	d0a2ca17 	ldw	r2,-29912(gp)
  80f664:	1000021e 	bne	r2,zero,80f670 <alt_tick+0x54>
    {
      alarm->rollover = 0;
  80f668:	e0bffd17 	ldw	r2,-12(fp)
  80f66c:	10000405 	stb	zero,16(r2)
    }
    
    /* if the alarm period has expired, make the callback */    
    if ((alarm->time <= _alt_nticks) && (alarm->rollover == 0))
  80f670:	e0bffd17 	ldw	r2,-12(fp)
  80f674:	10800217 	ldw	r2,8(r2)
  80f678:	d0e2ca17 	ldw	r3,-29912(gp)
  80f67c:	18801d36 	bltu	r3,r2,80f6f4 <alt_tick+0xd8>
  80f680:	e0bffd17 	ldw	r2,-12(fp)
  80f684:	10800403 	ldbu	r2,16(r2)
  80f688:	10803fcc 	andi	r2,r2,255
  80f68c:	1000191e 	bne	r2,zero,80f6f4 <alt_tick+0xd8>
    {
      next_callback = alarm->callback (alarm->context);
  80f690:	e0bffd17 	ldw	r2,-12(fp)
  80f694:	10800317 	ldw	r2,12(r2)
  80f698:	e0fffd17 	ldw	r3,-12(fp)
  80f69c:	18c00517 	ldw	r3,20(r3)
  80f6a0:	1809883a 	mov	r4,r3
  80f6a4:	103ee83a 	callr	r2
  80f6a8:	e0bfff15 	stw	r2,-4(fp)

      /* deactivate the alarm if the return value is zero */

      if (next_callback == 0)
  80f6ac:	e0bfff17 	ldw	r2,-4(fp)
  80f6b0:	1000031e 	bne	r2,zero,80f6c0 <alt_tick+0xa4>
      {
        alt_alarm_stop (alarm);
  80f6b4:	e13ffd17 	ldw	r4,-12(fp)
  80f6b8:	080f5800 	call	80f580 <alt_alarm_stop>
  80f6bc:	00000d06 	br	80f6f4 <alt_tick+0xd8>
      }
      else
      {
        alarm->time += next_callback;
  80f6c0:	e0bffd17 	ldw	r2,-12(fp)
  80f6c4:	10c00217 	ldw	r3,8(r2)
  80f6c8:	e0bfff17 	ldw	r2,-4(fp)
  80f6cc:	1887883a 	add	r3,r3,r2
  80f6d0:	e0bffd17 	ldw	r2,-12(fp)
  80f6d4:	10c00215 	stw	r3,8(r2)
        /* 
         * If the desired alarm time causes a roll-over, set the rollover
         * flag. This will prevent the subsequent tick event from causing
         * an alarm too early.
         */
        if(alarm->time < _alt_nticks)
  80f6d8:	e0bffd17 	ldw	r2,-12(fp)
  80f6dc:	10c00217 	ldw	r3,8(r2)
  80f6e0:	d0a2ca17 	ldw	r2,-29912(gp)
  80f6e4:	1880032e 	bgeu	r3,r2,80f6f4 <alt_tick+0xd8>
        {
          alarm->rollover = 1;
  80f6e8:	e0bffd17 	ldw	r2,-12(fp)
  80f6ec:	00c00044 	movi	r3,1
  80f6f0:	10c00405 	stb	r3,16(r2)
        }
      }
    }
    alarm = next;
  80f6f4:	e0bffe17 	ldw	r2,-8(fp)
  80f6f8:	e0bffd15 	stw	r2,-12(fp)

  _alt_nticks++;

  /* process the registered callbacks */

  while (alarm != (alt_alarm*) &alt_alarm_list)
  80f6fc:	e0fffd17 	ldw	r3,-12(fp)
  80f700:	d0a00e04 	addi	r2,gp,-32712
  80f704:	18bfcf1e 	bne	r3,r2,80f644 <__alt_data_end+0xff80f644>

  /* 
   * Update the operating system specific timer facilities.
   */

  ALT_OS_TIME_TICK();
  80f708:	0001883a 	nop
}
  80f70c:	0001883a 	nop
  80f710:	e037883a 	mov	sp,fp
  80f714:	dfc00117 	ldw	ra,4(sp)
  80f718:	df000017 	ldw	fp,0(sp)
  80f71c:	dec00204 	addi	sp,sp,8
  80f720:	f800283a 	ret

0080f724 <altera_nios2_gen2_irq_init>:
/*
 * To initialize the internal interrupt controller, just clear the IENABLE
 * register so that all possible IRQs are disabled.
 */
void altera_nios2_gen2_irq_init(void) 
{
  80f724:	deffff04 	addi	sp,sp,-4
  80f728:	df000015 	stw	fp,0(sp)
  80f72c:	d839883a 	mov	fp,sp
    NIOS2_WRITE_IENABLE(0);
  80f730:	000170fa 	wrctl	ienable,zero
}
  80f734:	0001883a 	nop
  80f738:	e037883a 	mov	sp,fp
  80f73c:	df000017 	ldw	fp,0(sp)
  80f740:	dec00104 	addi	sp,sp,4
  80f744:	f800283a 	ret

0080f748 <alt_find_dev>:
 * "name" must be an exact match for the devices registered name for a match to
 * be found.
 */
 
alt_dev* alt_find_dev(const char* name, alt_llist* llist)
{
  80f748:	defffa04 	addi	sp,sp,-24
  80f74c:	dfc00515 	stw	ra,20(sp)
  80f750:	df000415 	stw	fp,16(sp)
  80f754:	df000404 	addi	fp,sp,16
  80f758:	e13ffe15 	stw	r4,-8(fp)
  80f75c:	e17fff15 	stw	r5,-4(fp)
  alt_dev* next = (alt_dev*) llist->next;
  80f760:	e0bfff17 	ldw	r2,-4(fp)
  80f764:	10800017 	ldw	r2,0(r2)
  80f768:	e0bffc15 	stw	r2,-16(fp)
  alt_32 len;

  len  = strlen(name) + 1;
  80f76c:	e13ffe17 	ldw	r4,-8(fp)
  80f770:	0807c540 	call	807c54 <strlen>
  80f774:	10800044 	addi	r2,r2,1
  80f778:	e0bffd15 	stw	r2,-12(fp)
  /*
   * Check each list entry in turn, until a match is found, or we reach the
   * end of the list (i.e. next winds up pointing back to the list head).
   */ 

  while (next != (alt_dev*) llist)
  80f77c:	00000d06 	br	80f7b4 <alt_find_dev+0x6c>
    /* 
     * memcmp() is used here rather than strcmp() in order to reduce the size
     * of the executable.
     */

    if (!memcmp (next->name, name, len))
  80f780:	e0bffc17 	ldw	r2,-16(fp)
  80f784:	10800217 	ldw	r2,8(r2)
  80f788:	e0fffd17 	ldw	r3,-12(fp)
  80f78c:	180d883a 	mov	r6,r3
  80f790:	e17ffe17 	ldw	r5,-8(fp)
  80f794:	1009883a 	mov	r4,r2
  80f798:	080fbd00 	call	80fbd0 <memcmp>
  80f79c:	1000021e 	bne	r2,zero,80f7a8 <alt_find_dev+0x60>
    {
      /* match found */

      return next;
  80f7a0:	e0bffc17 	ldw	r2,-16(fp)
  80f7a4:	00000706 	br	80f7c4 <alt_find_dev+0x7c>
    }
    next = (alt_dev*) next->llist.next;
  80f7a8:	e0bffc17 	ldw	r2,-16(fp)
  80f7ac:	10800017 	ldw	r2,0(r2)
  80f7b0:	e0bffc15 	stw	r2,-16(fp)
  /*
   * Check each list entry in turn, until a match is found, or we reach the
   * end of the list (i.e. next winds up pointing back to the list head).
   */ 

  while (next != (alt_dev*) llist)
  80f7b4:	e0fffc17 	ldw	r3,-16(fp)
  80f7b8:	e0bfff17 	ldw	r2,-4(fp)
  80f7bc:	18bff01e 	bne	r3,r2,80f780 <__alt_data_end+0xff80f780>
    next = (alt_dev*) next->llist.next;
  }
  
  /* No match found */
  
  return NULL;
  80f7c0:	0005883a 	mov	r2,zero
}
  80f7c4:	e037883a 	mov	sp,fp
  80f7c8:	dfc00117 	ldw	ra,4(sp)
  80f7cc:	df000017 	ldw	fp,0(sp)
  80f7d0:	dec00204 	addi	sp,sp,8
  80f7d4:	f800283a 	ret

0080f7d8 <alt_find_file>:
 * either '/' or '\0' is the prefix of the filename. For example the filename:
 * "/myfilesystem/junk.txt" would match: "/myfilesystem", but not: "/myfile". 
 */
 
alt_dev* alt_find_file (const char* name)
{
  80f7d8:	defffb04 	addi	sp,sp,-20
  80f7dc:	dfc00415 	stw	ra,16(sp)
  80f7e0:	df000315 	stw	fp,12(sp)
  80f7e4:	df000304 	addi	fp,sp,12
  80f7e8:	e13fff15 	stw	r4,-4(fp)
  alt_dev* next = (alt_dev*) alt_fs_list.next;   
  80f7ec:	d0a00617 	ldw	r2,-32744(gp)
  80f7f0:	e0bffd15 	stw	r2,-12(fp)
  /*
   * Check each list entry in turn, until a match is found, or we reach the
   * end of the list (i.e. next winds up pointing back to the list head).
   */ 
 
  while (next != (alt_dev*) &alt_fs_list)
  80f7f4:	00003106 	br	80f8bc <alt_find_file+0xe4>
  {
    len = strlen(next->name);
  80f7f8:	e0bffd17 	ldw	r2,-12(fp)
  80f7fc:	10800217 	ldw	r2,8(r2)
  80f800:	1009883a 	mov	r4,r2
  80f804:	0807c540 	call	807c54 <strlen>
  80f808:	e0bffe15 	stw	r2,-8(fp)
    
    if (next->name[len-1] == '/')
  80f80c:	e0bffd17 	ldw	r2,-12(fp)
  80f810:	10c00217 	ldw	r3,8(r2)
  80f814:	e0bffe17 	ldw	r2,-8(fp)
  80f818:	10bfffc4 	addi	r2,r2,-1
  80f81c:	1885883a 	add	r2,r3,r2
  80f820:	10800003 	ldbu	r2,0(r2)
  80f824:	10803fcc 	andi	r2,r2,255
  80f828:	1080201c 	xori	r2,r2,128
  80f82c:	10bfe004 	addi	r2,r2,-128
  80f830:	10800bd8 	cmpnei	r2,r2,47
  80f834:	1000031e 	bne	r2,zero,80f844 <alt_find_file+0x6c>
    {
      len -= 1;
  80f838:	e0bffe17 	ldw	r2,-8(fp)
  80f83c:	10bfffc4 	addi	r2,r2,-1
  80f840:	e0bffe15 	stw	r2,-8(fp)
    }

    if (((name[len] == '/') || (name[len] == '\0')) && 
  80f844:	e0bffe17 	ldw	r2,-8(fp)
  80f848:	e0ffff17 	ldw	r3,-4(fp)
  80f84c:	1885883a 	add	r2,r3,r2
  80f850:	10800003 	ldbu	r2,0(r2)
  80f854:	10803fcc 	andi	r2,r2,255
  80f858:	1080201c 	xori	r2,r2,128
  80f85c:	10bfe004 	addi	r2,r2,-128
  80f860:	10800be0 	cmpeqi	r2,r2,47
  80f864:	1000081e 	bne	r2,zero,80f888 <alt_find_file+0xb0>
  80f868:	e0bffe17 	ldw	r2,-8(fp)
  80f86c:	e0ffff17 	ldw	r3,-4(fp)
  80f870:	1885883a 	add	r2,r3,r2
  80f874:	10800003 	ldbu	r2,0(r2)
  80f878:	10803fcc 	andi	r2,r2,255
  80f87c:	1080201c 	xori	r2,r2,128
  80f880:	10bfe004 	addi	r2,r2,-128
  80f884:	10000a1e 	bne	r2,zero,80f8b0 <alt_find_file+0xd8>
        !memcmp (next->name, name, len))
  80f888:	e0bffd17 	ldw	r2,-12(fp)
  80f88c:	10800217 	ldw	r2,8(r2)
  80f890:	e0fffe17 	ldw	r3,-8(fp)
  80f894:	180d883a 	mov	r6,r3
  80f898:	e17fff17 	ldw	r5,-4(fp)
  80f89c:	1009883a 	mov	r4,r2
  80f8a0:	080fbd00 	call	80fbd0 <memcmp>
    if (next->name[len-1] == '/')
    {
      len -= 1;
    }

    if (((name[len] == '/') || (name[len] == '\0')) && 
  80f8a4:	1000021e 	bne	r2,zero,80f8b0 <alt_find_file+0xd8>
        !memcmp (next->name, name, len))
    {
      /* match found */

      return next;
  80f8a8:	e0bffd17 	ldw	r2,-12(fp)
  80f8ac:	00000706 	br	80f8cc <alt_find_file+0xf4>
    }
    next = (alt_dev*) next->llist.next;
  80f8b0:	e0bffd17 	ldw	r2,-12(fp)
  80f8b4:	10800017 	ldw	r2,0(r2)
  80f8b8:	e0bffd15 	stw	r2,-12(fp)
  /*
   * Check each list entry in turn, until a match is found, or we reach the
   * end of the list (i.e. next winds up pointing back to the list head).
   */ 
 
  while (next != (alt_dev*) &alt_fs_list)
  80f8bc:	e0fffd17 	ldw	r3,-12(fp)
  80f8c0:	d0a00604 	addi	r2,gp,-32744
  80f8c4:	18bfcc1e 	bne	r3,r2,80f7f8 <__alt_data_end+0xff80f7f8>
    next = (alt_dev*) next->llist.next;
  }
  
  /* No match found */
  
  return NULL;     
  80f8c8:	0005883a 	mov	r2,zero
}
  80f8cc:	e037883a 	mov	sp,fp
  80f8d0:	dfc00117 	ldw	ra,4(sp)
  80f8d4:	df000017 	ldw	fp,0(sp)
  80f8d8:	dec00204 	addi	sp,sp,8
  80f8dc:	f800283a 	ret

0080f8e0 <alt_get_fd>:
 * the offset of the file descriptor within the file descriptor array). A
 * negative value indicates failure.
 */

int alt_get_fd (alt_dev* dev)
{
  80f8e0:	defffa04 	addi	sp,sp,-24
  80f8e4:	dfc00515 	stw	ra,20(sp)
  80f8e8:	df000415 	stw	fp,16(sp)
  80f8ec:	dc000315 	stw	r16,12(sp)
  80f8f0:	df000404 	addi	fp,sp,16
  80f8f4:	e13ffe15 	stw	r4,-8(fp)
  alt_32 i;
  int rc = -EMFILE;
  80f8f8:	00bffa04 	movi	r2,-24
  80f8fc:	e0bffd15 	stw	r2,-12(fp)
   * indicates the highest file descriptor ever allocated. This is used to
   * improve efficency when searching the file descriptor list, and 
   * therefore reduce contention on the alt_fd_list_lock semaphore. 
   */

  for (i = 0; i < ALT_MAX_FD; i++)
  80f900:	e03ffc15 	stw	zero,-16(fp)
  80f904:	00001d06 	br	80f97c <alt_get_fd+0x9c>
  {
    if (!alt_fd_list[i].dev)
  80f908:	04002074 	movhi	r16,129
  80f90c:	8402c804 	addi	r16,r16,2848
  80f910:	e0bffc17 	ldw	r2,-16(fp)
  80f914:	01400304 	movi	r5,12
  80f918:	1009883a 	mov	r4,r2
  80f91c:	08005640 	call	800564 <__mulsi3>
  80f920:	8085883a 	add	r2,r16,r2
  80f924:	10800017 	ldw	r2,0(r2)
  80f928:	1000111e 	bne	r2,zero,80f970 <alt_get_fd+0x90>
    {
      alt_fd_list[i].dev = dev;
  80f92c:	04002074 	movhi	r16,129
  80f930:	8402c804 	addi	r16,r16,2848
  80f934:	e0bffc17 	ldw	r2,-16(fp)
  80f938:	01400304 	movi	r5,12
  80f93c:	1009883a 	mov	r4,r2
  80f940:	08005640 	call	800564 <__mulsi3>
  80f944:	8085883a 	add	r2,r16,r2
  80f948:	e0fffe17 	ldw	r3,-8(fp)
  80f94c:	10c00015 	stw	r3,0(r2)
      if (i > alt_max_fd)
  80f950:	d0e00a17 	ldw	r3,-32728(gp)
  80f954:	e0bffc17 	ldw	r2,-16(fp)
  80f958:	1880020e 	bge	r3,r2,80f964 <alt_get_fd+0x84>
      {
        alt_max_fd = i;
  80f95c:	e0bffc17 	ldw	r2,-16(fp)
  80f960:	d0a00a15 	stw	r2,-32728(gp)
      }
      rc = i;
  80f964:	e0bffc17 	ldw	r2,-16(fp)
  80f968:	e0bffd15 	stw	r2,-12(fp)
      goto alt_get_fd_exit;
  80f96c:	00000606 	br	80f988 <alt_get_fd+0xa8>
   * indicates the highest file descriptor ever allocated. This is used to
   * improve efficency when searching the file descriptor list, and 
   * therefore reduce contention on the alt_fd_list_lock semaphore. 
   */

  for (i = 0; i < ALT_MAX_FD; i++)
  80f970:	e0bffc17 	ldw	r2,-16(fp)
  80f974:	10800044 	addi	r2,r2,1
  80f978:	e0bffc15 	stw	r2,-16(fp)
  80f97c:	e0bffc17 	ldw	r2,-16(fp)
  80f980:	10800810 	cmplti	r2,r2,32
  80f984:	103fe01e 	bne	r2,zero,80f908 <__alt_data_end+0xff80f908>
   * file descriptor pool.
   */

  ALT_SEM_POST(alt_fd_list_lock);

  return rc;
  80f988:	e0bffd17 	ldw	r2,-12(fp)
}
  80f98c:	e6ffff04 	addi	sp,fp,-4
  80f990:	dfc00217 	ldw	ra,8(sp)
  80f994:	df000117 	ldw	fp,4(sp)
  80f998:	dc000017 	ldw	r16,0(sp)
  80f99c:	dec00304 	addi	sp,sp,12
  80f9a0:	f800283a 	ret

0080f9a4 <alt_icache_flush>:
 * alt_icache_flush() is called to flush the instruction cache for a memory
 * region of length "len" bytes, starting at address "start".
 */

void alt_icache_flush (void* start, alt_u32 len)
{
  80f9a4:	defffb04 	addi	sp,sp,-20
  80f9a8:	df000415 	stw	fp,16(sp)
  80f9ac:	df000404 	addi	fp,sp,16
  80f9b0:	e13ffe15 	stw	r4,-8(fp)
  80f9b4:	e17fff15 	stw	r5,-4(fp)

  /*
   * This is the most we would ever need to flush.
   */
 
  if (len > NIOS2_ICACHE_SIZE)
  80f9b8:	e0bfff17 	ldw	r2,-4(fp)
  80f9bc:	10810070 	cmpltui	r2,r2,1025
  80f9c0:	1000021e 	bne	r2,zero,80f9cc <alt_icache_flush+0x28>
  {
    len = NIOS2_ICACHE_SIZE;
  80f9c4:	00810004 	movi	r2,1024
  80f9c8:	e0bfff15 	stw	r2,-4(fp)
  }

  end = ((char*) start) + len;
  80f9cc:	e0fffe17 	ldw	r3,-8(fp)
  80f9d0:	e0bfff17 	ldw	r2,-4(fp)
  80f9d4:	1885883a 	add	r2,r3,r2
  80f9d8:	e0bffd15 	stw	r2,-12(fp)

  for (i = start; i < end; i+= NIOS2_ICACHE_LINE_SIZE)
  80f9dc:	e0bffe17 	ldw	r2,-8(fp)
  80f9e0:	e0bffc15 	stw	r2,-16(fp)
  80f9e4:	00000506 	br	80f9fc <alt_icache_flush+0x58>
  { 
    __asm__ volatile ("flushi %0" :: "r" (i)); 
  80f9e8:	e0bffc17 	ldw	r2,-16(fp)
  80f9ec:	1000603a 	flushi	r2
    len = NIOS2_ICACHE_SIZE;
  }

  end = ((char*) start) + len;

  for (i = start; i < end; i+= NIOS2_ICACHE_LINE_SIZE)
  80f9f0:	e0bffc17 	ldw	r2,-16(fp)
  80f9f4:	10800804 	addi	r2,r2,32
  80f9f8:	e0bffc15 	stw	r2,-16(fp)
  80f9fc:	e0fffc17 	ldw	r3,-16(fp)
  80fa00:	e0bffd17 	ldw	r2,-12(fp)
  80fa04:	18bff836 	bltu	r3,r2,80f9e8 <__alt_data_end+0xff80f9e8>
   * For an unaligned flush request, we've got one more line left.
   * Note that this is dependent on NIOS2_ICACHE_LINE_SIZE to be a 
   * multiple of 2 (which it always is).
   */

  if (((alt_u32) start) & (NIOS2_ICACHE_LINE_SIZE - 1))
  80fa08:	e0bffe17 	ldw	r2,-8(fp)
  80fa0c:	108007cc 	andi	r2,r2,31
  80fa10:	10000226 	beq	r2,zero,80fa1c <alt_icache_flush+0x78>
  {
    __asm__ volatile ("flushi %0" :: "r" (i));
  80fa14:	e0bffc17 	ldw	r2,-16(fp)
  80fa18:	1000603a 	flushi	r2
  /* 
   * Having flushed the cache, flush any stale instructions in the 
   * pipeline 
   */

  __asm__ volatile ("flushp");
  80fa1c:	0000203a 	flushp

#endif /* NIOS2_ICACHE_SIZE > 0 */
}
  80fa20:	0001883a 	nop
  80fa24:	e037883a 	mov	sp,fp
  80fa28:	df000017 	ldw	fp,0(sp)
  80fa2c:	dec00104 	addi	sp,sp,4
  80fa30:	f800283a 	ret

0080fa34 <alt_exception_cause_generated_bad_addr>:
 * Return: 1: BADADDR (bad_addr argument to handler) is valid
 *         0: BADADDR is not valid
 */
int 
alt_exception_cause_generated_bad_addr(alt_exception_cause cause)
{
  80fa34:	defffe04 	addi	sp,sp,-8
  80fa38:	df000115 	stw	fp,4(sp)
  80fa3c:	df000104 	addi	fp,sp,4
  80fa40:	e13fff15 	stw	r4,-4(fp)
  switch (cause) {
  80fa44:	e0bfff17 	ldw	r2,-4(fp)
  80fa48:	10bffe84 	addi	r2,r2,-6
  80fa4c:	10c00428 	cmpgeui	r3,r2,16
  80fa50:	18001a1e 	bne	r3,zero,80fabc <alt_exception_cause_generated_bad_addr+0x88>
  80fa54:	100690ba 	slli	r3,r2,2
  80fa58:	00802074 	movhi	r2,129
  80fa5c:	10be9b04 	addi	r2,r2,-1428
  80fa60:	1885883a 	add	r2,r3,r2
  80fa64:	10800017 	ldw	r2,0(r2)
  80fa68:	1000683a 	jmp	r2
  80fa6c:	0080faac 	andhi	r2,zero,1002
  80fa70:	0080faac 	andhi	r2,zero,1002
  80fa74:	0080fabc 	xorhi	r2,zero,1002
  80fa78:	0080fabc 	xorhi	r2,zero,1002
  80fa7c:	0080fabc 	xorhi	r2,zero,1002
  80fa80:	0080faac 	andhi	r2,zero,1002
  80fa84:	0080fab4 	movhi	r2,1002
  80fa88:	0080fabc 	xorhi	r2,zero,1002
  80fa8c:	0080faac 	andhi	r2,zero,1002
  80fa90:	0080faac 	andhi	r2,zero,1002
  80fa94:	0080fabc 	xorhi	r2,zero,1002
  80fa98:	0080faac 	andhi	r2,zero,1002
  80fa9c:	0080fab4 	movhi	r2,1002
  80faa0:	0080fabc 	xorhi	r2,zero,1002
  80faa4:	0080fabc 	xorhi	r2,zero,1002
  80faa8:	0080faac 	andhi	r2,zero,1002
  case NIOS2_EXCEPTION_MISALIGNED_TARGET_PC:
  case NIOS2_EXCEPTION_TLB_READ_PERM_VIOLATION:
  case NIOS2_EXCEPTION_TLB_WRITE_PERM_VIOLATION:
  case NIOS2_EXCEPTION_MPU_DATA_REGION_VIOLATION:
  case NIOS2_EXCEPTION_ECC_DATA_ERR:
    return 1;
  80faac:	00800044 	movi	r2,1
  80fab0:	00000306 	br	80fac0 <alt_exception_cause_generated_bad_addr+0x8c>

  case NIOS2_EXCEPTION_TLB_MISS:
  case NIOS2_EXCEPTION_ECC_TLB_ERR:
    return 0;
  80fab4:	0005883a 	mov	r2,zero
  80fab8:	00000106 	br	80fac0 <alt_exception_cause_generated_bad_addr+0x8c>

  default:
    return 0;
  80fabc:	0005883a 	mov	r2,zero
  }
}
  80fac0:	e037883a 	mov	sp,fp
  80fac4:	df000017 	ldw	fp,0(sp)
  80fac8:	dec00104 	addi	sp,sp,4
  80facc:	f800283a 	ret

0080fad0 <atexit>:
  80fad0:	200b883a 	mov	r5,r4
  80fad4:	000f883a 	mov	r7,zero
  80fad8:	000d883a 	mov	r6,zero
  80fadc:	0009883a 	mov	r4,zero
  80fae0:	080fc4c1 	jmpi	80fc4c <__register_exitproc>

0080fae4 <exit>:
  80fae4:	defffe04 	addi	sp,sp,-8
  80fae8:	000b883a 	mov	r5,zero
  80faec:	dc000015 	stw	r16,0(sp)
  80faf0:	dfc00115 	stw	ra,4(sp)
  80faf4:	2021883a 	mov	r16,r4
  80faf8:	080fd640 	call	80fd64 <__call_exitprocs>
  80fafc:	00802074 	movhi	r2,129
  80fb00:	10833304 	addi	r2,r2,3276
  80fb04:	11000017 	ldw	r4,0(r2)
  80fb08:	20800f17 	ldw	r2,60(r4)
  80fb0c:	10000126 	beq	r2,zero,80fb14 <exit+0x30>
  80fb10:	103ee83a 	callr	r2
  80fb14:	8009883a 	mov	r4,r16
  80fb18:	080fee40 	call	80fee4 <_exit>

0080fb1c <_fputs_r>:
  80fb1c:	defff804 	addi	sp,sp,-32
  80fb20:	dc400615 	stw	r17,24(sp)
  80fb24:	2023883a 	mov	r17,r4
  80fb28:	2809883a 	mov	r4,r5
  80fb2c:	dc000515 	stw	r16,20(sp)
  80fb30:	dfc00715 	stw	ra,28(sp)
  80fb34:	3021883a 	mov	r16,r6
  80fb38:	d9400315 	stw	r5,12(sp)
  80fb3c:	0807c540 	call	807c54 <strlen>
  80fb40:	d8800215 	stw	r2,8(sp)
  80fb44:	d8800415 	stw	r2,16(sp)
  80fb48:	d8800304 	addi	r2,sp,12
  80fb4c:	d8800015 	stw	r2,0(sp)
  80fb50:	00800044 	movi	r2,1
  80fb54:	d8800115 	stw	r2,4(sp)
  80fb58:	88000226 	beq	r17,zero,80fb64 <_fputs_r+0x48>
  80fb5c:	88800e17 	ldw	r2,56(r17)
  80fb60:	10001226 	beq	r2,zero,80fbac <_fputs_r+0x90>
  80fb64:	8080030b 	ldhu	r2,12(r16)
  80fb68:	10c8000c 	andi	r3,r2,8192
  80fb6c:	1800061e 	bne	r3,zero,80fb88 <_fputs_r+0x6c>
  80fb70:	81001917 	ldw	r4,100(r16)
  80fb74:	00f7ffc4 	movi	r3,-8193
  80fb78:	10880014 	ori	r2,r2,8192
  80fb7c:	20c6703a 	and	r3,r4,r3
  80fb80:	8080030d 	sth	r2,12(r16)
  80fb84:	80c01915 	stw	r3,100(r16)
  80fb88:	d80d883a 	mov	r6,sp
  80fb8c:	800b883a 	mov	r5,r16
  80fb90:	8809883a 	mov	r4,r17
  80fb94:	08098dc0 	call	8098dc <__sfvwrite_r>
  80fb98:	dfc00717 	ldw	ra,28(sp)
  80fb9c:	dc400617 	ldw	r17,24(sp)
  80fba0:	dc000517 	ldw	r16,20(sp)
  80fba4:	dec00804 	addi	sp,sp,32
  80fba8:	f800283a 	ret
  80fbac:	8809883a 	mov	r4,r17
  80fbb0:	08054b80 	call	8054b8 <__sinit>
  80fbb4:	003feb06 	br	80fb64 <__alt_data_end+0xff80fb64>

0080fbb8 <fputs>:
  80fbb8:	00802074 	movhi	r2,129
  80fbbc:	10833404 	addi	r2,r2,3280
  80fbc0:	280d883a 	mov	r6,r5
  80fbc4:	200b883a 	mov	r5,r4
  80fbc8:	11000017 	ldw	r4,0(r2)
  80fbcc:	080fb1c1 	jmpi	80fb1c <_fputs_r>

0080fbd0 <memcmp>:
  80fbd0:	01c000c4 	movi	r7,3
  80fbd4:	3980192e 	bgeu	r7,r6,80fc3c <memcmp+0x6c>
  80fbd8:	2144b03a 	or	r2,r4,r5
  80fbdc:	11c4703a 	and	r2,r2,r7
  80fbe0:	10000f26 	beq	r2,zero,80fc20 <memcmp+0x50>
  80fbe4:	20800003 	ldbu	r2,0(r4)
  80fbe8:	28c00003 	ldbu	r3,0(r5)
  80fbec:	10c0151e 	bne	r2,r3,80fc44 <memcmp+0x74>
  80fbf0:	31bfff84 	addi	r6,r6,-2
  80fbf4:	01ffffc4 	movi	r7,-1
  80fbf8:	00000406 	br	80fc0c <memcmp+0x3c>
  80fbfc:	20800003 	ldbu	r2,0(r4)
  80fc00:	28c00003 	ldbu	r3,0(r5)
  80fc04:	31bfffc4 	addi	r6,r6,-1
  80fc08:	10c00e1e 	bne	r2,r3,80fc44 <memcmp+0x74>
  80fc0c:	21000044 	addi	r4,r4,1
  80fc10:	29400044 	addi	r5,r5,1
  80fc14:	31fff91e 	bne	r6,r7,80fbfc <__alt_data_end+0xff80fbfc>
  80fc18:	0005883a 	mov	r2,zero
  80fc1c:	f800283a 	ret
  80fc20:	20c00017 	ldw	r3,0(r4)
  80fc24:	28800017 	ldw	r2,0(r5)
  80fc28:	18bfee1e 	bne	r3,r2,80fbe4 <__alt_data_end+0xff80fbe4>
  80fc2c:	31bfff04 	addi	r6,r6,-4
  80fc30:	21000104 	addi	r4,r4,4
  80fc34:	29400104 	addi	r5,r5,4
  80fc38:	39bff936 	bltu	r7,r6,80fc20 <__alt_data_end+0xff80fc20>
  80fc3c:	303fe91e 	bne	r6,zero,80fbe4 <__alt_data_end+0xff80fbe4>
  80fc40:	003ff506 	br	80fc18 <__alt_data_end+0xff80fc18>
  80fc44:	10c5c83a 	sub	r2,r2,r3
  80fc48:	f800283a 	ret

0080fc4c <__register_exitproc>:
  80fc4c:	defffa04 	addi	sp,sp,-24
  80fc50:	dc000315 	stw	r16,12(sp)
  80fc54:	04002074 	movhi	r16,129
  80fc58:	84033304 	addi	r16,r16,3276
  80fc5c:	80c00017 	ldw	r3,0(r16)
  80fc60:	dc400415 	stw	r17,16(sp)
  80fc64:	dfc00515 	stw	ra,20(sp)
  80fc68:	18805217 	ldw	r2,328(r3)
  80fc6c:	2023883a 	mov	r17,r4
  80fc70:	10003726 	beq	r2,zero,80fd50 <__register_exitproc+0x104>
  80fc74:	10c00117 	ldw	r3,4(r2)
  80fc78:	010007c4 	movi	r4,31
  80fc7c:	20c00e16 	blt	r4,r3,80fcb8 <__register_exitproc+0x6c>
  80fc80:	1a000044 	addi	r8,r3,1
  80fc84:	8800221e 	bne	r17,zero,80fd10 <__register_exitproc+0xc4>
  80fc88:	18c00084 	addi	r3,r3,2
  80fc8c:	18c7883a 	add	r3,r3,r3
  80fc90:	18c7883a 	add	r3,r3,r3
  80fc94:	12000115 	stw	r8,4(r2)
  80fc98:	10c7883a 	add	r3,r2,r3
  80fc9c:	19400015 	stw	r5,0(r3)
  80fca0:	0005883a 	mov	r2,zero
  80fca4:	dfc00517 	ldw	ra,20(sp)
  80fca8:	dc400417 	ldw	r17,16(sp)
  80fcac:	dc000317 	ldw	r16,12(sp)
  80fcb0:	dec00604 	addi	sp,sp,24
  80fcb4:	f800283a 	ret
  80fcb8:	00800034 	movhi	r2,0
  80fcbc:	10800004 	addi	r2,r2,0
  80fcc0:	10002626 	beq	r2,zero,80fd5c <__register_exitproc+0x110>
  80fcc4:	01006404 	movi	r4,400
  80fcc8:	d9400015 	stw	r5,0(sp)
  80fccc:	d9800115 	stw	r6,4(sp)
  80fcd0:	d9c00215 	stw	r7,8(sp)
  80fcd4:	00000000 	call	0 <__reset-0x800000>
  80fcd8:	d9400017 	ldw	r5,0(sp)
  80fcdc:	d9800117 	ldw	r6,4(sp)
  80fce0:	d9c00217 	ldw	r7,8(sp)
  80fce4:	10001d26 	beq	r2,zero,80fd5c <__register_exitproc+0x110>
  80fce8:	81000017 	ldw	r4,0(r16)
  80fcec:	10000115 	stw	zero,4(r2)
  80fcf0:	02000044 	movi	r8,1
  80fcf4:	22405217 	ldw	r9,328(r4)
  80fcf8:	0007883a 	mov	r3,zero
  80fcfc:	12400015 	stw	r9,0(r2)
  80fd00:	20805215 	stw	r2,328(r4)
  80fd04:	10006215 	stw	zero,392(r2)
  80fd08:	10006315 	stw	zero,396(r2)
  80fd0c:	883fde26 	beq	r17,zero,80fc88 <__alt_data_end+0xff80fc88>
  80fd10:	18c9883a 	add	r4,r3,r3
  80fd14:	2109883a 	add	r4,r4,r4
  80fd18:	1109883a 	add	r4,r2,r4
  80fd1c:	21802215 	stw	r6,136(r4)
  80fd20:	01800044 	movi	r6,1
  80fd24:	12406217 	ldw	r9,392(r2)
  80fd28:	30cc983a 	sll	r6,r6,r3
  80fd2c:	4992b03a 	or	r9,r9,r6
  80fd30:	12406215 	stw	r9,392(r2)
  80fd34:	21c04215 	stw	r7,264(r4)
  80fd38:	01000084 	movi	r4,2
  80fd3c:	893fd21e 	bne	r17,r4,80fc88 <__alt_data_end+0xff80fc88>
  80fd40:	11006317 	ldw	r4,396(r2)
  80fd44:	218cb03a 	or	r6,r4,r6
  80fd48:	11806315 	stw	r6,396(r2)
  80fd4c:	003fce06 	br	80fc88 <__alt_data_end+0xff80fc88>
  80fd50:	18805304 	addi	r2,r3,332
  80fd54:	18805215 	stw	r2,328(r3)
  80fd58:	003fc606 	br	80fc74 <__alt_data_end+0xff80fc74>
  80fd5c:	00bfffc4 	movi	r2,-1
  80fd60:	003fd006 	br	80fca4 <__alt_data_end+0xff80fca4>

0080fd64 <__call_exitprocs>:
  80fd64:	defff504 	addi	sp,sp,-44
  80fd68:	df000915 	stw	fp,36(sp)
  80fd6c:	dd400615 	stw	r21,24(sp)
  80fd70:	dc800315 	stw	r18,12(sp)
  80fd74:	dfc00a15 	stw	ra,40(sp)
  80fd78:	ddc00815 	stw	r23,32(sp)
  80fd7c:	dd800715 	stw	r22,28(sp)
  80fd80:	dd000515 	stw	r20,20(sp)
  80fd84:	dcc00415 	stw	r19,16(sp)
  80fd88:	dc400215 	stw	r17,8(sp)
  80fd8c:	dc000115 	stw	r16,4(sp)
  80fd90:	d9000015 	stw	r4,0(sp)
  80fd94:	2839883a 	mov	fp,r5
  80fd98:	04800044 	movi	r18,1
  80fd9c:	057fffc4 	movi	r21,-1
  80fda0:	00802074 	movhi	r2,129
  80fda4:	10833304 	addi	r2,r2,3276
  80fda8:	12000017 	ldw	r8,0(r2)
  80fdac:	45005217 	ldw	r20,328(r8)
  80fdb0:	44c05204 	addi	r19,r8,328
  80fdb4:	a0001c26 	beq	r20,zero,80fe28 <__call_exitprocs+0xc4>
  80fdb8:	a0800117 	ldw	r2,4(r20)
  80fdbc:	15ffffc4 	addi	r23,r2,-1
  80fdc0:	b8000d16 	blt	r23,zero,80fdf8 <__call_exitprocs+0x94>
  80fdc4:	14000044 	addi	r16,r2,1
  80fdc8:	8421883a 	add	r16,r16,r16
  80fdcc:	8421883a 	add	r16,r16,r16
  80fdd0:	84402004 	addi	r17,r16,128
  80fdd4:	a463883a 	add	r17,r20,r17
  80fdd8:	a421883a 	add	r16,r20,r16
  80fddc:	e0001e26 	beq	fp,zero,80fe58 <__call_exitprocs+0xf4>
  80fde0:	80804017 	ldw	r2,256(r16)
  80fde4:	e0801c26 	beq	fp,r2,80fe58 <__call_exitprocs+0xf4>
  80fde8:	bdffffc4 	addi	r23,r23,-1
  80fdec:	843fff04 	addi	r16,r16,-4
  80fdf0:	8c7fff04 	addi	r17,r17,-4
  80fdf4:	bd7ff91e 	bne	r23,r21,80fddc <__alt_data_end+0xff80fddc>
  80fdf8:	00800034 	movhi	r2,0
  80fdfc:	10800004 	addi	r2,r2,0
  80fe00:	10000926 	beq	r2,zero,80fe28 <__call_exitprocs+0xc4>
  80fe04:	a0800117 	ldw	r2,4(r20)
  80fe08:	1000301e 	bne	r2,zero,80fecc <__call_exitprocs+0x168>
  80fe0c:	a0800017 	ldw	r2,0(r20)
  80fe10:	10003226 	beq	r2,zero,80fedc <__call_exitprocs+0x178>
  80fe14:	a009883a 	mov	r4,r20
  80fe18:	98800015 	stw	r2,0(r19)
  80fe1c:	00000000 	call	0 <__reset-0x800000>
  80fe20:	9d000017 	ldw	r20,0(r19)
  80fe24:	a03fe41e 	bne	r20,zero,80fdb8 <__alt_data_end+0xff80fdb8>
  80fe28:	dfc00a17 	ldw	ra,40(sp)
  80fe2c:	df000917 	ldw	fp,36(sp)
  80fe30:	ddc00817 	ldw	r23,32(sp)
  80fe34:	dd800717 	ldw	r22,28(sp)
  80fe38:	dd400617 	ldw	r21,24(sp)
  80fe3c:	dd000517 	ldw	r20,20(sp)
  80fe40:	dcc00417 	ldw	r19,16(sp)
  80fe44:	dc800317 	ldw	r18,12(sp)
  80fe48:	dc400217 	ldw	r17,8(sp)
  80fe4c:	dc000117 	ldw	r16,4(sp)
  80fe50:	dec00b04 	addi	sp,sp,44
  80fe54:	f800283a 	ret
  80fe58:	a0800117 	ldw	r2,4(r20)
  80fe5c:	80c00017 	ldw	r3,0(r16)
  80fe60:	10bfffc4 	addi	r2,r2,-1
  80fe64:	15c01426 	beq	r2,r23,80feb8 <__call_exitprocs+0x154>
  80fe68:	80000015 	stw	zero,0(r16)
  80fe6c:	183fde26 	beq	r3,zero,80fde8 <__alt_data_end+0xff80fde8>
  80fe70:	95c8983a 	sll	r4,r18,r23
  80fe74:	a0806217 	ldw	r2,392(r20)
  80fe78:	a5800117 	ldw	r22,4(r20)
  80fe7c:	2084703a 	and	r2,r4,r2
  80fe80:	10000b26 	beq	r2,zero,80feb0 <__call_exitprocs+0x14c>
  80fe84:	a0806317 	ldw	r2,396(r20)
  80fe88:	2088703a 	and	r4,r4,r2
  80fe8c:	20000c1e 	bne	r4,zero,80fec0 <__call_exitprocs+0x15c>
  80fe90:	89400017 	ldw	r5,0(r17)
  80fe94:	d9000017 	ldw	r4,0(sp)
  80fe98:	183ee83a 	callr	r3
  80fe9c:	a0800117 	ldw	r2,4(r20)
  80fea0:	15bfbf1e 	bne	r2,r22,80fda0 <__alt_data_end+0xff80fda0>
  80fea4:	98800017 	ldw	r2,0(r19)
  80fea8:	153fcf26 	beq	r2,r20,80fde8 <__alt_data_end+0xff80fde8>
  80feac:	003fbc06 	br	80fda0 <__alt_data_end+0xff80fda0>
  80feb0:	183ee83a 	callr	r3
  80feb4:	003ff906 	br	80fe9c <__alt_data_end+0xff80fe9c>
  80feb8:	a5c00115 	stw	r23,4(r20)
  80febc:	003feb06 	br	80fe6c <__alt_data_end+0xff80fe6c>
  80fec0:	89000017 	ldw	r4,0(r17)
  80fec4:	183ee83a 	callr	r3
  80fec8:	003ff406 	br	80fe9c <__alt_data_end+0xff80fe9c>
  80fecc:	a0800017 	ldw	r2,0(r20)
  80fed0:	a027883a 	mov	r19,r20
  80fed4:	1029883a 	mov	r20,r2
  80fed8:	003fb606 	br	80fdb4 <__alt_data_end+0xff80fdb4>
  80fedc:	0005883a 	mov	r2,zero
  80fee0:	003ffb06 	br	80fed0 <__alt_data_end+0xff80fed0>

0080fee4 <_exit>:
 *
 * ALT_EXIT is mapped onto the _exit() system call in alt_syscall.h
 */

void ALT_EXIT (int exit_code)
{
  80fee4:	defffd04 	addi	sp,sp,-12
  80fee8:	df000215 	stw	fp,8(sp)
  80feec:	df000204 	addi	fp,sp,8
  80fef0:	e13fff15 	stw	r4,-4(fp)
  ALT_LOG_PRINT_BOOT("[alt_exit.c] Entering _exit() function.\r\n");
  ALT_LOG_PRINT_BOOT("[alt_exit.c] Exit code from main was %d.\r\n",exit_code);
  /* Stop all other threads */

  ALT_LOG_PRINT_BOOT("[alt_exit.c] Calling ALT_OS_STOP().\r\n");
  ALT_OS_STOP();
  80fef4:	0001883a 	nop
  80fef8:	e0bfff17 	ldw	r2,-4(fp)
  80fefc:	e0bffe15 	stw	r2,-8(fp)
/*
 * Routine called on exit.
 */
static ALT_INLINE ALT_ALWAYS_INLINE void alt_sim_halt(int exit_code)
{
  register int r2 asm ("r2") = exit_code;
  80ff00:	e0bffe17 	ldw	r2,-8(fp)
  __asm__ volatile ("\n0:\n\taddi %0,%0, -1\n\tbgt %0,zero,0b" : : "r" (ALT_CPU_FREQ/100) ); /* Delay for >30ms */

  __asm__ volatile ("break 2" : : "r"(r2), "r"(r3) ALT_GMON_DATA );

#else /* !DEBUG_STUB */
  if (r2) {
  80ff04:	10000226 	beq	r2,zero,80ff10 <_exit+0x2c>
    ALT_SIM_FAIL();
  80ff08:	002af070 	cmpltui	zero,zero,43969
  80ff0c:	00000106 	br	80ff14 <_exit+0x30>
  } else {
    ALT_SIM_PASS();
  80ff10:	002af0b0 	cmpltui	zero,zero,43970
  ALT_SIM_HALT(exit_code);

  /* spin forever, since there's no where to go back to */

  ALT_LOG_PRINT_BOOT("[alt_exit.c] Spinning forever.\r\n");
  while (1);
  80ff14:	003fff06 	br	80ff14 <__alt_data_end+0xff80ff14>
